 PhysX3CharacterKinematicDEBUG_x64

 Timestamp is 5c00a627 (Thu Nov 29 23:53:27 2018)

 Preferred load address is 0000000180000000

 Start         Length     Name                   Class
 0001:00000000 000031a0H .text$di                CODE
 0001:000031a0 00044260H .text$mn                CODE
 0001:00047400 00001020H .text$mn$00             CODE
 0001:00048420 0000115fH .text$x                 CODE
 0002:00000000 00000110H .CRT$XCA                DATA
 0002:00000110 00000140H .CRT$XCU                DATA
 0002:00000250 00000110H .CRT$XCZ                DATA
 0002:00000360 00000110H .CRT$XIA                DATA
 0002:00000470 00000110H .CRT$XIZ                DATA
 0002:00000580 00000110H .CRT$XPA                DATA
 0002:00000690 00000110H .CRT$XPZ                DATA
 0002:000007a0 00000110H .CRT$XTA                DATA
 0002:000008b0 00000110H .CRT$XTZ                DATA
 0002:000009c0 000040c8H .rdata                  DATA
 0002:00004a88 00000188H .rdata$r                DATA
 0002:00004c10 000001b0H .rdata$zzzdbg           DATA
 0002:00004dc0 00000110H .rtc$IAA                DATA
 0002:00004ed0 000001d0H .rtc$IMZ                DATA
 0002:000050a0 00000110H .rtc$IZZ                DATA
 0002:000051b0 00000110H .rtc$TAA                DATA
 0002:000052c0 000001d0H .rtc$TMZ                DATA
 0002:00005490 00000110H .rtc$TZZ                DATA
 0002:000055a0 00002760H .xdata                  DATA
 0002:00007d00 00000b11H .edata                  DATA
 0003:00000000 000001e0H .data                   DATA
 0003:000001e0 000002a0H .data$r                 DATA
 0003:00000480 000008d9H .bss                    DATA
 0004:00000000 000033e4H .pdata                  DATA
 0005:00000000 00000570H .idata$5                DATA
 0005:00000570 00000064H .idata$2                DATA
 0005:000005d4 00000014H .idata$3                DATA
 0005:000005e8 00000570H .idata$4                DATA
 0005:00000b58 00001333H .idata$6                DATA
 0006:00000000 0000012eH .gfids$y                DATA
 0007:00000000 0000011bH .00cfg                  DATA
 0008:00000000 000001c0H .rsrc$01                DATA
 0008:000001c0 00000700H .rsrc$02                DATA

  Address         Publics by Value              Rva+Base               Lib:Object

 0000:00000000       __guard_iat_count          0000000000000000     <absolute>
 0000:00000000       __guard_fids_table         0000000000000000     <absolute>
 0000:00000000       __dynamic_value_reloc_table 0000000000000000     <absolute>
 0000:00000000       ___safe_se_handler_table   0000000000000000     <absolute>
 0000:00000000       ___safe_se_handler_count   0000000000000000     <absolute>
 0000:00000000       __guard_longjmp_count      0000000000000000     <absolute>
 0000:00000000       __guard_iat_table          0000000000000000     <absolute>
 0000:00000000       __guard_fids_count         0000000000000000     <absolute>
 0000:00000000       __guard_longjmp_table      0000000000000000     <absolute>
 0000:00000100       __guard_flags              0000000000000100     <absolute>
 0000:00000000       __ImageBase                0000000180000000     <linker-defined>
 0001:000031a0       ??0BoxController@Cct@physx@@QEAA@AEBVPxControllerDesc@2@AEAVPxPhysics@2@PEAVPxScene@2@@Z 00000001800041a0 f   CctBoxController.obj
 0001:00003300       ??1BoxController@Cct@physx@@UEAA@XZ 0000000180004300 f   CctBoxController.obj
 0001:00003350       ?getWorldBox@BoxController@Cct@physx@@UEBA_NAEAUPxExtendedBounds3@3@@Z 0000000180004350 f   CctBoxController.obj
 0001:000033c0       ?setFootPosition@BoxController@Cct@physx@@UEAA_NAEBUPxExtendedVec3@3@@Z 00000001800043c0 f   CctBoxController.obj
 0001:00003450       ?getFootPosition@BoxController@Cct@physx@@UEBA?AUPxExtendedVec3@3@XZ 0000000180004450 f   CctBoxController.obj
 0001:000034e0       ?invalidateCache@BoxController@Cct@physx@@UEAAXXZ 00000001800044e0 f   CctBoxController.obj
 0001:00003560       ?resize@BoxController@Cct@physx@@UEAAXM@Z 0000000180004560 f   CctBoxController.obj
 0001:00003630       ?getHalfHeight@BoxController@Cct@physx@@UEBAMXZ 0000000180004630 f   CctBoxController.obj
 0001:00003650       ?getHalfSideExtent@BoxController@Cct@physx@@UEBAMXZ 0000000180004650 f   CctBoxController.obj
 0001:00003670       ?getHalfForwardExtent@BoxController@Cct@physx@@UEBAMXZ 0000000180004670 f   CctBoxController.obj
 0001:00003690       ?setHalfHeight@BoxController@Cct@physx@@UEAA_NM@Z 0000000180004690 f   CctBoxController.obj
 0001:000036e0       ?setHalfSideExtent@BoxController@Cct@physx@@UEAA_NM@Z 00000001800046e0 f   CctBoxController.obj
 0001:00003730       ?setHalfForwardExtent@BoxController@Cct@physx@@UEAA_NM@Z 0000000180004730 f   CctBoxController.obj
 0001:00003780       ?updateKinematicProxy@BoxController@Cct@physx@@QEAA_NXZ 0000000180004780 f   CctBoxController.obj
 0001:000038a0       ?getOBB@BoxController@Cct@physx@@QEBAXAEAVPxExtendedBox@3@@Z 00000001800048a0 f   CctBoxController.obj
 0001:00003ba0       ??0Allocator@shdfnd@physx@@QEAA@PEBD@Z 0000000180004ba0 f i CctBoxController.obj
 0001:00003bc0       ??0NonTrackingAllocator@shdfnd@physx@@QEAA@PEBD@Z 0000000180004bc0 f i CctBoxController.obj
 0001:00003be0       ??0PxBoxController@physx@@IEAA@XZ 0000000180004be0 f i CctBoxController.obj
 0001:00003c20       ??0PxBoxGeometry@physx@@QEAA@XZ 0000000180004c20 f i CctBoxController.obj
 0001:00003c70       ??0PxController@physx@@IEAA@XZ 0000000180004c70 f i CctBoxController.obj
 0001:00003c90       ??0PxControllerManager@physx@@IEAA@XZ 0000000180004c90 f i CctBoxController.obj
 0001:00003cb0       ??0PxControllerManager@physx@@QEAA@AEBV01@@Z 0000000180004cb0 f i CctBoxController.obj
 0001:00003ce0       ??0PxExtendedBounds3@physx@@QEAA@XZ 0000000180004ce0 f i CctBoxController.obj
 0001:00003d20       ??0PxExtendedVec3@physx@@QEAA@NNN@Z 0000000180004d20 f i CctBoxController.obj
 0001:00003d80       ??0PxExtendedVec3@physx@@QEAA@XZ 0000000180004d80 f i CctBoxController.obj
 0001:00003d90       ??0PxFoundation@physx@@QEAA@AEBV01@@Z 0000000180004d90 f i CctBoxController.obj
 0001:00003dc0       ??0PxFoundation@physx@@QEAA@XZ 0000000180004dc0 f i CctBoxController.obj
 0001:00003de0       ??0PxGeometry@physx@@IEAA@W4Enum@PxGeometryType@1@@Z 0000000180004de0 f i CctBoxController.obj
 0001:00003e00       ??0PxVec3@physx@@QEAA@AEBV01@@Z 0000000180004e00 f i CctBoxController.obj
 0001:00003e60       ??0PxVec3@physx@@QEAA@MMM@Z 0000000180004e60 f i CctBoxController.obj
 0001:00003ec0       ??1PxBoxController@physx@@MEAA@XZ 0000000180004ec0 f i CctBoxController.obj
 0001:00003ef0       ??1PxController@physx@@MEAA@XZ 0000000180004ef0 f i CctBoxController.obj
 0001:00003f10       ??1PxControllerManager@physx@@MEAA@XZ 0000000180004f10 f i CctBoxController.obj
 0001:00003f30       ??1PxFoundation@physx@@MEAA@XZ 0000000180004f30 f i CctBoxController.obj
 0001:00003f50       ??3UserAllocated@shdfnd@physx@@SAXPEAX@Z 0000000180004f50 f i CctBoxController.obj
 0001:00003f80       ??4Allocator@shdfnd@physx@@QEAAAEAV012@$$QEAV012@@Z 0000000180004f80 f i CctBoxController.obj
 0001:00003fa0       ??4Allocator@shdfnd@physx@@QEAAAEAV012@AEBV012@@Z 0000000180004fa0 f i CctBoxController.obj
 0001:00003fc0       ??4MutexImpl@shdfnd@physx@@QEAAAEAV012@AEBV012@@Z 0000000180004fc0 f i CctBoxController.obj
 0001:00003fe0       ??4PxControllerManager@physx@@QEAAAEAV01@AEBV01@@Z 0000000180004fe0 f i CctBoxController.obj
 0001:00004000       ??4PxFoundation@physx@@QEAAAEAV01@AEBV01@@Z 0000000180005000 f i CctBoxController.obj
 0001:00004020       ??4PxQuat@physx@@QEAAAEAV01@AEBV01@@Z 0000000180005020 f i CctBoxController.obj
 0001:000040a0       ??4PxVec3@physx@@QEAAAEAV01@AEBV01@@Z 00000001800050a0 f i CctBoxController.obj
 0001:00004100       ??DPxVec3@physx@@QEBA?AV01@M@Z 0000000180005100 f i CctBoxController.obj
 0001:00004190       ??GPxExtendedVec3@physx@@QEBA?AVPxVec3@1@AEBU01@@Z 0000000180005190 f i CctBoxController.obj
 0001:00004240       ??HPxExtendedVec3@physx@@QEBA?AU01@AEBU01@@Z 0000000180005240 f i CctBoxController.obj
 0001:000042e0       ??XPxExtendedVec3@physx@@QEAAAEAU01@AEBM@Z 00000001800052e0 f i CctBoxController.obj
 0001:00004380       ??XPxVec3@physx@@QEAAAEAV01@M@Z 0000000180005380 f i CctBoxController.obj
 0001:00004400       ??YPxExtendedVec3@physx@@QEAAAEAU01@AEBVPxVec3@1@@Z 0000000180005400 f i CctBoxController.obj
 0001:000044a0       ??ZPxExtendedVec3@physx@@QEAAAEAU01@AEBVPxVec3@1@@Z 00000001800054a0 f i CctBoxController.obj
 0001:0000453c       ??_EBoxController@Cct@physx@@W7EAAPEAXI@Z 000000018000553c f i CctBoxController.obj
 0001:00004550       ??_EPxControllerManager@physx@@MEAAPEAXI@Z 0000000180005550 f i CctBoxController.obj
 0001:00004620       ??_EPxFoundation@physx@@MEAAPEAXI@Z 0000000180005620 f i CctBoxController.obj
 0001:000046f0       ??_FAllocator@shdfnd@physx@@QEAAXXZ 00000001800056f0 f i CctBoxController.obj
 0001:00004710       ??_FNamedAllocator@shdfnd@physx@@QEAAXXZ 0000000180005710 f i CctBoxController.obj
 0001:00004730       ??_EBoxController@Cct@physx@@UEAAPEAXI@Z 0000000180005730 f i CctBoxController.obj
 0001:00004730       ??_GBoxController@Cct@physx@@UEAAPEAXI@Z 0000000180005730 f i CctBoxController.obj
 0001:000047a0       ??_EPxBoxController@physx@@MEAAPEAXI@Z 00000001800057a0 f i CctBoxController.obj
 0001:000047a0       ??_GPxBoxController@physx@@MEAAPEAXI@Z 00000001800057a0 f i CctBoxController.obj
 0001:000047f0       ??_EPxController@physx@@MEAAPEAXI@Z 00000001800057f0 f i CctBoxController.obj
 0001:000047f0       ??_GPxController@physx@@MEAAPEAXI@Z 00000001800057f0 f i CctBoxController.obj
 0001:00004840       ??_GPxControllerManager@physx@@MEAAPEAXI@Z 0000000180005840 f i CctBoxController.obj
 0001:00004890       ??_GPxFoundation@physx@@MEAAPEAXI@Z 0000000180005890 f i CctBoxController.obj
 0001:000048e0       ??_H@YAXPEAX_K1P6APEAX0@Z@Z 00000001800058e0 f i CctBoxController.obj
 0001:00004980       ??_I@YAXPEAX_K1P6AX0@Z@Z   0000000180005980 f i CctBoxController.obj
 0001:00004a40       ?__empty_global_delete@@YAXPEAX@Z 0000000180005a40 f i CctBoxController.obj
 0001:00004a50       ?__global_delete@@YAXPEAX_K@Z 0000000180005a50 f i CctBoxController.obj
 0001:00004a50       ?__empty_global_delete@@YAXPEAX_K@Z 0000000180005a50 f i CctBoxController.obj
 0001:00004a60       ?deallocate@NonTrackingAllocator@shdfnd@physx@@QEAAXPEAX@Z 0000000180005a60 f i CctBoxController.obj
 0001:00004ab0       ?getActor@BoxController@Cct@physx@@UEBAPEAVPxRigidDynamic@3@XZ 0000000180005ab0 f i CctBoxController.obj
 0001:00004ad0       ?getCenter@physx@@YAXAEBUPxExtendedBounds3@1@AEAUPxExtendedVec3@1@@Z 0000000180005ad0 f i CctBoxController.obj
 0001:00004b50       ?getContactOffset@BoxController@Cct@physx@@UEBAMXZ 0000000180005b50 f i CctBoxController.obj
 0001:00004b70       ?getExtents@physx@@YAXAEBUPxExtendedBounds3@1@AEAVPxVec3@1@@Z 0000000180005b70 f i CctBoxController.obj
 0001:00004bd0       ?getHalfHeightInternal@BoxController@Cct@physx@@UEBAMXZ 0000000180005bd0 f i CctBoxController.obj
 0001:00004bf0       ?getNonWalkableMode@BoxController@Cct@physx@@UEBA?AW4Enum@PxControllerNonWalkableMode@3@XZ 0000000180005bf0 f i CctBoxController.obj
 0001:00004c10       ?getPosition@BoxController@Cct@physx@@UEBAAEBUPxExtendedVec3@3@XZ 0000000180005c10 f i CctBoxController.obj
 0001:00004c30       ?getPxController@BoxController@Cct@physx@@UEAAPEAVPxController@3@XZ 0000000180005c30 f i CctBoxController.obj
 0001:00004c50       ?getScene@BoxController@Cct@physx@@UEAAPEAVPxScene@3@XZ 0000000180005c50 f i CctBoxController.obj
 0001:00004c70       ?getSlopeLimit@BoxController@Cct@physx@@UEBAMXZ 0000000180005c70 f i CctBoxController.obj
 0001:00004c90       ?getState@BoxController@Cct@physx@@UEBAXAEAUPxControllerState@3@@Z 0000000180005c90 f i CctBoxController.obj
 0001:00004cd0       ?getStats@BoxController@Cct@physx@@UEBAXAEAUPxControllerStats@3@@Z 0000000180005cd0 f i CctBoxController.obj
 0001:00004d10       ?getStepOffset@BoxController@Cct@physx@@UEBAMXZ 0000000180005d10 f i CctBoxController.obj
 0001:00004d30       ?getType@BoxController@Cct@physx@@UEBA?AW4Enum@PxControllerShapeType@3@XZ 0000000180005d30 f i CctBoxController.obj
 0001:00004d50       ?getUpDirection@BoxController@Cct@physx@@UEBA?AVPxVec3@3@XZ 0000000180005d50 f i CctBoxController.obj
 0001:00004d90       ?getUserData@BoxController@Cct@physx@@UEBAPEAXXZ 0000000180005d90 f i CctBoxController.obj
 0001:00004db0       ?lock@?$MutexT@V?$ReflectionAllocator@VMutexImpl@shdfnd@physx@@@shdfnd@physx@@@shdfnd@physx@@QEBAXXZ 0000000180005db0 f i CctBoxController.obj
 0001:00004de0       ?release@BoxController@Cct@physx@@UEAAXXZ 0000000180005de0 f i CctBoxController.obj
 0001:00004e10       ?setCenterExtents@physx@@YAXAEAUPxExtendedBounds3@1@AEBUPxExtendedVec3@1@AEBVPxVec3@1@@Z 0000000180005e10 f i CctBoxController.obj
 0001:00004ea0       ?setContactOffset@BoxController@Cct@physx@@UEAAXM@Z 0000000180005ea0 f i CctBoxController.obj
 0001:00004ee0       ?setNonWalkableMode@BoxController@Cct@physx@@UEAAXW4Enum@PxControllerNonWalkableMode@3@@Z 0000000180005ee0 f i CctBoxController.obj
 0001:00004f00       ?setPosition@BoxController@Cct@physx@@UEAA_NAEBUPxExtendedVec3@3@@Z 0000000180005f00 f i CctBoxController.obj
 0001:00004f40       ?setSlopeLimit@BoxController@Cct@physx@@UEAAXM@Z 0000000180005f40 f i CctBoxController.obj
 0001:00004f80       ?setStepOffset@BoxController@Cct@physx@@UEAAXM@Z 0000000180005f80 f i CctBoxController.obj
 0001:00004fc0       ?setUpDirection@BoxController@Cct@physx@@UEAAXAEBVPxVec3@3@@Z 0000000180005fc0 f i CctBoxController.obj
 0001:00005000       ?setUserData@BoxController@Cct@physx@@UEAAXPEAX@Z 0000000180006000 f i CctBoxController.obj
 0001:00005020       ?unlock@?$MutexT@V?$ReflectionAllocator@VMutexImpl@shdfnd@physx@@@shdfnd@physx@@@shdfnd@physx@@QEBAXXZ 0000000180006020 f i CctBoxController.obj
 0001:00005050       ??0CapsuleController@Cct@physx@@QEAA@AEBVPxControllerDesc@2@AEAVPxPhysics@2@PEAVPxScene@2@@Z 0000000180006050 f   CctCapsuleController.obj
 0001:000051a0       ??1CapsuleController@Cct@physx@@UEAA@XZ 00000001800061a0 f   CctCapsuleController.obj
 0001:000051f0       ?getWorldBox@CapsuleController@Cct@physx@@UEBA_NAEAUPxExtendedBounds3@3@@Z 00000001800061f0 f   CctCapsuleController.obj
 0001:00005280       ?setFootPosition@CapsuleController@Cct@physx@@UEAA_NAEBUPxExtendedVec3@3@@Z 0000000180006280 f   CctCapsuleController.obj
 0001:00005320       ?getFootPosition@CapsuleController@Cct@physx@@UEBA?AUPxExtendedVec3@3@XZ 0000000180006320 f   CctCapsuleController.obj
 0001:000053d0       ?invalidateCache@CapsuleController@Cct@physx@@UEAAXXZ 00000001800063d0 f   CctCapsuleController.obj
 0001:00005450       ?resize@CapsuleController@Cct@physx@@UEAAXM@Z 0000000180006450 f   CctCapsuleController.obj
 0001:00005550       ?getClimbingMode@CapsuleController@Cct@physx@@UEBA?AW4Enum@PxCapsuleClimbingMode@3@XZ 0000000180006550 f   CctCapsuleController.obj
 0001:00005570       ?setRadius@CapsuleController@Cct@physx@@UEAA_NM@Z 0000000180006570 f   CctCapsuleController.obj
 0001:00005680       ?setHeight@CapsuleController@Cct@physx@@UEAA_NM@Z 0000000180006680 f   CctCapsuleController.obj
 0001:00005790       ?setClimbingMode@CapsuleController@Cct@physx@@UEAA_NW4Enum@PxCapsuleClimbingMode@3@@Z 0000000180006790 f   CctCapsuleController.obj
 0001:000057c0       ?getCapsule@CapsuleController@Cct@physx@@QEBAXAEAUPxExtendedCapsule@3@@Z 00000001800067c0 f   CctCapsuleController.obj
 0001:00005b50       ??0PxCapsuleController@physx@@IEAA@XZ 0000000180006b50 f i CctCapsuleController.obj
 0001:00005b90       ??0PxCapsuleGeometry@physx@@QEAA@XZ 0000000180006b90 f i CctCapsuleController.obj
 0001:00005be0       ??1PxCapsuleController@physx@@MEAA@XZ 0000000180006be0 f i CctCapsuleController.obj
 0001:00005c10       ??_ECapsuleController@Cct@physx@@W7EAAPEAXI@Z 0000000180006c10 f i CctCapsuleController.obj
 0001:00005c20       ??_GCapsuleController@Cct@physx@@UEAAPEAXI@Z 0000000180006c20 f i CctCapsuleController.obj
 0001:00005c20       ??_ECapsuleController@Cct@physx@@UEAAPEAXI@Z 0000000180006c20 f i CctCapsuleController.obj
 0001:00005c90       ??_EPxCapsuleController@physx@@MEAAPEAXI@Z 0000000180006c90 f i CctCapsuleController.obj
 0001:00005c90       ??_GPxCapsuleController@physx@@MEAAPEAXI@Z 0000000180006c90 f i CctCapsuleController.obj
 0001:00005ce0       ?getActor@CapsuleController@Cct@physx@@UEBAPEAVPxRigidDynamic@3@XZ 0000000180006ce0 f i CctCapsuleController.obj
 0001:00005d00       ?getContactOffset@CapsuleController@Cct@physx@@UEBAMXZ 0000000180006d00 f i CctCapsuleController.obj
 0001:00005d20       ?getHalfHeightInternal@CapsuleController@Cct@physx@@UEBAMXZ 0000000180006d20 f i CctCapsuleController.obj
 0001:00005d60       ?getHeight@CapsuleController@Cct@physx@@UEBAMXZ 0000000180006d60 f i CctCapsuleController.obj
 0001:00005d80       ?getNonWalkableMode@CapsuleController@Cct@physx@@UEBA?AW4Enum@PxControllerNonWalkableMode@3@XZ 0000000180006d80 f i CctCapsuleController.obj
 0001:00005da0       ?getPosition@CapsuleController@Cct@physx@@UEBAAEBUPxExtendedVec3@3@XZ 0000000180006da0 f i CctCapsuleController.obj
 0001:00005dc0       ?getPxController@CapsuleController@Cct@physx@@UEAAPEAVPxController@3@XZ 0000000180006dc0 f i CctCapsuleController.obj
 0001:00005de0       ?getRadius@CapsuleController@Cct@physx@@UEBAMXZ 0000000180006de0 f i CctCapsuleController.obj
 0001:00005e00       ?getScene@CapsuleController@Cct@physx@@UEAAPEAVPxScene@3@XZ 0000000180006e00 f i CctCapsuleController.obj
 0001:00005e20       ?getSlopeLimit@CapsuleController@Cct@physx@@UEBAMXZ 0000000180006e20 f i CctCapsuleController.obj
 0001:00005e40       ?getState@CapsuleController@Cct@physx@@UEBAXAEAUPxControllerState@3@@Z 0000000180006e40 f i CctCapsuleController.obj
 0001:00005e80       ?getStats@CapsuleController@Cct@physx@@UEBAXAEAUPxControllerStats@3@@Z 0000000180006e80 f i CctCapsuleController.obj
 0001:00005ec0       ?getStepOffset@CapsuleController@Cct@physx@@UEBAMXZ 0000000180006ec0 f i CctCapsuleController.obj
 0001:00005ee0       ?getType@CapsuleController@Cct@physx@@UEBA?AW4Enum@PxControllerShapeType@3@XZ 0000000180006ee0 f i CctCapsuleController.obj
 0001:00005f00       ?getUpDirection@CapsuleController@Cct@physx@@UEBA?AVPxVec3@3@XZ 0000000180006f00 f i CctCapsuleController.obj
 0001:00005f40       ?getUserData@CapsuleController@Cct@physx@@UEBAPEAXXZ 0000000180006f40 f i CctCapsuleController.obj
 0001:00005f60       ?release@CapsuleController@Cct@physx@@UEAAXXZ 0000000180006f60 f i CctCapsuleController.obj
 0001:00005f90       ?setContactOffset@CapsuleController@Cct@physx@@UEAAXM@Z 0000000180006f90 f i CctCapsuleController.obj
 0001:00005fd0       ?setNonWalkableMode@CapsuleController@Cct@physx@@UEAAXW4Enum@PxControllerNonWalkableMode@3@@Z 0000000180006fd0 f i CctCapsuleController.obj
 0001:00005ff0       ?setPosition@CapsuleController@Cct@physx@@UEAA_NAEBUPxExtendedVec3@3@@Z 0000000180006ff0 f i CctCapsuleController.obj
 0001:00006030       ?setSlopeLimit@CapsuleController@Cct@physx@@UEAAXM@Z 0000000180007030 f i CctCapsuleController.obj
 0001:00006070       ?setStepOffset@CapsuleController@Cct@physx@@UEAAXM@Z 0000000180007070 f i CctCapsuleController.obj
 0001:000060b0       ?setUpDirection@CapsuleController@Cct@physx@@UEAAXAEBVPxVec3@3@@Z 00000001800070b0 f i CctCapsuleController.obj
 0001:000060f0       ?setUserData@CapsuleController@Cct@physx@@UEAAXPEAX@Z 00000001800070f0 f i CctCapsuleController.obj
 0001:00006110       ??0CCTParams@Cct@physx@@QEAA@XZ 0000000180007110 f   CctCharacterController.obj
 0001:000061e0       ??0SweepTest@Cct@physx@@QEAA@_N@Z 00000001800071e0 f   CctCharacterController.obj
 0001:00006610       ??1SweepTest@Cct@physx@@QEAA@XZ 0000000180007610 f   CctCharacterController.obj
 0001:00006690       ?moveCharacter@SweepTest@Cct@physx@@QEAA?AV?$PxFlags@W4Enum@PxControllerCollisionFlag@physx@@E@3@PEBUInternalCBData_FindTouchedGeom@23@PEAUInternalCBData_OnHit@23@AEAVSweptVolume@23@AEBVPxVec3@3@AEBUUserObstacles@23@MAEBVPxControllerFilters@3@_N6AEAPEBVPxRigidActor@3@AEAPEBVPxShape@3@_K@Z 0000000180007690 f   CctCharacterController.obj
 0001:000075d0       ?doSweepTest@SweepTest@Cct@physx@@QEAA_NPEBUInternalCBData_FindTouchedGeom@23@PEAUInternalCBData_OnHit@23@AEBUUserObstacles@23@AEAVSweptVolume@23@AEBVPxVec3@3@4IPEAIMAEBVPxControllerFilters@3@W4SweepPass@23@AEAPEBVPxRigidActor@3@AEAPEBVPxShape@3@_K@Z 00000001800085d0 f   CctCharacterController.obj
 0001:000083e0       ?findTouchedObstacles@SweepTest@Cct@physx@@QEAAXAEBUUserObstacles@23@AEBUPxExtendedBounds3@3@@Z 00000001800093e0 f   CctCharacterController.obj
 0001:00008a40       ?voidTestCache@SweepTest@Cct@physx@@QEAAXXZ 0000000180009a40 f   CctCharacterController.obj
 0001:00008aa0       ?onRelease@SweepTest@Cct@physx@@QEAAXAEBVPxBase@3@@Z 0000000180009aa0 f   CctCharacterController.obj
 0001:00008b70       ?updateCachedShapesRegistration@SweepTest@Cct@physx@@QEAAXI_N@Z 0000000180009b70 f   CctCharacterController.obj
 0001:00008d10       ?onObstacleRemoved@SweepTest@Cct@physx@@QEAAXI@Z 0000000180009d10 f   CctCharacterController.obj
 0001:00008d40       ?onObstacleUpdated@SweepTest@Cct@physx@@QEAAXIPEBVPxObstacleContext@3@AEBVPxVec3@3@1M@Z 0000000180009d40 f   CctCharacterController.obj
 0001:00008f30       ?onObstacleAdded@SweepTest@Cct@physx@@QEAAXIPEBVPxObstacleContext@3@AEBVPxVec3@3@1M@Z 0000000180009f30 f   CctCharacterController.obj
 0001:00009150       ?onOriginShift@SweepTest@Cct@physx@@QEAAXAEBVPxVec3@3@@Z 000000018000a150 f   CctCharacterController.obj
 0001:000092d0       ?updateTouchedGeoms@SweepTest@Cct@physx@@AEAAXPEBUInternalCBData_FindTouchedGeom@23@AEBUUserObstacles@23@AEBUPxExtendedBounds3@3@AEBVPxControllerFilters@3@AEBVPxVec3@3@@Z 000000018000a2d0 f   CctCharacterController.obj
 0001:00009c70       ?findTouchedObject@Controller@Cct@physx@@IEAAXAEBVPxControllerFilters@3@PEBVPxObstacleContext@3@AEBVPxVec3@3@@Z 000000018000ac70 f   CctCharacterController.obj
 0001:0000a4e0       ?rideOnTouchedObject@Controller@Cct@physx@@IEAA_NAEAVSweptVolume@23@AEBVPxVec3@3@AEAV53@PEBVPxObstacleContext@3@@Z 000000018000b4e0 f   CctCharacterController.obj
 0001:0000ab60       ?move@Controller@Cct@physx@@IEAA?AV?$PxFlags@W4Enum@PxControllerCollisionFlag@physx@@E@3@AEAVSweptVolume@23@AEBVPxVec3@3@MMAEBVPxControllerFilters@3@PEBVPxObstacleContext@3@_N@Z 000000018000bb60 f   CctCharacterController.obj
 0001:0000c2a0       ?filterTouchedShape@Controller@Cct@physx@@IEAA_NAEBVPxControllerFilters@3@@Z 000000018000d2a0 f   CctCharacterController.obj
 0001:0000f960       ?move@BoxController@Cct@physx@@UEAA?AV?$PxFlags@W4Enum@PxControllerCollisionFlag@physx@@E@3@AEBVPxVec3@3@MMAEBVPxControllerFilters@3@PEBVPxObstacleContext@3@@Z 0000000180010960 f   CctCharacterController.obj
 0001:0000fae0       ?move@CapsuleController@Cct@physx@@UEAA?AV?$PxFlags@W4Enum@PxControllerCollisionFlag@physx@@E@3@AEBVPxVec3@3@MMAEBVPxControllerFilters@3@PEBVPxObstacleContext@3@@Z 0000000180010ae0 f   CctCharacterController.obj
 0001:00012360       ??$PX_UNUSED@I@@YAXAEBI@Z  0000000180013360 f i CctCharacterController.obj
 0001:00012370       ??$PX_UNUSED@PEBUPxRaycastHit@physx@@@@YAXAEBQEBUPxRaycastHit@physx@@@Z 0000000180013370 f i CctCharacterController.obj
 0001:00012380       ??$PX_UNUSED@W4PxIDENTITY@physx@@@@YAXAEBW4PxIDENTITY@physx@@@Z 0000000180013380 f i CctCharacterController.obj
 0001:00012390       ??$PX_UNUSED@_K@@YAXAEB_K@Z 0000000180013390 f i CctCharacterController.obj
 0001:000123a0       ??$PxMax@I@physx@@YAIII@Z  00000001800133a0 f i CctCharacterController.obj
 0001:000123e0       ??$PxMax@N@physx@@YANNN@Z  00000001800133e0 f i CctCharacterController.obj
 0001:00012430       ??$PxMin@N@physx@@YANNN@Z  0000000180013430 f i CctCharacterController.obj
 0001:00012480       ??$PxUnionCast@PEBVPxGeometry@physx@@PEAY03$$CBE@physx@@YAPEBVPxGeometry@0@PEAY03$$CBE@Z 0000000180013480 f i CctCharacterController.obj
 0001:000124b0       ??0?$Array@IVNamedAllocator@shdfnd@physx@@@shdfnd@physx@@QEAA@AEBVNamedAllocator@12@@Z 00000001800134b0 f i CctCharacterController.obj
 0001:00012510       ??0?$Array@VPxTriangle@physx@@VNamedAllocator@shdfnd@2@@shdfnd@physx@@QEAA@AEBVNamedAllocator@12@@Z 0000000180013510 f i CctCharacterController.obj
 0001:00012570       ??0?$PxFlags@W4Enum@PxControllerCollisionFlag@physx@@E@physx@@QEAA@AEBV01@@Z 0000000180013570 f i CctCharacterController.obj
 0001:000125a0       ??0?$PxFlags@W4Enum@PxControllerCollisionFlag@physx@@E@physx@@QEAA@E@Z 00000001800135a0 f i CctCharacterController.obj
 0001:000125d0       ??0?$PxFlags@W4Enum@PxHitFlag@physx@@G@physx@@QEAA@AEBV01@@Z 00000001800135d0 f i CctCharacterController.obj
 0001:00012600       ??0?$PxFlags@W4Enum@PxHitFlag@physx@@G@physx@@QEAA@G@Z 0000000180013600 f i CctCharacterController.obj
 0001:00012630       ??0?$PxFlags@W4Enum@PxHitFlag@physx@@G@physx@@QEAA@W4Enum@PxHitFlag@1@@Z 0000000180013630 f i CctCharacterController.obj
 0001:00012660       ??0?$PxFlags@W4Enum@PxQueryFlag@physx@@G@physx@@QEAA@AEBV01@@Z 0000000180013660 f i CctCharacterController.obj
 0001:00012690       ??0?$PxFlags@W4Enum@PxQueryFlag@physx@@G@physx@@QEAA@W4Enum@PxQueryFlag@1@@Z 0000000180013690 f i CctCharacterController.obj
 0001:000126c0       ??0?$PxFlags@W4Enum@PxQueryFlag@physx@@G@physx@@QEAA@XZ 00000001800136c0 f i CctCharacterController.obj
 0001:000126e0       ??0?$PxFlags@W4Enum@PxRigidBodyFlag@physx@@E@physx@@QEAA@AEBV01@@Z 00000001800136e0 f i CctCharacterController.obj
 0001:00012710       ??0?$PxFlags@W4Enum@PxShapeFlag@physx@@E@physx@@QEAA@AEBV01@@Z 0000000180013710 f i CctCharacterController.obj
 0001:00012740       ??0?$PxHitBuffer@UPxRaycastHit@physx@@@physx@@QEAA@PEAUPxRaycastHit@1@I@Z 0000000180013740 f i CctCharacterController.obj
 0001:00012790       ??0?$PxHitCallback@UPxRaycastHit@physx@@@physx@@QEAA@PEAUPxRaycastHit@1@I@Z 0000000180013790 f i CctCharacterController.obj
 0001:00012820       ??0?$TouchedObject@VPxRigidActor@physx@@@Cct@physx@@QEAA@_N@Z 0000000180013820 f i CctCharacterController.obj
 0001:00012870       ??0?$TouchedObject@VPxShape@physx@@@Cct@physx@@QEAA@_N@Z 0000000180013870 f i CctCharacterController.obj
 0001:000128f0       ??0CCTFilter@Cct@physx@@QEAA@XZ 00000001800138f0 f i CctCharacterController.obj
 0001:00012960       ??0ControllerFilter@@QEAA@XZ 0000000180013960 f i CctCharacterController.obj
 0001:000129b0       ??0DebugBox@Cm@physx@@QEAA@AEBVPxBounds3@2@_N@Z 00000001800139b0 f i CctCharacterController.obj
 0001:00012a20       ??0DebugBox@Cm@physx@@QEAA@AEBVPxVec3@2@_N@Z 0000000180013a20 f i CctCharacterController.obj
 0001:00012a90       ??0PxActorShape@physx@@QEAA@XZ 0000000180013a90 f i CctCharacterController.obj
 0001:00012ac0       ??0PxBounds3@physx@@QEAA@AEBVPxVec3@1@0@Z 0000000180013ac0 f i CctCharacterController.obj
 0001:00012b20       ??0PxBoxGeometry@physx@@QEAA@VPxVec3@1@@Z 0000000180013b20 f i CctCharacterController.obj
 0001:00012b70       ??0PxCapsuleGeometry@physx@@QEAA@MM@Z 0000000180013b70 f i CctCharacterController.obj
 0001:00012be0       ??0PxExtendedBox@physx@@QEAA@AEBV01@@Z 0000000180013be0 f i CctCharacterController.obj
 0001:00012c60       ??0PxExtendedBox@physx@@QEAA@XZ 0000000180013c60 f i CctCharacterController.obj
 0001:00012cc0       ??0PxExtendedCapsule@physx@@QEAA@XZ 0000000180013cc0 f i CctCharacterController.obj
 0001:00012cf0       ??0PxExtendedSegment@physx@@QEAA@XZ 0000000180013cf0 f i CctCharacterController.obj
 0001:00012d30       ??0PxFilterData@physx@@QEAA@AEBU01@@Z 0000000180013d30 f i CctCharacterController.obj
 0001:00012da0       ??0PxFilterData@physx@@QEAA@XZ 0000000180013da0 f i CctCharacterController.obj
 0001:00012df0       ??0PxLocationHit@physx@@QEAA@XZ 0000000180013df0 f i CctCharacterController.obj
 0001:00012e80       ??0PxMat33@physx@@QEAA@AEBVPxQuat@1@@Z 0000000180013e80 f i CctCharacterController.obj
 0001:000131c0       ??0PxMat33@physx@@QEAA@W4PxIDENTITY@1@@Z 00000001800141c0 f i CctCharacterController.obj
 0001:00013260       ??0PxMat44@physx@@QEAA@AEBVPxMat33@1@AEBVPxVec3@1@@Z 0000000180014260 f i CctCharacterController.obj
 0001:00013310       ??0PxMat44@physx@@QEAA@AEBVPxTransform@1@@Z 0000000180014310 f i CctCharacterController.obj
 0001:00013400       ??0PxProfileScoped@physx@@QEAA@PEBD_N_K@Z 0000000180014400 f i CctCharacterController.obj
 0001:000134d0       ??0PxQuat@physx@@QEAA@AEBV01@@Z 00000001800144d0 f i CctCharacterController.obj
 0001:00013550       ??0PxQuat@physx@@QEAA@MMMM@Z 0000000180014550 f i CctCharacterController.obj
 0001:000135d0       ??0PxQuat@physx@@QEAA@W4PxIDENTITY@1@@Z 00000001800145d0 f i CctCharacterController.obj
 0001:00013640       ??0PxQuat@physx@@QEAA@XZ   0000000180014640 f i CctCharacterController.obj
 0001:00013650       ??0PxQueryFilterCallback@physx@@QEAA@XZ 0000000180014650 f i CctCharacterController.obj
 0001:00013670       ??0PxQueryFilterData@physx@@QEAA@AEBUPxFilterData@1@V?$PxFlags@W4Enum@PxQueryFlag@physx@@G@1@@Z 0000000180014670 f i CctCharacterController.obj
 0001:000136e0       ??0PxQueryHit@physx@@QEAA@XZ 00000001800146e0 f i CctCharacterController.obj
 0001:00013720       ??0PxRaycastHit@physx@@QEAA@XZ 0000000180014720 f i CctCharacterController.obj
 0001:00013770       ??0PxSphereGeometry@physx@@QEAA@XZ 0000000180014770 f i CctCharacterController.obj
 0001:000137b0       ??0PxSweepHit@physx@@QEAA@XZ 00000001800147b0 f i CctCharacterController.obj
 0001:000137e0       ??0PxTransform@physx@@QEAA@AEBVPxVec3@1@AEBVPxQuat@1@@Z 00000001800147e0 f i CctCharacterController.obj
 0001:000138b0       ??0PxTransform@physx@@QEAA@XZ 00000001800148b0 f i CctCharacterController.obj
 0001:000138f0       ??0PxVec3@physx@@QEAA@M@Z  00000001800148f0 f i CctCharacterController.obj
 0001:00013940       ??0PxVec3@physx@@QEAA@XZ   0000000180014940 f i CctCharacterController.obj
 0001:00013950       ??0PxVec4@physx@@QEAA@AEBVPxVec3@1@M@Z 0000000180014950 f i CctCharacterController.obj
 0001:000139d0       ??0PxVec4@physx@@QEAA@XZ   00000001800149d0 f i CctCharacterController.obj
 0001:000139e0       ??0SIMDGuard@shdfnd@physx@@QEAA@XZ 00000001800149e0 f i CctCharacterController.obj
 0001:00013a20       ??0SweptContact@Cct@physx@@QEAA@XZ 0000000180014a20 f i CctCharacterController.obj
 0001:00013a60       ??0TriArray@Cct@physx@@QEAA@XZ 0000000180014a60 f i CctCharacterController.obj
 0001:00013ab0       ??1?$Array@IVNamedAllocator@shdfnd@physx@@@shdfnd@physx@@QEAA@XZ 0000000180014ab0 f i CctCharacterController.obj
 0001:00013b40       ??1?$Array@VPxTriangle@physx@@VNamedAllocator@shdfnd@2@@shdfnd@physx@@QEAA@XZ 0000000180014b40 f i CctCharacterController.obj
 0001:00013bd0       ??1?$PxHitBuffer@UPxRaycastHit@physx@@@physx@@UEAA@XZ 0000000180014bd0 f i CctCharacterController.obj
 0001:00013c00       ??1?$PxHitCallback@UPxRaycastHit@physx@@@physx@@UEAA@XZ 0000000180014c00 f i CctCharacterController.obj
 0001:00013c20       ??1ControllerFilter@@UEAA@XZ 0000000180014c20 f i CctCharacterController.obj
 0001:00013c40       ??1PxExtendedBox@physx@@QEAA@XZ 0000000180014c40 f i CctCharacterController.obj
 0001:00013c50       ??1PxProfileScoped@physx@@QEAA@XZ 0000000180014c50 f i CctCharacterController.obj
 0001:00013cc0       ??1PxQueryFilterCallback@physx@@UEAA@XZ 0000000180014cc0 f i CctCharacterController.obj
 0001:00013ce0       ??1PxTriangle@physx@@QEAA@XZ 0000000180014ce0 f i CctCharacterController.obj
 0001:00013cf0       ??1SIMDGuard@shdfnd@physx@@QEAA@XZ 0000000180014cf0 f i CctCharacterController.obj
 0001:00013d20       ??1TriArray@Cct@physx@@QEAA@XZ 0000000180014d20 f i CctCharacterController.obj
 0001:00013d40       ??2@YAPEAX_KPEAX@Z         0000000180014d40 f i CctCharacterController.obj
 0001:00013d60       ??4?$PxFlags@W4Enum@PxControllerCollisionFlag@physx@@E@physx@@QEAAAEAV01@AEBV01@@Z 0000000180014d60 f i CctCharacterController.obj
 0001:00013d90       ??4?$PxFlags@W4Enum@PxHitFlag@physx@@G@physx@@QEAAAEAV01@AEBV01@@Z 0000000180014d90 f i CctCharacterController.obj
 0001:00013dc0       ??4?$PxFlags@W4Enum@PxQueryFlag@physx@@G@physx@@QEAAAEAV01@AEBV01@@Z 0000000180014dc0 f i CctCharacterController.obj
 0001:00013df0       ??4?$TouchedObject@VPxRigidActor@physx@@@Cct@physx@@QEAAAEAU012@PEBVPxRigidActor@2@@Z 0000000180014df0 f i CctCharacterController.obj
 0001:00013e90       ??4?$TouchedObject@VPxShape@physx@@@Cct@physx@@QEAAAEAU012@PEBVPxShape@2@@Z 0000000180014e90 f i CctCharacterController.obj
 0001:00013f30       ??4CCTParams@Cct@physx@@QEAAAEAU012@AEBU012@@Z 0000000180014f30 f i CctCharacterController.obj
 0001:000140a0       ??4FPUGuard@shdfnd@physx@@QEAAAEAV012@AEBV012@@Z 00000001800150a0 f i CctCharacterController.obj
 0001:000140d0       ??4PxExtendedBox@physx@@QEAAAEAV01@AEBV01@@Z 00000001800150d0 f i CctCharacterController.obj
 0001:00014150       ??4PxLocationHit@physx@@QEAAAEAU01@AEBU01@@Z 0000000180015150 f i CctCharacterController.obj
 0001:00014210       ??4PxMat44@physx@@QEAAAEAV01@AEBV01@@Z 0000000180015210 f i CctCharacterController.obj
 0001:000142b0       ??4PxRaycastHit@physx@@QEAAAEAU01@AEBU01@@Z 00000001800152b0 f i CctCharacterController.obj
 0001:00014320       ??4PxTransform@physx@@QEAAAEAV01@$$QEAV01@@Z 0000000180015320 f i CctCharacterController.obj
 0001:00014380       ??4PxVec4@physx@@QEAAAEAV01@AEBV01@@Z 0000000180015380 f i CctCharacterController.obj
 0001:00014400       ??4SweptContact@Cct@physx@@QEAAAEAU012@AEBU012@@Z 0000000180015400 f i CctCharacterController.obj
 0001:000144b0       ??8?$TouchedObject@VPxRigidActor@physx@@@Cct@physx@@QEAA_NPEBVPxBase@2@@Z 00000001800154b0 f i CctCharacterController.obj
 0001:00014500       ??8?$TouchedObject@VPxShape@physx@@@Cct@physx@@QEAA_NPEBVPxBase@2@@Z 0000000180015500 f i CctCharacterController.obj
 0001:00014550       ??8?$TouchedObject@VPxShape@physx@@@Cct@physx@@QEAA_NPEBVPxShape@2@@Z 0000000180015550 f i CctCharacterController.obj
 0001:000145a0       ??A?$Array@IVNamedAllocator@shdfnd@physx@@@shdfnd@physx@@QEAAAEAII@Z 00000001800155a0 f i CctCharacterController.obj
 0001:00014640       ??A?$Array@IVNamedAllocator@shdfnd@physx@@@shdfnd@physx@@QEBAAEBII@Z 0000000180015640 f i CctCharacterController.obj
 0001:000146e0       ??A?$Array@UInternalBoxObstacle@ObstacleContext@Cct@physx@@VNamedAllocator@shdfnd@4@@shdfnd@physx@@QEBAAEBUInternalBoxObstacle@ObstacleContext@Cct@2@I@Z 00000001800156e0 f i CctCharacterController.obj
 0001:00014780       ??A?$Array@UInternalCapsuleObstacle@ObstacleContext@Cct@physx@@VNamedAllocator@shdfnd@4@@shdfnd@physx@@QEBAAEBUInternalCapsuleObstacle@ObstacleContext@Cct@2@I@Z 0000000180015780 f i CctCharacterController.obj
 0001:00014820       ??A?$Array@VPxTriangle@physx@@VNamedAllocator@shdfnd@2@@shdfnd@physx@@QEBAAEBVPxTriangle@2@I@Z 0000000180015820 f i CctCharacterController.obj
 0001:000148c0       ??B?$PxFlags@W4Enum@PxControllerBehaviorFlag@physx@@E@physx@@QEBAIXZ 00000001800158c0 f i CctCharacterController.obj
 0001:000148e0       ??B?$PxFlags@W4Enum@PxControllerDebugRenderFlag@physx@@I@physx@@QEBAIXZ 00000001800158e0 f i CctCharacterController.obj
 0001:000148f0       ??B?$PxFlags@W4Enum@PxQueryFlag@physx@@G@physx@@QEBA_NXZ 00000001800158f0 f i CctCharacterController.obj
 0001:00014930       ??B?$PxFlags@W4Enum@PxRigidBodyFlag@physx@@E@physx@@QEBA_NXZ 0000000180015930 f i CctCharacterController.obj
 0001:00014970       ??B?$PxFlags@W4Enum@PxShapeFlag@physx@@E@physx@@QEBA_NXZ 0000000180015970 f i CctCharacterController.obj
 0001:000149b0       ??B?$TouchedObject@VPxRigidActor@physx@@@Cct@physx@@QEBA_NXZ 00000001800159b0 f i CctCharacterController.obj
 0001:000149f0       ??B?$TouchedObject@VPxShape@physx@@@Cct@physx@@QEBA_NXZ 00000001800159f0 f i CctCharacterController.obj
 0001:00014a30       ??C?$TouchedObject@VPxRigidActor@physx@@@Cct@physx@@QEBAPEBVPxRigidActor@2@XZ 0000000180015a30 f i CctCharacterController.obj
 0001:00014a50       ??C?$TouchedObject@VPxShape@physx@@@Cct@physx@@QEBAPEBVPxShape@2@XZ 0000000180015a50 f i CctCharacterController.obj
 0001:00014a70       ??DPxQuat@physx@@QEBA?AV01@AEBV01@@Z 0000000180015a70 f i CctCharacterController.obj
 0001:00014c80       ??DPxTransform@physx@@QEBA?AV01@AEBV01@@Z 0000000180015c80 f i CctCharacterController.obj
 0001:00014d30       ??GPxVec3@physx@@QEBA?AV01@AEBV01@@Z 0000000180015d30 f i CctCharacterController.obj
 0001:00014dd0       ??GPxVec3@physx@@QEBA?AV01@XZ 0000000180015dd0 f i CctCharacterController.obj
 0001:00014e60       ??HPxVec3@physx@@QEBA?AV01@AEBV01@@Z 0000000180015e60 f i CctCharacterController.obj
 0001:00014f00       ??I?$PxFlags@W4Enum@PxQueryFlag@physx@@G@physx@@QEBA?AV01@W4Enum@PxQueryFlag@1@@Z 0000000180015f00 f i CctCharacterController.obj
 0001:00014f70       ??I?$PxFlags@W4Enum@PxRigidBodyFlag@physx@@E@physx@@QEBA?AV01@W4Enum@PxRigidBodyFlag@1@@Z 0000000180015f70 f i CctCharacterController.obj
 0001:00014fd0       ??I?$PxFlags@W4Enum@PxShapeFlag@physx@@E@physx@@QEBA?AV01@W4Enum@PxShapeFlag@1@@Z 0000000180015fd0 f i CctCharacterController.obj
 0001:00015030       ??R?$Hash@PEAVPxShape@physx@@@shdfnd@physx@@QEBAIAEBQEAVPxShape@2@@Z 0000000180016030 f i CctCharacterController.obj
 0001:00015060       ??RGetKey@?$HashSetBase@PEAVPxShape@physx@@U?$Hash@PEAVPxShape@physx@@@shdfnd@2@VNonTrackingAllocator@42@$0A@@internal@shdfnd@physx@@QEAAAEBQEAVPxShape@4@AEBQEAV54@@Z 0000000180016060 f i CctCharacterController.obj
 0001:00015080       ??U?$PxFlags@W4Enum@PxQueryFlag@physx@@G@physx@@QEBA?AV01@W4Enum@PxQueryFlag@1@@Z 0000000180016080 f i CctCharacterController.obj
 0001:000150e0       ??Uphysx@@YA?AV?$PxFlags@W4Enum@PxQueryFlag@physx@@G@0@W4Enum@PxQueryFlag@0@0@Z 00000001800160e0 f i CctCharacterController.obj
 0001:00015140       ??YPxVec3@physx@@QEAAAEAV01@AEBV01@@Z 0000000180016140 f i CctCharacterController.obj
 0001:000151c0       ??ZPxVec3@physx@@QEAAAEAV01@AEBV01@@Z 00000001800161c0 f i CctCharacterController.obj
 0001:00015240       ??_0PxVec3@physx@@QEAAAEAV01@M@Z 0000000180016240 f i CctCharacterController.obj
 0001:000152d0       ??_5?$PxFlags@W4Enum@PxControllerCollisionFlag@physx@@E@physx@@QEAAAEAV01@W4Enum@PxControllerCollisionFlag@1@@Z 00000001800162d0 f i CctCharacterController.obj
 0001:00015300       ??_5?$PxFlags@W4Enum@PxHitFlag@physx@@G@physx@@QEAAAEAV01@W4Enum@PxHitFlag@1@@Z 0000000180016300 f i CctCharacterController.obj
 0001:00015340       ??_5?$PxFlags@W4Enum@PxQueryFlag@physx@@G@physx@@QEAAAEAV01@W4Enum@PxQueryFlag@1@@Z 0000000180016340 f i CctCharacterController.obj
 0001:00015380       ??_E?$PxHitBuffer@UPxRaycastHit@physx@@@physx@@UEAAPEAXI@Z 0000000180016380 f i CctCharacterController.obj
 0001:00015380       ??_G?$PxHitBuffer@UPxRaycastHit@physx@@@physx@@UEAAPEAXI@Z 0000000180016380 f i CctCharacterController.obj
 0001:000153d0       ??_E?$PxHitCallback@UPxRaycastHit@physx@@@physx@@UEAAPEAXI@Z 00000001800163d0 f i CctCharacterController.obj
 0001:000153d0       ??_G?$PxHitCallback@UPxRaycastHit@physx@@@physx@@UEAAPEAXI@Z 00000001800163d0 f i CctCharacterController.obj
 0001:00015420       ??_GControllerFilter@@UEAAPEAXI@Z 0000000180016420 f i CctCharacterController.obj
 0001:00015420       ??_EControllerFilter@@UEAAPEAXI@Z 0000000180016420 f i CctCharacterController.obj
 0001:00015470       ??_GPxExtendedBox@physx@@QEAAPEAXI@Z 0000000180016470 f i CctCharacterController.obj
 0001:000154c0       ??_GPxQueryFilterCallback@physx@@UEAAPEAXI@Z 00000001800164c0 f i CctCharacterController.obj
 0001:000154c0       ??_EPxQueryFilterCallback@physx@@UEAAPEAXI@Z 00000001800164c0 f i CctCharacterController.obj
 0001:00015510       ??_GPxTriangle@physx@@QEAAPEAXI@Z 0000000180016510 f i CctCharacterController.obj
 0001:00015560       ?PxAbs@physx@@YAMM@Z       0000000180016560 f i CctCharacterController.obj
 0001:00015580       ?PxIsFinite@physx@@YA_NM@Z 0000000180016580 f i CctCharacterController.obj
 0001:000155a0       ?PxRecipSqrt@physx@@YAMM@Z 00000001800165a0 f i CctCharacterController.obj
 0001:000155c0       ?PxSqrt@physx@@YAMM@Z      00000001800165c0 f i CctCharacterController.obj
 0001:000155e0       ?abs@intrinsics@physx@@YAMM@Z 00000001800165e0 f i CctCharacterController.obj
 0001:00015600       ?add@physx@@YAXAEAUPxExtendedBounds3@1@AEBU21@@Z 0000000180016600 f i CctCharacterController.obj
 0001:00015650       ?allocate@?$Array@IVNamedAllocator@shdfnd@physx@@@shdfnd@physx@@IEAAPEAII@Z 0000000180016650 f i CctCharacterController.obj
 0001:00015700       ?allocate@?$Array@PEBXVNamedAllocator@shdfnd@physx@@@shdfnd@physx@@IEAAPEAPEBXI@Z 0000000180016700 f i CctCharacterController.obj
 0001:000157b0       ?allocate@?$Array@UPxExtendedCapsule@physx@@VNamedAllocator@shdfnd@2@@shdfnd@physx@@IEAAPEAUPxExtendedCapsule@3@I@Z 00000001800167b0 f i CctCharacterController.obj
 0001:00015860       ?allocate@?$Array@VPxExtendedBox@physx@@VNamedAllocator@shdfnd@2@@shdfnd@physx@@IEAAPEAVPxExtendedBox@3@I@Z 0000000180016860 f i CctCharacterController.obj
 0001:00015910       ?any@PxGeometryHolder@physx@@QEBAAEBVPxGeometry@2@XZ 0000000180016910 f i CctCharacterController.obj
 0001:00015940       ?begin@?$Array@IVNamedAllocator@shdfnd@physx@@@shdfnd@physx@@QEAAPEAIXZ 0000000180016940 f i CctCharacterController.obj
 0001:00015960       ?begin@?$Array@IVNamedAllocator@shdfnd@physx@@@shdfnd@physx@@QEBAPEBIXZ 0000000180016960 f i CctCharacterController.obj
 0001:00015980       ?begin@?$Array@PEBXVNamedAllocator@shdfnd@physx@@@shdfnd@physx@@QEAAPEAPEBXXZ 0000000180016980 f i CctCharacterController.obj
 0001:000159a0       ?begin@?$Array@UPxExtendedCapsule@physx@@VNamedAllocator@shdfnd@2@@shdfnd@physx@@QEAAPEAUPxExtendedCapsule@3@XZ 00000001800169a0 f i CctCharacterController.obj
 0001:000159c0       ?begin@?$Array@VPxExtendedBox@physx@@VNamedAllocator@shdfnd@2@@shdfnd@physx@@QEAAPEAVPxExtendedBox@3@XZ 00000001800169c0 f i CctCharacterController.obj
 0001:000159e0       ?capacity@?$Array@IVNamedAllocator@shdfnd@physx@@@shdfnd@physx@@QEBAIXZ 00000001800169e0 f i CctCharacterController.obj
 0001:00015a00       ?capacity@?$Array@PEBXVNamedAllocator@shdfnd@physx@@@shdfnd@physx@@QEBAIXZ 0000000180016a00 f i CctCharacterController.obj
 0001:00015a20       ?capacity@?$Array@UPxExtendedCapsule@physx@@VNamedAllocator@shdfnd@2@@shdfnd@physx@@QEBAIXZ 0000000180016a20 f i CctCharacterController.obj
 0001:00015a40       ?capacity@?$Array@VPxExtendedBox@physx@@VNamedAllocator@shdfnd@2@@shdfnd@physx@@QEBAIXZ 0000000180016a40 f i CctCharacterController.obj
 0001:00015a60       ?capacity@?$Array@VPxTriangle@physx@@VNamedAllocator@shdfnd@2@@shdfnd@physx@@QEBAIXZ 0000000180016a60 f i CctCharacterController.obj
 0001:00015a80       ?capacityIncrement@?$Array@PEBXVNamedAllocator@shdfnd@physx@@@shdfnd@physx@@IEBAIXZ 0000000180016a80 f i CctCharacterController.obj
 0001:00015ad0       ?capacityIncrement@?$Array@UPxExtendedCapsule@physx@@VNamedAllocator@shdfnd@2@@shdfnd@physx@@IEBAIXZ 0000000180016ad0 f i CctCharacterController.obj
 0001:00015b20       ?capacityIncrement@?$Array@VPxExtendedBox@physx@@VNamedAllocator@shdfnd@2@@shdfnd@physx@@IEBAIXZ 0000000180016b20 f i CctCharacterController.obj
 0001:00015b70       ?clear@?$Array@IVNamedAllocator@shdfnd@physx@@@shdfnd@physx@@QEAAXXZ 0000000180016b70 f i CctCharacterController.obj
 0001:00015bc0       ?clear@?$Array@VPxTriangle@physx@@VNamedAllocator@shdfnd@2@@shdfnd@physx@@QEAAXXZ 0000000180016bc0 f i CctCharacterController.obj
 0001:00015c10       ?clear@TriArray@Cct@physx@@QEAAXXZ 0000000180016c10 f i CctCharacterController.obj
 0001:00015c30       ?computeTimeCoeff@Controller@Cct@physx@@IEAAMXZ 0000000180016c30 f i CctCharacterController.obj
 0001:00015ca0       ?contains@?$HashSetBase@PEAVPxShape@physx@@U?$Hash@PEAVPxShape@physx@@@shdfnd@2@VNonTrackingAllocator@42@$0A@@internal@shdfnd@physx@@QEBA_NAEBQEAVPxShape@4@@Z 0000000180016ca0 f i CctCharacterController.obj
 0001:00015d00       ?copy@?$Array@IVNamedAllocator@shdfnd@physx@@@shdfnd@physx@@KAXPEAI0PEBI@Z 0000000180016d00 f i CctCharacterController.obj
 0001:00015dc0       ?copy@?$Array@PEBXVNamedAllocator@shdfnd@physx@@@shdfnd@physx@@KAXPEAPEBX0PEBQEBX@Z 0000000180016dc0 f i CctCharacterController.obj
 0001:00015e80       ?copy@?$Array@UPxExtendedCapsule@physx@@VNamedAllocator@shdfnd@2@@shdfnd@physx@@KAXPEAUPxExtendedCapsule@3@0PEBU43@@Z 0000000180016e80 f i CctCharacterController.obj
 0001:00015f40       ?copy@?$Array@VPxExtendedBox@physx@@VNamedAllocator@shdfnd@2@@shdfnd@physx@@KAXPEAVPxExtendedBox@3@0PEBV43@@Z 0000000180016f40 f i CctCharacterController.obj
 0001:00015ff0       ?cross@PxVec3@physx@@QEBA?AV12@AEBV12@@Z 0000000180016ff0 f i CctCharacterController.obj
 0001:000160e0       ?deallocate@?$Array@IVNamedAllocator@shdfnd@physx@@@shdfnd@physx@@IEAAXPEAX@Z 00000001800170e0 f i CctCharacterController.obj
 0001:00016110       ?deallocate@?$Array@PEBXVNamedAllocator@shdfnd@physx@@@shdfnd@physx@@IEAAXPEAX@Z 0000000180017110 f i CctCharacterController.obj
 0001:00016140       ?deallocate@?$Array@UPxExtendedCapsule@physx@@VNamedAllocator@shdfnd@2@@shdfnd@physx@@IEAAXPEAX@Z 0000000180017140 f i CctCharacterController.obj
 0001:00016170       ?deallocate@?$Array@VPxExtendedBox@physx@@VNamedAllocator@shdfnd@2@@shdfnd@physx@@IEAAXPEAX@Z 0000000180017170 f i CctCharacterController.obj
 0001:000161a0       ?deallocate@?$Array@VPxTriangle@physx@@VNamedAllocator@shdfnd@2@@shdfnd@physx@@IEAAXPEAX@Z 00000001800171a0 f i CctCharacterController.obj
 0001:000161d0       ?decomposeVector@shdfnd@physx@@YAXAEAVPxVec3@2@0AEBV32@1@Z 00000001800171d0 f i CctCharacterController.obj
 0001:00016260       ?destroy@?$Array@IVNamedAllocator@shdfnd@physx@@@shdfnd@physx@@KAXPEAI0@Z 0000000180017260 f i CctCharacterController.obj
 0001:000162a0       ?destroy@?$Array@PEBXVNamedAllocator@shdfnd@physx@@@shdfnd@physx@@KAXPEAPEBX0@Z 00000001800172a0 f i CctCharacterController.obj
 0001:000162e0       ?destroy@?$Array@UPxExtendedCapsule@physx@@VNamedAllocator@shdfnd@2@@shdfnd@physx@@KAXPEAUPxExtendedCapsule@3@0@Z 00000001800172e0 f i CctCharacterController.obj
 0001:00016320       ?destroy@?$Array@VPxExtendedBox@physx@@VNamedAllocator@shdfnd@2@@shdfnd@physx@@KAXPEAVPxExtendedBox@3@0@Z 0000000180017320 f i CctCharacterController.obj
 0001:00016370       ?destroy@?$Array@VPxTriangle@physx@@VNamedAllocator@shdfnd@2@@shdfnd@physx@@KAXPEAVPxTriangle@3@0@Z 0000000180017370 f i CctCharacterController.obj
 0001:000163c0       ?dot@PxExtendedVec3@physx@@QEBANAEBVPxVec3@2@@Z 00000001800173c0 f i CctCharacterController.obj
 0001:00016440       ?dot@PxVec3@physx@@QEBAMAEBV12@@Z 0000000180017440 f i CctCharacterController.obj
 0001:000164a0       ?encodeUserObject@Cct@physx@@YAIIW4UserObjectType@12@@Z 00000001800174a0 f i CctCharacterController.obj
 0001:00016590       ?end@?$Array@IVNamedAllocator@shdfnd@physx@@@shdfnd@physx@@QEAAPEAIXZ 0000000180017590 f i CctCharacterController.obj
 0001:000165b0       ?end@?$Array@IVNamedAllocator@shdfnd@physx@@@shdfnd@physx@@QEBAPEBIXZ 00000001800175b0 f i CctCharacterController.obj
 0001:000165d0       ?equal@?$Hash@PEAVPxShape@physx@@@shdfnd@physx@@QEBA_NAEBQEAVPxShape@3@0@Z 00000001800175d0 f i CctCharacterController.obj
 0001:00016620       ?finalizeQuery@?$PxHitCallback@UPxRaycastHit@physx@@@physx@@UEAAXXZ 0000000180017620 f i CctCharacterController.obj
 0001:00016630       ?find@?$HashBase@PEAVPxShape@physx@@PEAV12@U?$Hash@PEAVPxShape@physx@@@shdfnd@2@UGetKey@?$HashSetBase@PEAVPxShape@physx@@U?$Hash@PEAVPxShape@physx@@@shdfnd@2@VNonTrackingAllocator@42@$0A@@internal@42@VNonTrackingAllocator@42@$0A@@internal@shdfnd@physx@@QEBAPEBQEAVPxShape@4@AEBQEAV54@@Z 0000000180017630 f i CctCharacterController.obj
 0001:00016730       ?forceSize_Unsafe@?$Array@IVNamedAllocator@shdfnd@physx@@@shdfnd@physx@@QEAAXI@Z 0000000180017730 f i CctCharacterController.obj
 0001:000167c0       ?forceSize_Unsafe@?$Array@VPxTriangle@physx@@VNamedAllocator@shdfnd@2@@shdfnd@physx@@QEAAXI@Z 00000001800177c0 f i CctCharacterController.obj
 0001:00016850       ?forceSize_Unsafe@TriArray@Cct@physx@@QEAAXI@Z 0000000180017850 f i CctCharacterController.obj
 0001:00016880       ?get@?$TouchedObject@VPxRigidActor@physx@@@Cct@physx@@QEBAPEBVPxRigidActor@3@XZ 0000000180017880 f i CctCharacterController.obj
 0001:000168a0       ?get@?$TouchedObject@VPxShape@physx@@@Cct@physx@@QEBAPEBVPxShape@3@XZ 00000001800178a0 f i CctCharacterController.obj
 0001:000168c0       ?getAnyHit@?$PxHitBuffer@UPxRaycastHit@physx@@@physx@@QEBAAEBUPxRaycastHit@2@I@Z 00000001800178c0 f i CctCharacterController.obj
 0001:000169b0       ?getBasisVector0@PxQuat@physx@@QEBA?AVPxVec3@2@XZ 00000001800179b0 f i CctCharacterController.obj
 0001:00016ad0       ?getCenter@PxBounds3@physx@@QEBA?AVPxVec3@2@XZ 0000000180017ad0 f i CctCharacterController.obj
 0001:00016ba0       ?getConcreteType@PxBase@physx@@QEBAGXZ 0000000180017ba0 f i CctCharacterController.obj
 0001:00016bc0       ?getContextId@Controller@Cct@physx@@QEBA_KXZ 0000000180017bc0 f i CctCharacterController.obj
 0001:00016be0       ?getDimensions@PxBounds3@physx@@QEBA?AVPxVec3@2@XZ 0000000180017be0 f i CctCharacterController.obj
 0001:00016c90       ?getExtents@PxBounds3@physx@@QEBA?AVPxVec3@2@XZ 0000000180017c90 f i CctCharacterController.obj
 0001:00016d50       ?getGlobalPose@PxShapeExt@physx@@SA?AVPxTransform@2@AEBVPxShape@2@AEBVPxRigidActor@2@@Z 0000000180017d50 f i CctCharacterController.obj
 0001:00016e00       ?getNbTouches@?$PxHitBuffer@UPxRaycastHit@physx@@@physx@@QEBAIXZ 0000000180017e00 f i CctCharacterController.obj
 0001:00016e20       ?getNormalized@PxVec3@physx@@QEBA?AV12@XZ 0000000180017e20 f i CctCharacterController.obj
 0001:00016ed0       ?getShapeGlobalPose@physx@@YA?AVPxTransform@1@AEBVPxShape@1@AEBVPxRigidActor@1@@Z 0000000180017ed0 f i CctCharacterController.obj
 0001:00016f10       ?getTouches@?$PxHitBuffer@UPxRaycastHit@physx@@@physx@@QEBAPEBUPxRaycastHit@2@XZ 0000000180017f10 f i CctCharacterController.obj
 0001:00016f30       ?getTriangle@TriArray@Cct@physx@@QEBAAEBVPxTriangle@3@I@Z 0000000180017f30 f i CctCharacterController.obj
 0001:00016f60       ?getType@SweptVolume@Cct@physx@@QEBA?AW4Enum@SweptVolumeType@23@XZ 0000000180017f60 f i CctCharacterController.obj
 0001:00016f80       ?grow@?$Array@IVNamedAllocator@shdfnd@physx@@@shdfnd@physx@@IEAAXI@Z 0000000180017f80 f i CctCharacterController.obj
 0001:00017020       ?growAndPushBack@?$Array@PEBXVNamedAllocator@shdfnd@physx@@@shdfnd@physx@@IEAAAEAPEBXAEBQEBX@Z 0000000180018020 f i CctCharacterController.obj
 0001:00017230       ?growAndPushBack@?$Array@UPxExtendedCapsule@physx@@VNamedAllocator@shdfnd@2@@shdfnd@physx@@IEAAAEAUPxExtendedCapsule@3@AEBU43@@Z 0000000180018230 f i CctCharacterController.obj
 0001:00017490       ?growAndPushBack@?$Array@VPxExtendedBox@physx@@VNamedAllocator@shdfnd@2@@shdfnd@physx@@IEAAAEAVPxExtendedBox@3@AEBV43@@Z 0000000180018490 f i CctCharacterController.obj
 0001:000176a0       ?hash@?$HashBase@PEAVPxShape@physx@@PEAV12@U?$Hash@PEAVPxShape@physx@@@shdfnd@2@UGetKey@?$HashSetBase@PEAVPxShape@physx@@U?$Hash@PEAVPxShape@physx@@@shdfnd@2@VNonTrackingAllocator@42@$0A@@internal@42@VNonTrackingAllocator@42@$0A@@internal@shdfnd@physx@@AEBAIAEBQEAVPxShape@4@@Z 00000001800186a0 f i CctCharacterController.obj
 0001:000176e0       ?hash@?$HashBase@PEAVPxShape@physx@@PEAV12@U?$Hash@PEAVPxShape@physx@@@shdfnd@2@UGetKey@?$HashSetBase@PEAVPxShape@physx@@U?$Hash@PEAVPxShape@physx@@@shdfnd@2@VNonTrackingAllocator@42@$0A@@internal@42@VNonTrackingAllocator@42@$0A@@internal@shdfnd@physx@@AEBAIAEBQEAVPxShape@4@I@Z 00000001800186e0 f i CctCharacterController.obj
 0001:00017720       ?hash@shdfnd@physx@@YAIPEBX@Z 0000000180018720 f i CctCharacterController.obj
 0001:00017740       ?hash@shdfnd@physx@@YAI_K@Z 0000000180018740 f i CctCharacterController.obj
 0001:00017850       ?intersectOBBAABB@Gu@physx@@YA_NAEBVBox@12@AEBVPxBounds3@2@@Z 0000000180018850 f i CctCharacterController.obj
 0001:00017910       ?isAlmostZero@shdfnd@physx@@YA_NAEBVPxVec3@2@@Z 0000000180018910 f i CctCharacterController.obj
 0001:00017990       ?isFinite@PxBounds3@physx@@QEBA_NXZ 0000000180018990 f i CctCharacterController.obj
 0001:00017a00       ?isFinite@PxQuat@physx@@QEBA_NXZ 0000000180018a00 f i CctCharacterController.obj
 0001:00017aa0       ?isFinite@PxTransform@physx@@QEBA_NXZ 0000000180018aa0 f i CctCharacterController.obj
 0001:00017b10       ?isFinite@PxVec3@physx@@QEBA_NXZ 0000000180018b10 f i CctCharacterController.obj
 0001:00017b90       ?isFinite@intrinsics@physx@@YA_NM@Z 0000000180018b90 f i CctCharacterController.obj
 0001:00017be0       ?isInUserMemory@?$Array@IVNamedAllocator@shdfnd@physx@@@shdfnd@physx@@QEBAIXZ 0000000180018be0 f i CctCharacterController.obj
 0001:00017c00       ?isInUserMemory@?$Array@PEBXVNamedAllocator@shdfnd@physx@@@shdfnd@physx@@QEBAIXZ 0000000180018c00 f i CctCharacterController.obj
 0001:00017c20       ?isInUserMemory@?$Array@UPxExtendedCapsule@physx@@VNamedAllocator@shdfnd@2@@shdfnd@physx@@QEBAIXZ 0000000180018c20 f i CctCharacterController.obj
 0001:00017c40       ?isInUserMemory@?$Array@VPxExtendedBox@physx@@VNamedAllocator@shdfnd@2@@shdfnd@physx@@QEBAIXZ 0000000180018c40 f i CctCharacterController.obj
 0001:00017c60       ?isInUserMemory@?$Array@VPxTriangle@physx@@VNamedAllocator@shdfnd@2@@shdfnd@physx@@QEBAIXZ 0000000180018c60 f i CctCharacterController.obj
 0001:00017c80       ?isInside@PxExtendedBounds3@physx@@QEBA_NAEBU12@@Z 0000000180018c80 f i CctCharacterController.obj
 0001:00017d60       ?isSane@PxQuat@physx@@QEBA_NXZ 0000000180018d60 f i CctCharacterController.obj
 0001:00017de0       ?isSane@PxTransform@physx@@QEBA_NXZ 0000000180018de0 f i CctCharacterController.obj
 0001:00017e40       ?isValid@PxBounds3@physx@@QEBA_NXZ 0000000180018e40 f i CctCharacterController.obj
 0001:00017f70       ?isZero@PxVec3@physx@@QEBA_NXZ 0000000180018f70 f i CctCharacterController.obj
 0001:00017fd0       ?magnitude@PxQuat@physx@@QEBAMXZ 0000000180018fd0 f i CctCharacterController.obj
 0001:00018000       ?magnitude@PxVec3@physx@@QEBAMXZ 0000000180019000 f i CctCharacterController.obj
 0001:00018030       ?magnitudeSquared@PxQuat@physx@@QEBAMXZ 0000000180019030 f i CctCharacterController.obj
 0001:000180b0       ?magnitudeSquared@PxVec3@physx@@QEBAMXZ 00000001800190b0 f i CctCharacterController.obj
 0001:00018110       ?maximum@PxExtendedVec3@physx@@QEAAXAEBU12@@Z 0000000180019110 f i CctCharacterController.obj
 0001:000181c0       ?minimum@PxExtendedVec3@physx@@QEAAXAEBU12@@Z 00000001800191c0 f i CctCharacterController.obj
 0001:00018270       ?normal@PxTriangle@physx@@QEBAXAEAVPxVec3@2@@Z 0000000180019270 f i CctCharacterController.obj
 0001:00018360       ?normalize@PxVec3@physx@@QEAAMXZ 0000000180019360 f i CctCharacterController.obj
 0001:000183c0       ?postFilter@ControllerFilter@@UEAA?AW4Enum@PxQueryHitType@physx@@AEBUPxFilterData@4@AEBUPxQueryHit@4@@Z 00000001800193c0 f i CctCharacterController.obj
 0001:000184c0       ?preFilter@ControllerFilter@@UEAA?AW4Enum@PxQueryHitType@physx@@AEBUPxFilterData@4@PEBVPxShape@4@PEBVPxRigidActor@4@AEAV?$PxFlags@W4Enum@PxHitFlag@physx@@G@4@@Z 00000001800194c0 f i CctCharacterController.obj
 0001:00018600       ?processTouches@?$PxHitBuffer@UPxRaycastHit@physx@@@physx@@MEAA_NPEBUPxRaycastHit@2@I@Z 0000000180019600 f i CctCharacterController.obj
 0001:00018640       ?pushBack@?$Array@PEBXVNamedAllocator@shdfnd@physx@@@shdfnd@physx@@QEAAAEAPEBXAEBQEBX@Z 0000000180019640 f i CctCharacterController.obj
 0001:00018730       ?pushBack@?$Array@UPxExtendedCapsule@physx@@VNamedAllocator@shdfnd@2@@shdfnd@physx@@QEAAAEAUPxExtendedCapsule@3@AEBU43@@Z 0000000180019730 f i CctCharacterController.obj
 0001:00018830       ?pushBack@?$Array@VPxExtendedBox@physx@@VNamedAllocator@shdfnd@2@@shdfnd@physx@@QEAAAEAVPxExtendedBox@3@AEBV43@@Z 0000000180019830 f i CctCharacterController.obj
 0001:00018920       ?recipSqrt@intrinsics@physx@@YAMM@Z 0000000180019920 f i CctCharacterController.obj
 0001:00018960       ?recreate@?$Array@IVNamedAllocator@shdfnd@physx@@@shdfnd@physx@@IEAAXI@Z 0000000180019960 f i CctCharacterController.obj
 0001:00018ab0       ?reserve@?$Array@IVNamedAllocator@shdfnd@physx@@@shdfnd@physx@@QEAAXI@Z 0000000180019ab0 f i CctCharacterController.obj
 0001:00018af0       ?resetStats@SweepTest@Cct@physx@@QEAAXXZ 0000000180019af0 f i CctCharacterController.obj
 0001:00018b40       ?rotate@PxQuat@physx@@QEBA?BVPxVec3@2@AEBV32@@Z 0000000180019b40 f i CctCharacterController.obj
 0001:00018d90       ?rotateInv@PxQuat@physx@@QEBA?BVPxVec3@2@AEBV32@@Z 0000000180019d90 f i CctCharacterController.obj
 0001:00018fe0       ?selectMax@intrinsics@physx@@YAMMM@Z 0000000180019fe0 f i CctCharacterController.obj
 0001:00019030       ?selectMin@intrinsics@physx@@YAMMM@Z 000000018001a030 f i CctCharacterController.obj
 0001:00019080       ?set@PxExtendedBounds3@physx@@QEAAXNNNNNN@Z 000000018001a080 f i CctCharacterController.obj
 0001:00019100       ?set@PxExtendedVec3@physx@@QEAAXNNN@Z 000000018001a100 f i CctCharacterController.obj
 0001:00019160       ?setEmpty@PxExtendedBounds3@physx@@QEAAXXZ 000000018001a160 f i CctCharacterController.obj
 0001:000191d0       ?setWorldPos@SweptContact@Cct@physx@@QEAAXAEBVPxVec3@3@AEBUPxExtendedVec3@3@@Z 000000018001a1d0 f i CctCharacterController.obj
 0001:00019250       ?size@?$Array@IVNamedAllocator@shdfnd@physx@@@shdfnd@physx@@QEBAIXZ 000000018001a250 f i CctCharacterController.obj
 0001:00019270       ?size@?$Array@PEBXVNamedAllocator@shdfnd@physx@@@shdfnd@physx@@QEBAIXZ 000000018001a270 f i CctCharacterController.obj
 0001:00019290       ?size@?$Array@UInternalBoxObstacle@ObstacleContext@Cct@physx@@VNamedAllocator@shdfnd@4@@shdfnd@physx@@QEBAIXZ 000000018001a290 f i CctCharacterController.obj
 0001:000192b0       ?size@?$Array@UInternalCapsuleObstacle@ObstacleContext@Cct@physx@@VNamedAllocator@shdfnd@4@@shdfnd@physx@@QEBAIXZ 000000018001a2b0 f i CctCharacterController.obj
 0001:000192d0       ?size@?$Array@UPxExtendedCapsule@physx@@VNamedAllocator@shdfnd@2@@shdfnd@physx@@QEBAIXZ 000000018001a2d0 f i CctCharacterController.obj
 0001:000192f0       ?size@?$Array@VPxExtendedBox@physx@@VNamedAllocator@shdfnd@2@@shdfnd@physx@@QEBAIXZ 000000018001a2f0 f i CctCharacterController.obj
 0001:00019310       ?size@?$Array@VPxTriangle@physx@@VNamedAllocator@shdfnd@2@@shdfnd@physx@@QEBAIXZ 000000018001a310 f i CctCharacterController.obj
 0001:00019330       ?size@TriArray@Cct@physx@@QEBAIXZ 000000018001a330 f i CctCharacterController.obj
 0001:00019350       ?sqrt@intrinsics@physx@@YAMM@Z 000000018001a350 f i CctCharacterController.obj
 0001:00019380       ?testSlope@physx@@YA_NAEBVPxVec3@1@0M@Z 000000018001a380 f i CctCharacterController.obj
 0001:00019400       ?toVec3@physx@@YA?AVPxVec3@1@AEBUPxExtendedVec3@1@@Z 000000018001a400 f i CctCharacterController.obj
 0001:00019470       ?transform@PxTransform@physx@@QEBA?AV12@AEBV12@@Z 000000018001a470 f i CctCharacterController.obj
 0001:00019640       ?transform@PxTransform@physx@@QEBA?AVPxVec3@2@AEBV32@@Z 000000018001a640 f i CctCharacterController.obj
 0001:00019720       ?transformInv@PxTransform@physx@@QEBA?AVPxVec3@2@AEBV32@@Z 000000018001a720 f i CctCharacterController.obj
 0001:000197f0       fabsf                      000000018001a7f0 f i CctCharacterController.obj
 0001:000198a0       ?getSceneTimestamp@Cct@physx@@YAIPEBUInternalCBData_FindTouchedGeom@12@@Z 000000018001a8a0 f   CctCharacterControllerCallbacks.obj
 0001:00019930       ?findTouchedGeometry@Cct@physx@@YAXPEBUInternalCBData_FindTouchedGeom@12@AEBUPxExtendedBounds3@2@AEAVTriArray@12@AEAV?$Array@IVNamedAllocator@shdfnd@physx@@@shdfnd@2@3AEBVCCTFilter@12@AEBUCCTParams@12@AEAG@Z 000000018001a930 f   CctCharacterControllerCallbacks.obj
 0001:0001a120       ?shapeHitCallback@Cct@physx@@YAIPEBUInternalCBData_OnHit@12@AEBUSweptContact@12@AEBVPxVec3@2@M@Z 000000018001b120 f   CctCharacterControllerCallbacks.obj
 0001:0001a250       ?userHitCallback@Cct@physx@@YAIPEBUInternalCBData_OnHit@12@AEBUSweptContact@12@AEBVPxVec3@2@M@Z 000000018001b250 f   CctCharacterControllerCallbacks.obj
 0001:0001f9c0       ??$PX_UNUSED@PEBUPxOverlapHit@physx@@@@YAXAEBQEBUPxOverlapHit@physx@@@Z 00000001800209c0 f i CctCharacterControllerCallbacks.obj
 0001:0001f9d0       ??0?$PxFlags@W4Enum@PxConvexMeshGeometryFlag@physx@@E@physx@@QEAA@XZ 00000001800209d0 f i CctCharacterControllerCallbacks.obj
 0001:0001f9f0       ??0?$PxFlags@W4Enum@PxMeshGeometryFlag@physx@@E@physx@@QEAA@E@Z 00000001800209f0 f i CctCharacterControllerCallbacks.obj
 0001:0001fa20       ??0?$PxFlags@W4Enum@PxMeshGeometryFlag@physx@@E@physx@@QEAA@XZ 0000000180020a20 f i CctCharacterControllerCallbacks.obj
 0001:0001fa40       ??0?$PxHitBuffer@UPxOverlapHit@physx@@@physx@@QEAA@PEAUPxOverlapHit@1@I@Z 0000000180020a40 f i CctCharacterControllerCallbacks.obj
 0001:0001fa90       ??0?$PxHitCallback@UPxOverlapHit@physx@@@physx@@QEAA@PEAUPxOverlapHit@1@I@Z 0000000180020a90 f i CctCharacterControllerCallbacks.obj
 0001:0001fb20       ??0?$PxPadding@$02@physx@@QEAA@XZ 0000000180020b20 f i CctCharacterControllerCallbacks.obj
 0001:0001fb70       ??0PxControllerHit@physx@@QEAA@XZ 0000000180020b70 f i CctCharacterControllerCallbacks.obj
 0001:0001fbd0       ??0PxControllerObstacleHit@physx@@QEAA@XZ 0000000180020bd0 f i CctCharacterControllerCallbacks.obj
 0001:0001fc00       ??0PxControllerShapeHit@physx@@QEAA@XZ 0000000180020c00 f i CctCharacterControllerCallbacks.obj
 0001:0001fc30       ??0PxControllersHit@physx@@QEAA@XZ 0000000180020c30 f i CctCharacterControllerCallbacks.obj
 0001:0001fc60       ??0PxConvexMeshGeometry@physx@@QEAA@XZ 0000000180020c60 f i CctCharacterControllerCallbacks.obj
 0001:0001fd00       ??0PxExtendedSphere@physx@@QEAA@XZ 0000000180020d00 f i CctCharacterControllerCallbacks.obj
 0001:0001fd30       ??0PxHeightFieldGeometry@physx@@QEAA@XZ 0000000180020d30 f i CctCharacterControllerCallbacks.obj
 0001:0001fde0       ??0PxMat33@physx@@QEAA@AEBVPxVec3@1@00@Z 0000000180020de0 f i CctCharacterControllerCallbacks.obj
 0001:0001fe60       ??0PxMeshScale@physx@@QEAA@M@Z 0000000180020e60 f i CctCharacterControllerCallbacks.obj
 0001:0001feb0       ??0PxMeshScale@physx@@QEAA@XZ 0000000180020eb0 f i CctCharacterControllerCallbacks.obj
 0001:0001ff00       ??0PxOverlapHit@physx@@QEAA@XZ 0000000180020f00 f i CctCharacterControllerCallbacks.obj
 0001:0001ff30       ??0PxPlane@physx@@QEAA@AEBVPxVec3@1@M@Z 0000000180020f30 f i CctCharacterControllerCallbacks.obj
 0001:0001ff80       ??0PxPlane@physx@@QEAA@MMMM@Z 0000000180020f80 f i CctCharacterControllerCallbacks.obj
 0001:0001fff0       ??0PxQueryFilterData@physx@@QEAA@$$QEAU01@@Z 0000000180020ff0 f i CctCharacterControllerCallbacks.obj
 0001:00020060       ??0PxQueryFilterData@physx@@QEAA@V?$PxFlags@W4Enum@PxQueryFlag@physx@@G@1@@Z 0000000180021060 f i CctCharacterControllerCallbacks.obj
 0001:000200c0       ??0PxTransform@physx@@QEAA@AEBVPxVec3@1@@Z 00000001800210c0 f i CctCharacterControllerCallbacks.obj
 0001:00020110       ??0PxTriangle@physx@@QEAA@AEBV01@@Z 0000000180021110 f i CctCharacterControllerCallbacks.obj
 0001:00020210       ??0PxTriangle@physx@@QEAA@AEBVPxVec3@1@00@Z 0000000180021210 f i CctCharacterControllerCallbacks.obj
 0001:000202e0       ??0PxTriangle@physx@@QEAA@XZ 00000001800212e0 f i CctCharacterControllerCallbacks.obj
 0001:00020320       ??0PxTriangleMeshGeometry@physx@@QEAA@XZ 0000000180021320 f i CctCharacterControllerCallbacks.obj
 0001:000203a0       ??0PxVec4@physx@@QEAA@MMMM@Z 00000001800213a0 f i CctCharacterControllerCallbacks.obj
 0001:00020420       ??0TessParams@@QEAA@XZ     0000000180021420 f i CctCharacterControllerCallbacks.obj
 0001:00020470       ??0TrianglePadded@Gu@physx@@QEAA@XZ 0000000180021470 f i CctCharacterControllerCallbacks.obj
 0001:000204a0       ??0Vec3p@Gu@physx@@QEAA@AEBVPxVec3@2@@Z 00000001800214a0 f i CctCharacterControllerCallbacks.obj
 0001:000204d0       ??1?$PxHitBuffer@UPxOverlapHit@physx@@@physx@@UEAA@XZ 00000001800214d0 f i CctCharacterControllerCallbacks.obj
 0001:00020500       ??1?$PxHitCallback@UPxOverlapHit@physx@@@physx@@UEAA@XZ 0000000180021500 f i CctCharacterControllerCallbacks.obj
 0001:00020520       ??1PxExtendedSphere@physx@@QEAA@XZ 0000000180021520 f i CctCharacterControllerCallbacks.obj
 0001:00020530       ??1TrianglePadded@Gu@physx@@QEAA@XZ 0000000180021530 f i CctCharacterControllerCallbacks.obj
 0001:00020550       ??1Vec3p@Gu@physx@@QEAA@XZ 0000000180021550 f i CctCharacterControllerCallbacks.obj
 0001:00020560       ??APxVec3@physx@@QEBAAEBMI@Z 0000000180021560 f i CctCharacterControllerCallbacks.obj
 0001:000205f0       ??DPxMat33@physx@@QEBA?BV01@AEBV01@@Z 00000001800215f0 f i CctCharacterControllerCallbacks.obj
 0001:000206b0       ??DPxVec4@physx@@QEBA?AV01@M@Z 00000001800216b0 f i CctCharacterControllerCallbacks.obj
 0001:00020750       ??HPxVec4@physx@@QEBA?AV01@AEBV01@@Z 0000000180021750 f i CctCharacterControllerCallbacks.obj
 0001:00020800       ??_G?$PxHitBuffer@UPxOverlapHit@physx@@@physx@@UEAAPEAXI@Z 0000000180021800 f i CctCharacterControllerCallbacks.obj
 0001:00020800       ??_E?$PxHitBuffer@UPxOverlapHit@physx@@@physx@@UEAAPEAXI@Z 0000000180021800 f i CctCharacterControllerCallbacks.obj
 0001:00020850       ??_E?$PxHitCallback@UPxOverlapHit@physx@@@physx@@UEAAPEAXI@Z 0000000180021850 f i CctCharacterControllerCallbacks.obj
 0001:00020850       ??_G?$PxHitCallback@UPxOverlapHit@physx@@@physx@@UEAAPEAXI@Z 0000000180021850 f i CctCharacterControllerCallbacks.obj
 0001:000208a0       ?FLoad@aos@shdfnd@physx@@YA?AT__m128@@M@Z 00000001800218a0 f i CctCharacterControllerCallbacks.obj
 0001:000208d0       ?PxPlaneEquationFromTransform@physx@@YA?AVPxPlane@1@AEBVPxTransform@1@@Z 00000001800218d0 f i CctCharacterControllerCallbacks.obj
 0001:00020930       ?V3Load@aos@shdfnd@physx@@YA?AT__m128@@M@Z 0000000180021930 f i CctCharacterControllerCallbacks.obj
 0001:00020980       ?V4Load@aos@shdfnd@physx@@YA?AT__m128@@M@Z 0000000180021980 f i CctCharacterControllerCallbacks.obj
 0001:000209b0       ?allocate@?$Array@VPxTriangle@physx@@VNamedAllocator@shdfnd@2@@shdfnd@physx@@IEAAPEAVPxTriangle@3@I@Z 00000001800219b0 f i CctCharacterControllerCallbacks.obj
 0001:00020a60       ?begin@?$Array@VPxTriangle@physx@@VNamedAllocator@shdfnd@2@@shdfnd@physx@@QEBAPEBVPxTriangle@3@XZ 0000000180021a60 f i CctCharacterControllerCallbacks.obj
 0001:00020a80       ?begin@TriArray@Cct@physx@@QEBAPEBVPxTriangle@3@XZ 0000000180021a80 f i CctCharacterControllerCallbacks.obj
 0001:00020aa0       ?capacityIncrement@?$Array@IVNamedAllocator@shdfnd@physx@@@shdfnd@physx@@IEBAIXZ 0000000180021aa0 f i CctCharacterControllerCallbacks.obj
 0001:00020af0       ?centerExtents@PxBounds3@physx@@SA?AV12@AEBVPxVec3@2@0@Z 0000000180021af0 f i CctCharacterControllerCallbacks.obj
 0001:00020b70       ?computeBasis@shdfnd@physx@@YAXAEBVPxVec3@2@AEAV32@1@Z 0000000180021b70 f i CctCharacterControllerCallbacks.obj
 0001:00020d40       ?copy@?$Array@VPxTriangle@physx@@VNamedAllocator@shdfnd@2@@shdfnd@physx@@KAXPEAVPxTriangle@3@0PEBV43@@Z 0000000180021d40 f i CctCharacterControllerCallbacks.obj
 0001:00020df0       ?decodeIndex@Cct@physx@@YAII@Z 0000000180021df0 f i CctCharacterControllerCallbacks.obj
 0001:00020e00       ?decodeType@Cct@physx@@YA?AW4UserObjectType@12@I@Z 0000000180021e00 f i CctCharacterControllerCallbacks.obj
 0001:00020e20       ?distance@PxPlane@physx@@QEBAMAEBVPxVec3@2@@Z 0000000180021e20 f i CctCharacterControllerCallbacks.obj
 0001:00020e60       ?end@?$Array@VPxTriangle@physx@@VNamedAllocator@shdfnd@2@@shdfnd@physx@@QEAAPEAVPxTriangle@3@XZ 0000000180021e60 f i CctCharacterControllerCallbacks.obj
 0001:00020e80       ?finalizeQuery@?$PxHitCallback@UPxOverlapHit@physx@@@physx@@UEAAXXZ 0000000180021e80 f i CctCharacterControllerCallbacks.obj
 0001:00020e90       ?getAnyHit@?$PxHitBuffer@UPxOverlapHit@physx@@@physx@@QEBAAEBUPxOverlapHit@2@I@Z 0000000180021e90 f i CctCharacterControllerCallbacks.obj
 0001:00020f80       ?getCctManager@Controller@Cct@physx@@QEAAPEAVCharacterControllerManager@23@XZ 0000000180021f80 f i CctCharacterControllerCallbacks.obj
 0001:00020fa0       ?getNbAnyHits@?$PxHitBuffer@UPxOverlapHit@physx@@@physx@@QEBAIXZ 0000000180021fa0 f i CctCharacterControllerCallbacks.obj
 0001:00020fd0       ?getNbTouches@?$PxHitBuffer@UPxOverlapHit@physx@@@physx@@QEBAIXZ 0000000180021fd0 f i CctCharacterControllerCallbacks.obj
 0001:00020ff0       ?getPosition@PxMat44@physx@@QEBA?BVPxVec3@2@XZ 0000000180021ff0 f i CctCharacterControllerCallbacks.obj
 0001:00021030       ?getResults@PxMeshOverlapUtil@physx@@QEBAPEBIXZ 0000000180022030 f i CctCharacterControllerCallbacks.obj
 0001:00021050       ?getTouches@?$PxHitBuffer@UPxOverlapHit@physx@@@physx@@QEBAPEBUPxOverlapHit@2@XZ 0000000180022050 f i CctCharacterControllerCallbacks.obj
 0001:00021070       ?getTranspose@PxMat33@physx@@QEBA?BV12@XZ 0000000180022070 f i CctCharacterControllerCallbacks.obj
 0001:00021150       ?getXYZ@PxVec4@physx@@QEBA?AVPxVec3@2@XZ 0000000180022150 f i CctCharacterControllerCallbacks.obj
 0001:000211a0       ?grow@?$Array@VPxTriangle@physx@@VNamedAllocator@shdfnd@2@@shdfnd@physx@@IEAAXI@Z 00000001800221a0 f i CctCharacterControllerCallbacks.obj
 0001:00021240       ?growAndPushBack@?$Array@IVNamedAllocator@shdfnd@physx@@@shdfnd@physx@@IEAAAEAIAEBI@Z 0000000180022240 f i CctCharacterControllerCallbacks.obj
 0001:00021440       ?processTouches@?$PxHitBuffer@UPxOverlapHit@physx@@@physx@@MEAA_NPEBUPxOverlapHit@2@I@Z 0000000180022440 f i CctCharacterControllerCallbacks.obj
 0001:00021480       ?project@PxPlane@physx@@QEBA?AVPxVec3@2@AEBV32@@Z 0000000180022480 f i CctCharacterControllerCallbacks.obj
 0001:000214f0       ?pushBack@?$Array@IVNamedAllocator@shdfnd@physx@@@shdfnd@physx@@QEAAAEAIAEBI@Z 00000001800224f0 f i CctCharacterControllerCallbacks.obj
 0001:000215e0       ?pushBack@TriArray@Cct@physx@@QEAAXAEBVPxTriangle@3@@Z 00000001800225e0 f i CctCharacterControllerCallbacks.obj
 0001:000216d0       ?recreate@?$Array@VPxTriangle@physx@@VNamedAllocator@shdfnd@2@@shdfnd@physx@@IEAAXI@Z 00000001800226d0 f i CctCharacterControllerCallbacks.obj
 0001:00021830       ?reserve@?$Array@VPxTriangle@physx@@VNamedAllocator@shdfnd@2@@shdfnd@physx@@QEAAXI@Z 0000000180022830 f i CctCharacterControllerCallbacks.obj
 0001:00021870       ?reserve@TriArray@Cct@physx@@QEAAPEAVPxTriangle@3@I@Z 0000000180022870 f i CctCharacterControllerCallbacks.obj
 0001:00021950       ?rotate@PxMat44@physx@@QEBA?BVPxVec3@2@AEBV32@@Z 0000000180022950 f i CctCharacterControllerCallbacks.obj
 0001:000219c0       ?rotate@PxMat44@physx@@QEBA?BVPxVec4@2@AEBV32@@Z 00000001800229c0 f i CctCharacterControllerCallbacks.obj
 0001:00021ab0       ?rotate@PxTransform@physx@@QEBA?AVPxVec3@2@AEBV32@@Z 0000000180022ab0 f i CctCharacterControllerCallbacks.obj
 0001:00021b60       ?toMat33@PxMeshScale@physx@@QEBA?AVPxMat33@2@XZ 0000000180022b60 f i CctCharacterControllerCallbacks.obj
 0001:00021c50       ?transform@PxMat33@physx@@QEBA?BVPxVec3@2@AEBV32@@Z 0000000180022c50 f i CctCharacterControllerCallbacks.obj
 0001:00021d30       ?transform@PxTransform@physx@@QEBA?AVPxPlane@2@AEBV32@@Z 0000000180022d30 f i CctCharacterControllerCallbacks.obj
 0001:00021e40       PxCreateControllerManager  0000000180022e40 f   CctCharacterControllerManager.obj
 0001:00021ed0       ??0CharacterControllerManager@Cct@physx@@QEAA@AEAVPxScene@2@_N@Z 0000000180022ed0 f   CctCharacterControllerManager.obj
 0001:00022160       ??1CharacterControllerManager@Cct@physx@@UEAA@XZ 0000000180023160 f   CctCharacterControllerManager.obj
 0001:000222b0       ?release@CharacterControllerManager@Cct@physx@@UEAAXXZ 00000001800232b0 f   CctCharacterControllerManager.obj
 0001:000223e0       ?getScene@CharacterControllerManager@Cct@physx@@UEBAAEAVPxScene@3@XZ 00000001800233e0 f   CctCharacterControllerManager.obj
 0001:00022400       ?getNbControllers@CharacterControllerManager@Cct@physx@@UEBAIXZ 0000000180023400 f   CctCharacterControllerManager.obj
 0001:00022430       ?getController@CharacterControllerManager@Cct@physx@@UEAAPEAVPxController@3@I@Z 0000000180023430 f   CctCharacterControllerManager.obj
 0001:00022520       ?createController@CharacterControllerManager@Cct@physx@@UEAAPEAVPxController@3@AEBVPxControllerDesc@3@@Z 0000000180023520 f   CctCharacterControllerManager.obj
 0001:000228b0       ?purgeControllers@CharacterControllerManager@Cct@physx@@UEAAXXZ 00000001800238b0 f   CctCharacterControllerManager.obj
 0001:00022920       ?getRenderBuffer@CharacterControllerManager@Cct@physx@@UEAAAEAVPxRenderBuffer@3@XZ 0000000180023920 f   CctCharacterControllerManager.obj
 0001:000229b0       ?setDebugRenderingFlags@CharacterControllerManager@Cct@physx@@UEAAXV?$PxFlags@W4Enum@PxControllerDebugRenderFlag@physx@@I@3@@Z 00000001800239b0 f   CctCharacterControllerManager.obj
 0001:00022a50       ?getNbObstacleContexts@CharacterControllerManager@Cct@physx@@UEBAIXZ 0000000180023a50 f   CctCharacterControllerManager.obj
 0001:00022a80       ?getObstacleContext@CharacterControllerManager@Cct@physx@@UEAAPEAVPxObstacleContext@3@I@Z 0000000180023a80 f   CctCharacterControllerManager.obj
 0001:00022b60       ?createObstacleContext@CharacterControllerManager@Cct@physx@@UEAAPEAVPxObstacleContext@3@XZ 0000000180023b60 f   CctCharacterControllerManager.obj
 0001:00022c00       ?computeInteractions@CharacterControllerManager@Cct@physx@@UEAAXMPEAVPxControllerFilterCallback@3@@Z 0000000180023c00 f   CctCharacterControllerManager.obj
 0001:00022f90       ?setTessellation@CharacterControllerManager@Cct@physx@@UEAAX_NM@Z 0000000180023f90 f   CctCharacterControllerManager.obj
 0001:00022fd0       ?setOverlapRecoveryModule@CharacterControllerManager@Cct@physx@@UEAAX_N@Z 0000000180023fd0 f   CctCharacterControllerManager.obj
 0001:00022ff0       ?setPreciseSweeps@CharacterControllerManager@Cct@physx@@UEAAX_N@Z 0000000180023ff0 f   CctCharacterControllerManager.obj
 0001:00023010       ?setPreventVerticalSlidingAgainstCeiling@CharacterControllerManager@Cct@physx@@UEAAX_N@Z 0000000180024010 f   CctCharacterControllerManager.obj
 0001:00023030       ?shiftOrigin@CharacterControllerManager@Cct@physx@@UEAAXAEBVPxVec3@3@@Z 0000000180024030 f   CctCharacterControllerManager.obj
 0001:000231d0       ?onRelease@CharacterControllerManager@Cct@physx@@UEAAXPEBVPxBase@3@PEAXW4Enum@PxDeletionEventFlag@3@@Z 00000001800241d0 f   CctCharacterControllerManager.obj
 0001:000233a0       ?registerObservedObject@CharacterControllerManager@Cct@physx@@QEAAXPEBVPxBase@3@@Z 00000001800243a0 f   CctCharacterControllerManager.obj
 0001:00023430       ?unregisterObservedObject@CharacterControllerManager@Cct@physx@@QEAAXPEBVPxBase@3@@Z 0000000180024430 f   CctCharacterControllerManager.obj
 0001:00023530       ?onObstacleRemoved@CharacterControllerManager@Cct@physx@@QEBAXI@Z 0000000180024530 f   CctCharacterControllerManager.obj
 0001:000235a0       ?onObstacleUpdated@CharacterControllerManager@Cct@physx@@QEBAXIPEBVPxObstacleContext@3@@Z 00000001800245a0 f   CctCharacterControllerManager.obj
 0001:000236e0       ?onObstacleAdded@CharacterControllerManager@Cct@physx@@QEBAXIPEBVPxObstacleContext@3@@Z 00000001800246e0 f   CctCharacterControllerManager.obj
 0001:00023820       ?releaseController@CharacterControllerManager@Cct@physx@@QEAAXAEAVPxController@3@@Z 0000000180024820 f   CctCharacterControllerManager.obj
 0001:00023ac0       ?getControllers@CharacterControllerManager@Cct@physx@@QEAAPEAPEAVController@23@XZ 0000000180024ac0 f   CctCharacterControllerManager.obj
 0001:00023af0       ?releaseObstacleContext@CharacterControllerManager@Cct@physx@@QEAAXAEAVObstacleContext@23@@Z 0000000180024af0 f   CctCharacterControllerManager.obj
 0001:00023c10       ?resetObstaclesBuffers@CharacterControllerManager@Cct@physx@@QEAAXXZ 0000000180024c10 f   CctCharacterControllerManager.obj
 0001:00025ab0       ??$?2V?$ReflectionAllocator@VBoxController@Cct@physx@@@shdfnd@physx@@@UserAllocated@shdfnd@physx@@SAPEAX_KV?$ReflectionAllocator@VBoxController@Cct@physx@@@12@PEBDH@Z 0000000180026ab0 f i CctCharacterControllerManager.obj
 0001:00025b00       ??$?2V?$ReflectionAllocator@VCapsuleController@Cct@physx@@@shdfnd@physx@@@UserAllocated@shdfnd@physx@@SAPEAX_KV?$ReflectionAllocator@VCapsuleController@Cct@physx@@@12@PEBDH@Z 0000000180026b00 f i CctCharacterControllerManager.obj
 0001:00025b50       ??$?2V?$ReflectionAllocator@VCharacterControllerManager@Cct@physx@@@shdfnd@physx@@@UserAllocated@shdfnd@physx@@SAPEAX_KV?$ReflectionAllocator@VCharacterControllerManager@Cct@physx@@@12@PEBDH@Z 0000000180026b50 f i CctCharacterControllerManager.obj
 0001:00025ba0       ??$?2V?$ReflectionAllocator@VObstacleContext@Cct@physx@@@shdfnd@physx@@@UserAllocated@shdfnd@physx@@SAPEAX_KV?$ReflectionAllocator@VObstacleContext@Cct@physx@@@12@PEBDH@Z 0000000180026ba0 f i CctCharacterControllerManager.obj
 0001:00025bf0       ??$?2V?$ReflectionAllocator@VRenderBuffer@Cm@physx@@@shdfnd@physx@@@UserAllocated@shdfnd@physx@@SAPEAX_KV?$ReflectionAllocator@VRenderBuffer@Cm@physx@@@12@PEBDH@Z 0000000180026bf0 f i CctCharacterControllerManager.obj
 0001:00025c40       ??$PX_UNUSED@W4Enum@PxDeletionEventFlag@physx@@@@YAXAEBW4Enum@PxDeletionEventFlag@physx@@@Z 0000000180026c40 f i CctCharacterControllerManager.obj
 0001:00025c50       ??$append@UPxDebugLine@physx@@@RenderBuffer@Cm@physx@@AEAAXAEAV?$Array@UPxDebugLine@physx@@VNamedAllocator@shdfnd@2@@shdfnd@2@PEBUPxDebugLine@2@I@Z 0000000180026c50 f i CctCharacterControllerManager.obj
 0001:00025cf0       ??$append@UPxDebugPoint@physx@@@RenderBuffer@Cm@physx@@AEAAXAEAV?$Array@UPxDebugPoint@physx@@VNamedAllocator@shdfnd@2@@shdfnd@2@PEBUPxDebugPoint@2@I@Z 0000000180026cf0 f i CctCharacterControllerManager.obj
 0001:00025d90       ??$append@UPxDebugText@physx@@@RenderBuffer@Cm@physx@@AEAAXAEAV?$Array@UPxDebugText@physx@@VNamedAllocator@shdfnd@2@@shdfnd@2@PEBUPxDebugText@2@I@Z 0000000180026d90 f i CctCharacterControllerManager.obj
 0001:00025e30       ??$append@UPxDebugTriangle@physx@@@RenderBuffer@Cm@physx@@AEAAXAEAV?$Array@UPxDebugTriangle@physx@@VNamedAllocator@shdfnd@2@@shdfnd@2@PEBUPxDebugTriangle@2@I@Z 0000000180026e30 f i CctCharacterControllerManager.obj
 0001:00025ed0       ??$resetOrClear@V?$Array@PEBXVNamedAllocator@shdfnd@physx@@@shdfnd@physx@@@@YAXAEAV?$Array@PEBXVNamedAllocator@shdfnd@physx@@@shdfnd@physx@@@Z 0000000180026ed0 f i CctCharacterControllerManager.obj
 0001:00025f50       ??$resetOrClear@V?$Array@UPxExtendedCapsule@physx@@VNamedAllocator@shdfnd@2@@shdfnd@physx@@@@YAXAEAV?$Array@UPxExtendedCapsule@physx@@VNamedAllocator@shdfnd@2@@shdfnd@physx@@@Z 0000000180026f50 f i CctCharacterControllerManager.obj
 0001:00025fd0       ??$resetOrClear@V?$Array@VPxExtendedBox@physx@@VNamedAllocator@shdfnd@2@@shdfnd@physx@@@@YAXAEAV?$Array@VPxExtendedBox@physx@@VNamedAllocator@shdfnd@2@@shdfnd@physx@@@Z 0000000180026fd0 f i CctCharacterControllerManager.obj
 0001:00026050       ??$swap@PEAVController@Cct@physx@@@shdfnd@physx@@YAXAEAPEAVController@Cct@1@0@Z 0000000180027050 f i CctCharacterControllerManager.obj
 0001:000260a0       ??0?$Array@DVNamedAllocator@shdfnd@physx@@@shdfnd@physx@@QEAA@AEBVNamedAllocator@12@@Z 00000001800270a0 f i CctCharacterControllerManager.obj
 0001:00026100       ??0?$Array@PEAVController@Cct@physx@@VNamedAllocator@shdfnd@3@@shdfnd@physx@@QEAA@AEBVNamedAllocator@12@@Z 0000000180027100 f i CctCharacterControllerManager.obj
 0001:00026160       ??0?$Array@PEAVObstacleContext@Cct@physx@@VNamedAllocator@shdfnd@3@@shdfnd@physx@@QEAA@AEBVNamedAllocator@12@@Z 0000000180027160 f i CctCharacterControllerManager.obj
 0001:000261c0       ??0?$Array@PEBXVNamedAllocator@shdfnd@physx@@@shdfnd@physx@@QEAA@AEBVNamedAllocator@12@@Z 00000001800271c0 f i CctCharacterControllerManager.obj
 0001:00026220       ??0?$Array@UPxDebugLine@physx@@VNamedAllocator@shdfnd@2@@shdfnd@physx@@QEAA@AEBVNamedAllocator@12@@Z 0000000180027220 f i CctCharacterControllerManager.obj
 0001:00026280       ??0?$Array@UPxDebugPoint@physx@@VNamedAllocator@shdfnd@2@@shdfnd@physx@@QEAA@AEBVNamedAllocator@12@@Z 0000000180027280 f i CctCharacterControllerManager.obj
 0001:000262e0       ??0?$Array@UPxDebugText@physx@@VNamedAllocator@shdfnd@2@@shdfnd@physx@@QEAA@AEBVNamedAllocator@12@@Z 00000001800272e0 f i CctCharacterControllerManager.obj
 0001:00026340       ??0?$Array@UPxDebugTriangle@physx@@VNamedAllocator@shdfnd@2@@shdfnd@physx@@QEAA@AEBVNamedAllocator@12@@Z 0000000180027340 f i CctCharacterControllerManager.obj
 0001:000263a0       ??0?$Array@UPxExtendedCapsule@physx@@VNamedAllocator@shdfnd@2@@shdfnd@physx@@QEAA@AEBVNamedAllocator@12@@Z 00000001800273a0 f i CctCharacterControllerManager.obj
 0001:00026400       ??0?$Array@VPxExtendedBox@physx@@VNamedAllocator@shdfnd@2@@shdfnd@physx@@QEAA@AEBVNamedAllocator@12@@Z 0000000180027400 f i CctCharacterControllerManager.obj
 0001:00026460       ??0?$HashBase@PEAVPxShape@physx@@PEAV12@U?$Hash@PEAVPxShape@physx@@@shdfnd@2@UGetKey@?$HashSetBase@PEAVPxShape@physx@@U?$Hash@PEAVPxShape@physx@@@shdfnd@2@VNonTrackingAllocator@42@$0A@@internal@42@VNonTrackingAllocator@42@$0A@@internal@shdfnd@physx@@QEAA@IM@Z 0000000180027460 f i CctCharacterControllerManager.obj
 0001:000264c0       ??0?$HashBase@V?$Pair@QEBVPxBase@physx@@UObservedRefCounter@Cct@2@@shdfnd@physx@@PEBVPxBase@3@U?$Hash@PEBVPxBase@physx@@@23@UGetKey@?$HashMapBase@PEBVPxBase@physx@@UObservedRefCounter@Cct@2@U?$Hash@PEBVPxBase@physx@@@shdfnd@2@VNonTrackingAllocator@62@@internal@23@VNonTrackingAllocator@23@$00@internal@shdfnd@physx@@QEAA@IM@Z 00000001800274c0 f i CctCharacterControllerManager.obj
 0001:00026520       ??0?$HashMap@PEBVPxBase@physx@@UObservedRefCounter@Cct@2@U?$Hash@PEBVPxBase@physx@@@shdfnd@2@VNonTrackingAllocator@62@@shdfnd@physx@@QEAA@IM@Z 0000000180027520 f i CctCharacterControllerManager.obj
 0001:00026560       ??0?$HashMapBase@PEBVPxBase@physx@@UObservedRefCounter@Cct@2@U?$Hash@PEBVPxBase@physx@@@shdfnd@2@VNonTrackingAllocator@62@@internal@shdfnd@physx@@QEAA@IM@Z 0000000180027560 f i CctCharacterControllerManager.obj
 0001:000265b0       ??0?$HashSet@PEAVPxShape@physx@@U?$Hash@PEAVPxShape@physx@@@shdfnd@2@VNonTrackingAllocator@42@@shdfnd@physx@@QEAA@IM@Z 00000001800275b0 f i CctCharacterControllerManager.obj
 0001:000265f0       ??0?$HashSetBase@PEAVPxShape@physx@@U?$Hash@PEAVPxShape@physx@@@shdfnd@2@VNonTrackingAllocator@42@$0A@@internal@shdfnd@physx@@QEAA@IM@Z 00000001800275f0 f i CctCharacterControllerManager.obj
 0001:00026640       ??0?$MutexT@V?$ReflectionAllocator@VMutexImpl@shdfnd@physx@@@shdfnd@physx@@@shdfnd@physx@@QEAA@AEBV?$ReflectionAllocator@VMutexImpl@shdfnd@physx@@@12@@Z 0000000180027640 f i CctCharacterControllerManager.obj
 0001:000266f0       ??0?$Pair@QEBVPxBase@physx@@UObservedRefCounter@Cct@2@@shdfnd@physx@@QEAA@AEBQEBVPxBase@2@AEBUObservedRefCounter@Cct@2@@Z 00000001800276f0 f i CctCharacterControllerManager.obj
 0001:00026740       ??0?$Pair@QEBVPxBase@physx@@UObservedRefCounter@Cct@2@@shdfnd@physx@@QEAA@AEBV012@@Z 0000000180027740 f i CctCharacterControllerManager.obj
 0001:00026780       ??0?$PxFlags@W4Enum@PxControllerDebugRenderFlag@physx@@I@physx@@QEAA@I@Z 0000000180027780 f i CctCharacterControllerManager.obj
 0001:000267a0       ??0?$PxFlags@W4Enum@PxDeletionEventFlag@physx@@E@physx@@QEAA@W4Enum@PxDeletionEventFlag@1@@Z 00000001800277a0 f i CctCharacterControllerManager.obj
 0001:000267d0       ??0?$ReflectionAllocator@VBoxController@Cct@physx@@@shdfnd@physx@@QEAA@PEBD@Z 00000001800277d0 f i CctCharacterControllerManager.obj
 0001:000267f0       ??0?$ReflectionAllocator@VCapsuleController@Cct@physx@@@shdfnd@physx@@QEAA@PEBD@Z 00000001800277f0 f i CctCharacterControllerManager.obj
 0001:00026810       ??0?$ReflectionAllocator@VCharacterControllerManager@Cct@physx@@@shdfnd@physx@@QEAA@PEBD@Z 0000000180027810 f i CctCharacterControllerManager.obj
 0001:00026830       ??0?$ReflectionAllocator@VMutexImpl@shdfnd@physx@@@shdfnd@physx@@QEAA@AEBV012@@Z 0000000180027830 f i CctCharacterControllerManager.obj
 0001:00026850       ??0?$ReflectionAllocator@VMutexImpl@shdfnd@physx@@@shdfnd@physx@@QEAA@PEBD@Z 0000000180027850 f i CctCharacterControllerManager.obj
 0001:00026870       ??0?$ReflectionAllocator@VObstacleContext@Cct@physx@@@shdfnd@physx@@QEAA@PEBD@Z 0000000180027870 f i CctCharacterControllerManager.obj
 0001:00026890       ??0?$ReflectionAllocator@VRenderBuffer@Cm@physx@@@shdfnd@physx@@QEAA@PEBD@Z 0000000180027890 f i CctCharacterControllerManager.obj
 0001:000268b0       ??0Axes@Gu@physx@@QEAA@W4AxisOrder@12@@Z 00000001800278b0 f i CctCharacterControllerManager.obj
 0001:00026910       ??0ObservedRefCounter@Cct@physx@@QEAA@XZ 0000000180027910 f i CctCharacterControllerManager.obj
 0001:00026930       ??0PxDebugLine@physx@@QEAA@AEBU01@@Z 0000000180027930 f i CctCharacterControllerManager.obj
 0001:000269b0       ??0PxDebugPoint@physx@@QEAA@AEBU01@@Z 00000001800279b0 f i CctCharacterControllerManager.obj
 0001:00026a00       ??0PxDebugText@physx@@QEAA@AEBU01@@Z 0000000180027a00 f i CctCharacterControllerManager.obj
 0001:00026a80       ??0PxDebugTriangle@physx@@QEAA@AEBU01@@Z 0000000180027a80 f i CctCharacterControllerManager.obj
 0001:00026b40       ??0PxDeletionListener@physx@@IEAA@XZ 0000000180027b40 f i CctCharacterControllerManager.obj
 0001:00026b60       ??0PxRenderBuffer@physx@@QEAA@XZ 0000000180027b60 f i CctCharacterControllerManager.obj
 0001:00026b80       ??0RenderBuffer@Cm@physx@@QEAA@XZ 0000000180027b80 f i CctCharacterControllerManager.obj
 0001:00026cf0       ??1?$Array@DVNamedAllocator@shdfnd@physx@@@shdfnd@physx@@QEAA@XZ 0000000180027cf0 f i CctCharacterControllerManager.obj
 0001:00026d70       ??1?$Array@PEAVController@Cct@physx@@VNamedAllocator@shdfnd@3@@shdfnd@physx@@QEAA@XZ 0000000180027d70 f i CctCharacterControllerManager.obj
 0001:00026e00       ??1?$Array@PEAVObstacleContext@Cct@physx@@VNamedAllocator@shdfnd@3@@shdfnd@physx@@QEAA@XZ 0000000180027e00 f i CctCharacterControllerManager.obj
 0001:00026e90       ??1?$Array@PEBXVNamedAllocator@shdfnd@physx@@@shdfnd@physx@@QEAA@XZ 0000000180027e90 f i CctCharacterControllerManager.obj
 0001:00026f20       ??1?$Array@UPxDebugLine@physx@@VNamedAllocator@shdfnd@2@@shdfnd@physx@@QEAA@XZ 0000000180027f20 f i CctCharacterControllerManager.obj
 0001:00026fb0       ??1?$Array@UPxDebugPoint@physx@@VNamedAllocator@shdfnd@2@@shdfnd@physx@@QEAA@XZ 0000000180027fb0 f i CctCharacterControllerManager.obj
 0001:00027040       ??1?$Array@UPxDebugText@physx@@VNamedAllocator@shdfnd@2@@shdfnd@physx@@QEAA@XZ 0000000180028040 f i CctCharacterControllerManager.obj
 0001:000270d0       ??1?$Array@UPxDebugTriangle@physx@@VNamedAllocator@shdfnd@2@@shdfnd@physx@@QEAA@XZ 00000001800280d0 f i CctCharacterControllerManager.obj
 0001:00027160       ??1?$Array@UPxExtendedCapsule@physx@@VNamedAllocator@shdfnd@2@@shdfnd@physx@@QEAA@XZ 0000000180028160 f i CctCharacterControllerManager.obj
 0001:000271f0       ??1?$Array@VPxExtendedBox@physx@@VNamedAllocator@shdfnd@2@@shdfnd@physx@@QEAA@XZ 00000001800281f0 f i CctCharacterControllerManager.obj
 0001:00027280       ??1?$HashBase@PEAVPxShape@physx@@PEAV12@U?$Hash@PEAVPxShape@physx@@@shdfnd@2@UGetKey@?$HashSetBase@PEAVPxShape@physx@@U?$Hash@PEAVPxShape@physx@@@shdfnd@2@VNonTrackingAllocator@42@$0A@@internal@42@VNonTrackingAllocator@42@$0A@@internal@shdfnd@physx@@QEAA@XZ 0000000180028280 f i CctCharacterControllerManager.obj
 0001:000272d0       ??1?$HashBase@V?$Pair@QEBVPxBase@physx@@UObservedRefCounter@Cct@2@@shdfnd@physx@@PEBVPxBase@3@U?$Hash@PEBVPxBase@physx@@@23@UGetKey@?$HashMapBase@PEBVPxBase@physx@@UObservedRefCounter@Cct@2@U?$Hash@PEBVPxBase@physx@@@shdfnd@2@VNonTrackingAllocator@62@@internal@23@VNonTrackingAllocator@23@$00@internal@shdfnd@physx@@QEAA@XZ 00000001800282d0 f i CctCharacterControllerManager.obj
 0001:00027320       ??1?$HashMap@PEBVPxBase@physx@@UObservedRefCounter@Cct@2@U?$Hash@PEBVPxBase@physx@@@shdfnd@2@VNonTrackingAllocator@62@@shdfnd@physx@@QEAA@XZ 0000000180028320 f i CctCharacterControllerManager.obj
 0001:00027340       ??1?$HashMapBase@PEBVPxBase@physx@@UObservedRefCounter@Cct@2@U?$Hash@PEBVPxBase@physx@@@shdfnd@2@VNonTrackingAllocator@62@@internal@shdfnd@physx@@QEAA@XZ 0000000180028340 f i CctCharacterControllerManager.obj
 0001:00027370       ??1?$HashSet@PEAVPxShape@physx@@U?$Hash@PEAVPxShape@physx@@@shdfnd@2@VNonTrackingAllocator@42@@shdfnd@physx@@QEAA@XZ 0000000180028370 f i CctCharacterControllerManager.obj
 0001:00027390       ??1?$HashSetBase@PEAVPxShape@physx@@U?$Hash@PEAVPxShape@physx@@@shdfnd@2@VNonTrackingAllocator@42@$0A@@internal@shdfnd@physx@@QEAA@XZ 0000000180028390 f i CctCharacterControllerManager.obj
 0001:000273c0       ??1?$MutexT@V?$ReflectionAllocator@VMutexImpl@shdfnd@physx@@@shdfnd@physx@@@shdfnd@physx@@QEAA@XZ 00000001800283c0 f i CctCharacterControllerManager.obj
 0001:00027400       ??1Axes@Gu@physx@@QEAA@XZ  0000000180028400 f i CctCharacterControllerManager.obj
 0001:00027410       ??1PxDeletionListener@physx@@MEAA@XZ 0000000180028410 f i CctCharacterControllerManager.obj
 0001:00027430       ??1PxRenderBuffer@physx@@UEAA@XZ 0000000180028430 f i CctCharacterControllerManager.obj
 0001:00027450       ??1RenderBuffer@Cm@physx@@UEAA@XZ 0000000180028450 f i CctCharacterControllerManager.obj
 0001:000274e0       ??4?$PxFlags@W4Enum@PxControllerDebugRenderFlag@physx@@I@physx@@QEAAAEAV01@AEBV01@@Z 00000001800284e0 f i CctCharacterControllerManager.obj
 0001:00027510       ??4PxBounds3@physx@@QEAAAEAV01@$$QEAV01@@Z 0000000180028510 f i CctCharacterControllerManager.obj
 0001:00027570       ??A?$Array@PEAVController@Cct@physx@@VNamedAllocator@shdfnd@3@@shdfnd@physx@@QEAAAEAPEAVController@Cct@2@I@Z 0000000180028570 f i CctCharacterControllerManager.obj
 0001:00027610       ??A?$Array@PEAVController@Cct@physx@@VNamedAllocator@shdfnd@3@@shdfnd@physx@@QEBAAEBQEAVController@Cct@2@I@Z 0000000180028610 f i CctCharacterControllerManager.obj
 0001:000276b0       ??A?$Array@PEAVObstacleContext@Cct@physx@@VNamedAllocator@shdfnd@3@@shdfnd@physx@@QEAAAEAPEAVObstacleContext@Cct@2@I@Z 00000001800286b0 f i CctCharacterControllerManager.obj
 0001:00027750       ??A?$Array@UPxDebugLine@physx@@VNamedAllocator@shdfnd@2@@shdfnd@physx@@QEAAAEAUPxDebugLine@2@I@Z 0000000180028750 f i CctCharacterControllerManager.obj
 0001:000277f0       ??A?$Array@UPxDebugPoint@physx@@VNamedAllocator@shdfnd@2@@shdfnd@physx@@QEAAAEAUPxDebugPoint@2@I@Z 00000001800287f0 f i CctCharacterControllerManager.obj
 0001:00027890       ??A?$Array@UPxDebugText@physx@@VNamedAllocator@shdfnd@2@@shdfnd@physx@@QEAAAEAUPxDebugText@2@I@Z 0000000180028890 f i CctCharacterControllerManager.obj
 0001:00027930       ??A?$Array@UPxDebugTriangle@physx@@VNamedAllocator@shdfnd@2@@shdfnd@physx@@QEAAAEAUPxDebugTriangle@2@I@Z 0000000180028930 f i CctCharacterControllerManager.obj
 0001:000279d0       ??A?$HashMapBase@PEBVPxBase@physx@@UObservedRefCounter@Cct@2@U?$Hash@PEBVPxBase@physx@@@shdfnd@2@VNonTrackingAllocator@62@@internal@shdfnd@physx@@QEAAAEAUObservedRefCounter@Cct@3@AEBQEBVPxBase@3@@Z 00000001800289d0 f i CctCharacterControllerManager.obj
 0001:00027a80       ??APxMat33@physx@@QEBAAEBVPxVec3@1@I@Z 0000000180028a80 f i CctCharacterControllerManager.obj
 0001:00027ab0       ??B?$PxFlags@W4Enum@PxControllerDebugRenderFlag@physx@@I@physx@@QEBA_NXZ 0000000180028ab0 f i CctCharacterControllerManager.obj
 0001:00027ae0       ??R?$Hash@PEBVPxBase@physx@@@shdfnd@physx@@QEBAIAEBQEBVPxBase@2@@Z 0000000180028ae0 f i CctCharacterControllerManager.obj
 0001:00027b10       ??RGetKey@?$HashMapBase@PEBVPxBase@physx@@UObservedRefCounter@Cct@2@U?$Hash@PEBVPxBase@physx@@@shdfnd@2@VNonTrackingAllocator@62@@internal@shdfnd@physx@@QEAAAEBQEBVPxBase@4@AEBV?$Pair@QEBVPxBase@physx@@UObservedRefCounter@Cct@2@@34@@Z 0000000180028b10 f i CctCharacterControllerManager.obj
 0001:00027b24       ??_ECharacterControllerManager@Cct@physx@@W7EAAPEAXI@Z 0000000180028b24 f i CctCharacterControllerManager.obj
 0001:00027b30       ??_GCharacterControllerManager@Cct@physx@@UEAAPEAXI@Z 0000000180028b30 f i CctCharacterControllerManager.obj
 0001:00027b30       ??_ECharacterControllerManager@Cct@physx@@UEAAPEAXI@Z 0000000180028b30 f i CctCharacterControllerManager.obj
 0001:00027ba0       ??_GMutexImpl@shdfnd@physx@@QEAAPEAXI@Z 0000000180028ba0 f i CctCharacterControllerManager.obj
 0001:00027bf0       ??_EPxDeletionListener@physx@@MEAAPEAXI@Z 0000000180028bf0 f i CctCharacterControllerManager.obj
 0001:00027bf0       ??_GPxDeletionListener@physx@@MEAAPEAXI@Z 0000000180028bf0 f i CctCharacterControllerManager.obj
 0001:00027c40       ??_EPxRenderBuffer@physx@@UEAAPEAXI@Z 0000000180028c40 f i CctCharacterControllerManager.obj
 0001:00027c40       ??_GPxRenderBuffer@physx@@UEAAPEAXI@Z 0000000180028c40 f i CctCharacterControllerManager.obj
 0001:00027c90       ??_GRenderBuffer@Cm@physx@@UEAAPEAXI@Z 0000000180028c90 f i CctCharacterControllerManager.obj
 0001:00027c90       ??_ERenderBuffer@Cm@physx@@UEAAPEAXI@Z 0000000180028c90 f i CctCharacterControllerManager.obj
 0001:00027d00       ?allocate@?$Array@PEAVController@Cct@physx@@VNamedAllocator@shdfnd@3@@shdfnd@physx@@IEAAPEAPEAVController@Cct@3@I@Z 0000000180028d00 f i CctCharacterControllerManager.obj
 0001:00027db0       ?allocate@?$Array@PEAVObstacleContext@Cct@physx@@VNamedAllocator@shdfnd@3@@shdfnd@physx@@IEAAPEAPEAVObstacleContext@Cct@3@I@Z 0000000180028db0 f i CctCharacterControllerManager.obj
 0001:00027e60       ?allocate@?$Array@UPxDebugLine@physx@@VNamedAllocator@shdfnd@2@@shdfnd@physx@@IEAAPEAUPxDebugLine@3@I@Z 0000000180028e60 f i CctCharacterControllerManager.obj
 0001:00027f10       ?allocate@?$Array@UPxDebugPoint@physx@@VNamedAllocator@shdfnd@2@@shdfnd@physx@@IEAAPEAUPxDebugPoint@3@I@Z 0000000180028f10 f i CctCharacterControllerManager.obj
 0001:00027fc0       ?allocate@?$Array@UPxDebugText@physx@@VNamedAllocator@shdfnd@2@@shdfnd@physx@@IEAAPEAUPxDebugText@3@I@Z 0000000180028fc0 f i CctCharacterControllerManager.obj
 0001:00028070       ?allocate@?$Array@UPxDebugTriangle@physx@@VNamedAllocator@shdfnd@2@@shdfnd@physx@@IEAAPEAUPxDebugTriangle@3@I@Z 0000000180029070 f i CctCharacterControllerManager.obj
 0001:00028120       ?allocate@?$ReflectionAllocator@VBoxController@Cct@physx@@@shdfnd@physx@@QEAAPEAX_KPEBDH@Z 0000000180029120 f i CctCharacterControllerManager.obj
 0001:000281c0       ?allocate@?$ReflectionAllocator@VCapsuleController@Cct@physx@@@shdfnd@physx@@QEAAPEAX_KPEBDH@Z 00000001800291c0 f i CctCharacterControllerManager.obj
 0001:00028260       ?allocate@?$ReflectionAllocator@VCharacterControllerManager@Cct@physx@@@shdfnd@physx@@QEAAPEAX_KPEBDH@Z 0000000180029260 f i CctCharacterControllerManager.obj
 0001:00028300       ?allocate@?$ReflectionAllocator@VMutexImpl@shdfnd@physx@@@shdfnd@physx@@QEAAPEAX_KPEBDH@Z 0000000180029300 f i CctCharacterControllerManager.obj
 0001:000283a0       ?allocate@?$ReflectionAllocator@VObstacleContext@Cct@physx@@@shdfnd@physx@@QEAAPEAX_KPEBDH@Z 00000001800293a0 f i CctCharacterControllerManager.obj
 0001:00028440       ?allocate@?$ReflectionAllocator@VRenderBuffer@Cm@physx@@@shdfnd@physx@@QEAAPEAX_KPEBDH@Z 0000000180029440 f i CctCharacterControllerManager.obj
 0001:000284e0       ?allocate@NonTrackingAllocator@shdfnd@physx@@QEAAPEAX_KPEBDH@Z 00000001800294e0 f i CctCharacterControllerManager.obj
 0001:00028570       ?append@RenderBuffer@Cm@physx@@UEAAXAEBVPxRenderBuffer@3@@Z 0000000180029570 f i CctCharacterControllerManager.obj
 0001:00028710       ?begin@?$Array@PEAVController@Cct@physx@@VNamedAllocator@shdfnd@3@@shdfnd@physx@@QEAAPEAPEAVController@Cct@3@XZ 0000000180029710 f i CctCharacterControllerManager.obj
 0001:00028730       ?begin@?$Array@UPxDebugLine@physx@@VNamedAllocator@shdfnd@2@@shdfnd@physx@@QEBAPEBUPxDebugLine@3@XZ 0000000180029730 f i CctCharacterControllerManager.obj
 0001:00028750       ?begin@?$Array@UPxDebugPoint@physx@@VNamedAllocator@shdfnd@2@@shdfnd@physx@@QEBAPEBUPxDebugPoint@3@XZ 0000000180029750 f i CctCharacterControllerManager.obj
 0001:00028770       ?begin@?$Array@UPxDebugText@physx@@VNamedAllocator@shdfnd@2@@shdfnd@physx@@QEBAPEBUPxDebugText@3@XZ 0000000180029770 f i CctCharacterControllerManager.obj
 0001:00028790       ?begin@?$Array@UPxDebugTriangle@physx@@VNamedAllocator@shdfnd@2@@shdfnd@physx@@QEBAPEBUPxDebugTriangle@3@XZ 0000000180029790 f i CctCharacterControllerManager.obj
 0001:000287b0       ?capacity@?$Array@DVNamedAllocator@shdfnd@physx@@@shdfnd@physx@@QEBAIXZ 00000001800297b0 f i CctCharacterControllerManager.obj
 0001:000287d0       ?capacity@?$Array@PEAVController@Cct@physx@@VNamedAllocator@shdfnd@3@@shdfnd@physx@@QEBAIXZ 00000001800297d0 f i CctCharacterControllerManager.obj
 0001:000287f0       ?capacity@?$Array@PEAVObstacleContext@Cct@physx@@VNamedAllocator@shdfnd@3@@shdfnd@physx@@QEBAIXZ 00000001800297f0 f i CctCharacterControllerManager.obj
 0001:00028810       ?capacity@?$Array@UPxDebugLine@physx@@VNamedAllocator@shdfnd@2@@shdfnd@physx@@QEBAIXZ 0000000180029810 f i CctCharacterControllerManager.obj
 0001:00028830       ?capacity@?$Array@UPxDebugPoint@physx@@VNamedAllocator@shdfnd@2@@shdfnd@physx@@QEBAIXZ 0000000180029830 f i CctCharacterControllerManager.obj
 0001:00028850       ?capacity@?$Array@UPxDebugText@physx@@VNamedAllocator@shdfnd@2@@shdfnd@physx@@QEBAIXZ 0000000180029850 f i CctCharacterControllerManager.obj
 0001:00028870       ?capacity@?$Array@UPxDebugTriangle@physx@@VNamedAllocator@shdfnd@2@@shdfnd@physx@@QEBAIXZ 0000000180029870 f i CctCharacterControllerManager.obj
 0001:00028890       ?capacityIncrement@?$Array@PEAVController@Cct@physx@@VNamedAllocator@shdfnd@3@@shdfnd@physx@@IEBAIXZ 0000000180029890 f i CctCharacterControllerManager.obj
 0001:000288e0       ?capacityIncrement@?$Array@PEAVObstacleContext@Cct@physx@@VNamedAllocator@shdfnd@3@@shdfnd@physx@@IEBAIXZ 00000001800298e0 f i CctCharacterControllerManager.obj
 0001:00028930       ?capacityIncrement@?$Array@UPxDebugLine@physx@@VNamedAllocator@shdfnd@2@@shdfnd@physx@@IEBAIXZ 0000000180029930 f i CctCharacterControllerManager.obj
 0001:00028980       ?capacityIncrement@?$Array@UPxDebugPoint@physx@@VNamedAllocator@shdfnd@2@@shdfnd@physx@@IEBAIXZ 0000000180029980 f i CctCharacterControllerManager.obj
 0001:000289d0       ?capacityIncrement@?$Array@UPxDebugText@physx@@VNamedAllocator@shdfnd@2@@shdfnd@physx@@IEBAIXZ 00000001800299d0 f i CctCharacterControllerManager.obj
 0001:00028a20       ?capacityIncrement@?$Array@UPxDebugTriangle@physx@@VNamedAllocator@shdfnd@2@@shdfnd@physx@@IEBAIXZ 0000000180029a20 f i CctCharacterControllerManager.obj
 0001:00028a70       ?clear@?$Array@DVNamedAllocator@shdfnd@physx@@@shdfnd@physx@@QEAAXXZ 0000000180029a70 f i CctCharacterControllerManager.obj
 0001:00028ac0       ?clear@?$Array@PEBXVNamedAllocator@shdfnd@physx@@@shdfnd@physx@@QEAAXXZ 0000000180029ac0 f i CctCharacterControllerManager.obj
 0001:00028b10       ?clear@?$Array@UPxDebugLine@physx@@VNamedAllocator@shdfnd@2@@shdfnd@physx@@QEAAXXZ 0000000180029b10 f i CctCharacterControllerManager.obj
 0001:00028b60       ?clear@?$Array@UPxDebugPoint@physx@@VNamedAllocator@shdfnd@2@@shdfnd@physx@@QEAAXXZ 0000000180029b60 f i CctCharacterControllerManager.obj
 0001:00028bb0       ?clear@?$Array@UPxDebugText@physx@@VNamedAllocator@shdfnd@2@@shdfnd@physx@@QEAAXXZ 0000000180029bb0 f i CctCharacterControllerManager.obj
 0001:00028c00       ?clear@?$Array@UPxDebugTriangle@physx@@VNamedAllocator@shdfnd@2@@shdfnd@physx@@QEAAXXZ 0000000180029c00 f i CctCharacterControllerManager.obj
 0001:00028c50       ?clear@?$Array@UPxExtendedCapsule@physx@@VNamedAllocator@shdfnd@2@@shdfnd@physx@@QEAAXXZ 0000000180029c50 f i CctCharacterControllerManager.obj
 0001:00028ca0       ?clear@?$Array@VPxExtendedBox@physx@@VNamedAllocator@shdfnd@2@@shdfnd@physx@@QEAAXXZ 0000000180029ca0 f i CctCharacterControllerManager.obj
 0001:00028cf0       ?clear@RenderBuffer@Cm@physx@@UEAAXXZ 0000000180029cf0 f i CctCharacterControllerManager.obj
 0001:00028d70       ?copy@?$Array@PEAVController@Cct@physx@@VNamedAllocator@shdfnd@3@@shdfnd@physx@@KAXPEAPEAVController@Cct@3@0PEBQEAV453@@Z 0000000180029d70 f i CctCharacterControllerManager.obj
 0001:00028e30       ?copy@?$Array@PEAVObstacleContext@Cct@physx@@VNamedAllocator@shdfnd@3@@shdfnd@physx@@KAXPEAPEAVObstacleContext@Cct@3@0PEBQEAV453@@Z 0000000180029e30 f i CctCharacterControllerManager.obj
 0001:00028ef0       ?copy@?$Array@UPxDebugLine@physx@@VNamedAllocator@shdfnd@2@@shdfnd@physx@@KAXPEAUPxDebugLine@3@0PEBU43@@Z 0000000180029ef0 f i CctCharacterControllerManager.obj
 0001:00028fa0       ?copy@?$Array@UPxDebugPoint@physx@@VNamedAllocator@shdfnd@2@@shdfnd@physx@@KAXPEAUPxDebugPoint@3@0PEBU43@@Z 0000000180029fa0 f i CctCharacterControllerManager.obj
 0001:00029050       ?copy@?$Array@UPxDebugText@physx@@VNamedAllocator@shdfnd@2@@shdfnd@physx@@KAXPEAUPxDebugText@3@0PEBU43@@Z 000000018002a050 f i CctCharacterControllerManager.obj
 0001:00029100       ?copy@?$Array@UPxDebugTriangle@physx@@VNamedAllocator@shdfnd@2@@shdfnd@physx@@KAXPEAUPxDebugTriangle@3@0PEBU43@@Z 000000018002a100 f i CctCharacterControllerManager.obj
 0001:000291b0       ?create@?$Array@PEBXVNamedAllocator@shdfnd@physx@@@shdfnd@physx@@KAXPEAPEBX0AEBQEBX@Z 000000018002a1b0 f i CctCharacterControllerManager.obj
 0001:00029250       ?create@?$Array@UPxExtendedCapsule@physx@@VNamedAllocator@shdfnd@2@@shdfnd@physx@@KAXPEAUPxExtendedCapsule@3@0AEBU43@@Z 000000018002a250 f i CctCharacterControllerManager.obj
 0001:000292f0       ?create@?$Array@VPxExtendedBox@physx@@VNamedAllocator@shdfnd@2@@shdfnd@physx@@KAXPEAVPxExtendedBox@3@0AEBV43@@Z 000000018002a2f0 f i CctCharacterControllerManager.obj
 0001:00029380       ?create@?$HashBase@PEAVPxShape@physx@@PEAV12@U?$Hash@PEAVPxShape@physx@@@shdfnd@2@UGetKey@?$HashSetBase@PEAVPxShape@physx@@U?$Hash@PEAVPxShape@physx@@@shdfnd@2@VNonTrackingAllocator@42@$0A@@internal@42@VNonTrackingAllocator@42@$0A@@internal@shdfnd@physx@@QEAAPEAPEAVPxShape@4@AEBQEAV54@AEA_N@Z 000000018002a380 f i CctCharacterControllerManager.obj
 0001:00029590       ?create@?$HashBase@V?$Pair@QEBVPxBase@physx@@UObservedRefCounter@Cct@2@@shdfnd@physx@@PEBVPxBase@3@U?$Hash@PEBVPxBase@physx@@@23@UGetKey@?$HashMapBase@PEBVPxBase@physx@@UObservedRefCounter@Cct@2@U?$Hash@PEBVPxBase@physx@@@shdfnd@2@VNonTrackingAllocator@62@@internal@23@VNonTrackingAllocator@23@$00@internal@shdfnd@physx@@QEAAPEAV?$Pair@QEBVPxBase@physx@@UObservedRefCounter@Cct@2@@34@AEBQEBVPxBase@4@AEA_N@Z 000000018002a590 f i CctCharacterControllerManager.obj
 0001:000297a0       ?deallocate@?$Array@DVNamedAllocator@shdfnd@physx@@@shdfnd@physx@@IEAAXPEAX@Z 000000018002a7a0 f i CctCharacterControllerManager.obj
 0001:000297d0       ?deallocate@?$Array@PEAVController@Cct@physx@@VNamedAllocator@shdfnd@3@@shdfnd@physx@@IEAAXPEAX@Z 000000018002a7d0 f i CctCharacterControllerManager.obj
 0001:00029800       ?deallocate@?$Array@PEAVObstacleContext@Cct@physx@@VNamedAllocator@shdfnd@3@@shdfnd@physx@@IEAAXPEAX@Z 000000018002a800 f i CctCharacterControllerManager.obj
 0001:00029830       ?deallocate@?$Array@UPxDebugLine@physx@@VNamedAllocator@shdfnd@2@@shdfnd@physx@@IEAAXPEAX@Z 000000018002a830 f i CctCharacterControllerManager.obj
 0001:00029860       ?deallocate@?$Array@UPxDebugPoint@physx@@VNamedAllocator@shdfnd@2@@shdfnd@physx@@IEAAXPEAX@Z 000000018002a860 f i CctCharacterControllerManager.obj
 0001:00029890       ?deallocate@?$Array@UPxDebugText@physx@@VNamedAllocator@shdfnd@2@@shdfnd@physx@@IEAAXPEAX@Z 000000018002a890 f i CctCharacterControllerManager.obj
 0001:000298c0       ?deallocate@?$Array@UPxDebugTriangle@physx@@VNamedAllocator@shdfnd@2@@shdfnd@physx@@IEAAXPEAX@Z 000000018002a8c0 f i CctCharacterControllerManager.obj
 0001:000298f0       ?deallocate@?$ReflectionAllocator@VMutexImpl@shdfnd@physx@@@shdfnd@physx@@QEAAXPEAX@Z 000000018002a8f0 f i CctCharacterControllerManager.obj
 0001:00029940       ?destroy@?$Array@DVNamedAllocator@shdfnd@physx@@@shdfnd@physx@@KAXPEAD0@Z 000000018002a940 f i CctCharacterControllerManager.obj
 0001:00029980       ?destroy@?$Array@PEAVController@Cct@physx@@VNamedAllocator@shdfnd@3@@shdfnd@physx@@KAXPEAPEAVController@Cct@3@0@Z 000000018002a980 f i CctCharacterControllerManager.obj
 0001:000299c0       ?destroy@?$Array@PEAVObstacleContext@Cct@physx@@VNamedAllocator@shdfnd@3@@shdfnd@physx@@KAXPEAPEAVObstacleContext@Cct@3@0@Z 000000018002a9c0 f i CctCharacterControllerManager.obj
 0001:00029a00       ?destroy@?$Array@UPxDebugLine@physx@@VNamedAllocator@shdfnd@2@@shdfnd@physx@@KAXPEAUPxDebugLine@3@0@Z 000000018002aa00 f i CctCharacterControllerManager.obj
 0001:00029a40       ?destroy@?$Array@UPxDebugPoint@physx@@VNamedAllocator@shdfnd@2@@shdfnd@physx@@KAXPEAUPxDebugPoint@3@0@Z 000000018002aa40 f i CctCharacterControllerManager.obj
 0001:00029a80       ?destroy@?$Array@UPxDebugText@physx@@VNamedAllocator@shdfnd@2@@shdfnd@physx@@KAXPEAUPxDebugText@3@0@Z 000000018002aa80 f i CctCharacterControllerManager.obj
 0001:00029ac0       ?destroy@?$Array@UPxDebugTriangle@physx@@VNamedAllocator@shdfnd@2@@shdfnd@physx@@KAXPEAUPxDebugTriangle@3@0@Z 000000018002aac0 f i CctCharacterControllerManager.obj
 0001:00029b00       ?destroy@?$HashBase@PEAVPxShape@physx@@PEAV12@U?$Hash@PEAVPxShape@physx@@@shdfnd@2@UGetKey@?$HashSetBase@PEAVPxShape@physx@@U?$Hash@PEAVPxShape@physx@@@shdfnd@2@VNonTrackingAllocator@42@$0A@@internal@42@VNonTrackingAllocator@42@$0A@@internal@shdfnd@physx@@AEAAXXZ 000000018002ab00 f i CctCharacterControllerManager.obj
 0001:00029b80       ?destroy@?$HashBase@V?$Pair@QEBVPxBase@physx@@UObservedRefCounter@Cct@2@@shdfnd@physx@@PEBVPxBase@3@U?$Hash@PEBVPxBase@physx@@@23@UGetKey@?$HashMapBase@PEBVPxBase@physx@@UObservedRefCounter@Cct@2@U?$Hash@PEBVPxBase@physx@@@shdfnd@2@VNonTrackingAllocator@62@@internal@23@VNonTrackingAllocator@23@$00@internal@shdfnd@physx@@AEAAXXZ 000000018002ab80 f i CctCharacterControllerManager.obj
 0001:00029c00       ?end@?$Array@PEAVObstacleContext@Cct@physx@@VNamedAllocator@shdfnd@3@@shdfnd@physx@@QEAAPEAPEAVObstacleContext@Cct@3@XZ 000000018002ac00 f i CctCharacterControllerManager.obj
 0001:00029c20       ?equal@?$Hash@PEBVPxBase@physx@@@shdfnd@physx@@QEBA_NAEBQEBVPxBase@3@0@Z 000000018002ac20 f i CctCharacterControllerManager.obj
 0001:00029c70       ?erase@?$HashBase@PEAVPxShape@physx@@PEAV12@U?$Hash@PEAVPxShape@physx@@@shdfnd@2@UGetKey@?$HashSetBase@PEAVPxShape@physx@@U?$Hash@PEAVPxShape@physx@@@shdfnd@2@VNonTrackingAllocator@42@$0A@@internal@42@VNonTrackingAllocator@42@$0A@@internal@shdfnd@physx@@QEAA_NAEBQEAVPxShape@4@@Z 000000018002ac70 f i CctCharacterControllerManager.obj
 0001:00029d70       ?erase@?$HashBase@V?$Pair@QEBVPxBase@physx@@UObservedRefCounter@Cct@2@@shdfnd@physx@@PEBVPxBase@3@U?$Hash@PEBVPxBase@physx@@@23@UGetKey@?$HashMapBase@PEBVPxBase@physx@@UObservedRefCounter@Cct@2@U?$Hash@PEBVPxBase@physx@@@shdfnd@2@VNonTrackingAllocator@62@@internal@23@VNonTrackingAllocator@23@$00@internal@shdfnd@physx@@QEAA_NAEBQEBVPxBase@4@@Z 000000018002ad70 f i CctCharacterControllerManager.obj
 0001:00029e70       ?erase@?$HashMapBase@PEBVPxBase@physx@@UObservedRefCounter@Cct@2@U?$Hash@PEBVPxBase@physx@@@shdfnd@2@VNonTrackingAllocator@62@@internal@shdfnd@physx@@QEAA_NAEBQEBVPxBase@4@@Z 000000018002ae70 f i CctCharacterControllerManager.obj
 0001:00029ea0       ?erase@?$HashSetBase@PEAVPxShape@physx@@U?$Hash@PEAVPxShape@physx@@@shdfnd@2@VNonTrackingAllocator@42@$0A@@internal@shdfnd@physx@@QEAA_NAEBQEAVPxShape@4@@Z 000000018002aea0 f i CctCharacterControllerManager.obj
 0001:00029ed0       ?eraseInternal@?$HashBase@PEAVPxShape@physx@@PEAV12@U?$Hash@PEAVPxShape@physx@@@shdfnd@2@UGetKey@?$HashSetBase@PEAVPxShape@physx@@U?$Hash@PEAVPxShape@physx@@@shdfnd@2@VNonTrackingAllocator@42@$0A@@internal@42@VNonTrackingAllocator@42@$0A@@internal@shdfnd@physx@@AEAA_NPEAI@Z 000000018002aed0 f i CctCharacterControllerManager.obj
 0001:00029f70       ?eraseInternal@?$HashBase@V?$Pair@QEBVPxBase@physx@@UObservedRefCounter@Cct@2@@shdfnd@physx@@PEBVPxBase@3@U?$Hash@PEBVPxBase@physx@@@23@UGetKey@?$HashMapBase@PEBVPxBase@physx@@UObservedRefCounter@Cct@2@U?$Hash@PEBVPxBase@physx@@@shdfnd@2@VNonTrackingAllocator@62@@internal@23@VNonTrackingAllocator@23@$00@internal@shdfnd@physx@@AEAA_NPEAI@Z 000000018002af70 f i CctCharacterControllerManager.obj
 0001:0002a020       ?find@?$Array@PEAVObstacleContext@Cct@physx@@VNamedAllocator@shdfnd@3@@shdfnd@physx@@QEAAPEAPEAVObstacleContext@Cct@3@AEBQEAV453@@Z 000000018002b020 f i CctCharacterControllerManager.obj
 0001:0002a0a0       ?find@?$HashBase@V?$Pair@QEBVPxBase@physx@@UObservedRefCounter@Cct@2@@shdfnd@physx@@PEBVPxBase@3@U?$Hash@PEBVPxBase@physx@@@23@UGetKey@?$HashMapBase@PEBVPxBase@physx@@UObservedRefCounter@Cct@2@U?$Hash@PEBVPxBase@physx@@@shdfnd@2@VNonTrackingAllocator@62@@internal@23@VNonTrackingAllocator@23@$00@internal@shdfnd@physx@@QEBAPEBV?$Pair@QEBVPxBase@physx@@UObservedRefCounter@Cct@2@@34@AEBQEBVPxBase@4@@Z 000000018002b0a0 f i CctCharacterControllerManager.obj
 0001:0002a1a0       ?find@?$HashMapBase@PEBVPxBase@physx@@UObservedRefCounter@Cct@2@U?$Hash@PEBVPxBase@physx@@@shdfnd@2@VNonTrackingAllocator@62@@internal@shdfnd@physx@@QEBAPEBV?$Pair@QEBVPxBase@physx@@UObservedRefCounter@Cct@2@@34@AEBQEBVPxBase@4@@Z 000000018002b1a0 f i CctCharacterControllerManager.obj
 0001:0002a1d0       ?findAndReplaceWithLast@?$Array@PEAVObstacleContext@Cct@physx@@VNamedAllocator@shdfnd@3@@shdfnd@physx@@QEAA_NAEBQEAVObstacleContext@Cct@3@@Z 000000018002b1d0 f i CctCharacterControllerManager.obj
 0001:0002a260       ?freeListAdd@?$HashBase@PEAVPxShape@physx@@PEAV12@U?$Hash@PEAVPxShape@physx@@@shdfnd@2@UGetKey@?$HashSetBase@PEAVPxShape@physx@@U?$Hash@PEAVPxShape@physx@@@shdfnd@2@VNonTrackingAllocator@42@$0A@@internal@42@VNonTrackingAllocator@42@$0A@@internal@shdfnd@physx@@AEAAXI@Z 000000018002b260 f i CctCharacterControllerManager.obj
 0001:0002a340       ?freeListAdd@?$HashBase@PEAVPxShape@physx@@PEAV12@U?$Hash@PEAVPxShape@physx@@@shdfnd@2@UGetKey@?$HashSetBase@PEAVPxShape@physx@@U?$Hash@PEAVPxShape@physx@@@shdfnd@2@VNonTrackingAllocator@42@$0A@@internal@42@VNonTrackingAllocator@42@$0A@@internal@shdfnd@physx@@AEAAXII@Z 000000018002b340 f i CctCharacterControllerManager.obj
 0001:0002a470       ?freeListAdd@?$HashBase@V?$Pair@QEBVPxBase@physx@@UObservedRefCounter@Cct@2@@shdfnd@physx@@PEBVPxBase@3@U?$Hash@PEBVPxBase@physx@@@23@UGetKey@?$HashMapBase@PEBVPxBase@physx@@UObservedRefCounter@Cct@2@U?$Hash@PEBVPxBase@physx@@@shdfnd@2@VNonTrackingAllocator@62@@internal@23@VNonTrackingAllocator@23@$00@internal@shdfnd@physx@@AEAAXI@Z 000000018002b470 f i CctCharacterControllerManager.obj
 0001:0002a550       ?freeListAdd@?$HashBase@V?$Pair@QEBVPxBase@physx@@UObservedRefCounter@Cct@2@@shdfnd@physx@@PEBVPxBase@3@U?$Hash@PEBVPxBase@physx@@@23@UGetKey@?$HashMapBase@PEBVPxBase@physx@@UObservedRefCounter@Cct@2@U?$Hash@PEBVPxBase@physx@@@shdfnd@2@VNonTrackingAllocator@62@@internal@23@VNonTrackingAllocator@23@$00@internal@shdfnd@physx@@AEAAXII@Z 000000018002b550 f i CctCharacterControllerManager.obj
 0001:0002a680       ?freeListEmpty@?$HashBase@PEAVPxShape@physx@@PEAV12@U?$Hash@PEAVPxShape@physx@@@shdfnd@2@UGetKey@?$HashSetBase@PEAVPxShape@physx@@U?$Hash@PEAVPxShape@physx@@@shdfnd@2@VNonTrackingAllocator@42@$0A@@internal@42@VNonTrackingAllocator@42@$0A@@internal@shdfnd@physx@@AEBA_NXZ 000000018002b680 f i CctCharacterControllerManager.obj
 0001:0002a700       ?freeListEmpty@?$HashBase@V?$Pair@QEBVPxBase@physx@@UObservedRefCounter@Cct@2@@shdfnd@physx@@PEBVPxBase@3@U?$Hash@PEBVPxBase@physx@@@23@UGetKey@?$HashMapBase@PEBVPxBase@physx@@UObservedRefCounter@Cct@2@U?$Hash@PEBVPxBase@physx@@@shdfnd@2@VNonTrackingAllocator@62@@internal@23@VNonTrackingAllocator@23@$00@internal@shdfnd@physx@@AEBA_NXZ 000000018002b700 f i CctCharacterControllerManager.obj
 0001:0002a780       ?freeListGetNext@?$HashBase@PEAVPxShape@physx@@PEAV12@U?$Hash@PEAVPxShape@physx@@@shdfnd@2@UGetKey@?$HashSetBase@PEAVPxShape@physx@@U?$Hash@PEAVPxShape@physx@@@shdfnd@2@VNonTrackingAllocator@42@$0A@@internal@42@VNonTrackingAllocator@42@$0A@@internal@shdfnd@physx@@AEAAIXZ 000000018002b780 f i CctCharacterControllerManager.obj
 0001:0002a8e0       ?freeListGetNext@?$HashBase@V?$Pair@QEBVPxBase@physx@@UObservedRefCounter@Cct@2@@shdfnd@physx@@PEBVPxBase@3@U?$Hash@PEBVPxBase@physx@@@23@UGetKey@?$HashMapBase@PEBVPxBase@physx@@UObservedRefCounter@Cct@2@U?$Hash@PEBVPxBase@physx@@@shdfnd@2@VNonTrackingAllocator@62@@internal@23@VNonTrackingAllocator@23@$00@internal@shdfnd@physx@@AEAAIXZ 000000018002b8e0 f i CctCharacterControllerManager.obj
 0001:0002aa40       ?getAllocator@Foundation@shdfnd@physx@@QEAAAEAVPxAllocatorCallback@3@XZ 000000018002ba40 f i CctCharacterControllerManager.obj
 0001:0002aa60       ?getAllocatorCallback@Foundation@shdfnd@physx@@UEAAAEAVPxAllocatorCallback@3@XZ 000000018002ba60 f i CctCharacterControllerManager.obj
 0001:0002aa80       ?getErrorCallback@Foundation@shdfnd@physx@@UEAAAEAVPxErrorCallback@3@XZ 000000018002ba80 f i CctCharacterControllerManager.obj
 0001:0002aaa0       ?getErrorLevel@Foundation@shdfnd@physx@@UEBA?AW4Enum@PxErrorCode@3@XZ 000000018002baa0 f i CctCharacterControllerManager.obj
 0001:0002aac0       ?getFoundation@shdfnd@physx@@YAAEAVFoundation@12@XZ 000000018002bac0 f i CctCharacterControllerManager.obj
 0001:0002aae0       ?getInternalErrorCallback@Foundation@shdfnd@physx@@QEAAAEAVPxErrorCallback@3@XZ 000000018002bae0 f i CctCharacterControllerManager.obj
 0001:0002ab00       ?getLines@RenderBuffer@Cm@physx@@UEBAPEBUPxDebugLine@3@XZ 000000018002bb00 f i CctCharacterControllerManager.obj
 0001:0002ab30       ?getName@?$ReflectionAllocator@VBoxController@Cct@physx@@@shdfnd@physx@@CAPEBDXZ 000000018002bb30 f i CctCharacterControllerManager.obj
 0001:0002ab80       ?getName@?$ReflectionAllocator@VCapsuleController@Cct@physx@@@shdfnd@physx@@CAPEBDXZ 000000018002bb80 f i CctCharacterControllerManager.obj
 0001:0002abd0       ?getName@?$ReflectionAllocator@VCharacterControllerManager@Cct@physx@@@shdfnd@physx@@CAPEBDXZ 000000018002bbd0 f i CctCharacterControllerManager.obj
 0001:0002ac20       ?getName@?$ReflectionAllocator@VMutexImpl@shdfnd@physx@@@shdfnd@physx@@CAPEBDXZ 000000018002bc20 f i CctCharacterControllerManager.obj
 0001:0002ac70       ?getName@?$ReflectionAllocator@VObstacleContext@Cct@physx@@@shdfnd@physx@@CAPEBDXZ 000000018002bc70 f i CctCharacterControllerManager.obj
 0001:0002acc0       ?getName@?$ReflectionAllocator@VRenderBuffer@Cm@physx@@@shdfnd@physx@@CAPEBDXZ 000000018002bcc0 f i CctCharacterControllerManager.obj
 0001:0002ad10       ?getNamedAllocMap@Foundation@shdfnd@physx@@QEAAAEAV?$HashMap@PEBVNamedAllocator@shdfnd@physx@@PEBDU?$Hash@PEBVNamedAllocator@shdfnd@physx@@@23@VNonTrackingAllocator@23@@23@XZ 000000018002bd10 f i CctCharacterControllerManager.obj
 0001:0002ad30       ?getNamedAllocMutex@Foundation@shdfnd@physx@@QEAAAEAV?$MutexT@VAllocator@shdfnd@physx@@@23@XZ 000000018002bd30 f i CctCharacterControllerManager.obj
 0001:0002ad50       ?getNbLines@RenderBuffer@Cm@physx@@UEBAIXZ 000000018002bd50 f i CctCharacterControllerManager.obj
 0001:0002ad80       ?getNbPoints@RenderBuffer@Cm@physx@@UEBAIXZ 000000018002bd80 f i CctCharacterControllerManager.obj
 0001:0002adb0       ?getNbTexts@RenderBuffer@Cm@physx@@UEBAIXZ 000000018002bdb0 f i CctCharacterControllerManager.obj
 0001:0002ade0       ?getNbTriangles@RenderBuffer@Cm@physx@@UEBAIXZ 000000018002bde0 f i CctCharacterControllerManager.obj
 0001:0002ae10       ?getPoints@RenderBuffer@Cm@physx@@UEBAPEBUPxDebugPoint@3@XZ 000000018002be10 f i CctCharacterControllerManager.obj
 0001:0002ae40       ?getReportAllocationNames@Foundation@shdfnd@physx@@UEBA_NXZ 000000018002be40 f i CctCharacterControllerManager.obj
 0001:0002ae60       ?getTempAllocFreeTable@Foundation@shdfnd@physx@@QEAAAEAV?$Array@PEATTempAllocatorChunk@shdfnd@physx@@VAllocator@23@@23@XZ 000000018002be60 f i CctCharacterControllerManager.obj
 0001:0002ae80       ?getTempAllocMutex@Foundation@shdfnd@physx@@QEAAAEAV?$MutexT@VAllocator@shdfnd@physx@@@23@XZ 000000018002be80 f i CctCharacterControllerManager.obj
 0001:0002aea0       ?getTexts@RenderBuffer@Cm@physx@@UEBAPEBUPxDebugText@3@XZ 000000018002bea0 f i CctCharacterControllerManager.obj
 0001:0002aed0       ?getTriangles@RenderBuffer@Cm@physx@@UEBAPEBUPxDebugTriangle@3@XZ 000000018002bed0 f i CctCharacterControllerManager.obj
 0001:0002af00       ?getType@PxControllerDesc@physx@@QEBA?AW4Enum@PxControllerShapeType@2@XZ 000000018002bf00 f i CctCharacterControllerManager.obj
 0001:0002af20       ?grow@?$Array@PEBXVNamedAllocator@shdfnd@physx@@@shdfnd@physx@@IEAAXI@Z 000000018002bf20 f i CctCharacterControllerManager.obj
 0001:0002afc0       ?grow@?$Array@UPxDebugLine@physx@@VNamedAllocator@shdfnd@2@@shdfnd@physx@@IEAAXI@Z 000000018002bfc0 f i CctCharacterControllerManager.obj
 0001:0002b060       ?grow@?$Array@UPxDebugPoint@physx@@VNamedAllocator@shdfnd@2@@shdfnd@physx@@IEAAXI@Z 000000018002c060 f i CctCharacterControllerManager.obj
 0001:0002b100       ?grow@?$Array@UPxDebugText@physx@@VNamedAllocator@shdfnd@2@@shdfnd@physx@@IEAAXI@Z 000000018002c100 f i CctCharacterControllerManager.obj
 0001:0002b1a0       ?grow@?$Array@UPxDebugTriangle@physx@@VNamedAllocator@shdfnd@2@@shdfnd@physx@@IEAAXI@Z 000000018002c1a0 f i CctCharacterControllerManager.obj
 0001:0002b240       ?grow@?$Array@UPxExtendedCapsule@physx@@VNamedAllocator@shdfnd@2@@shdfnd@physx@@IEAAXI@Z 000000018002c240 f i CctCharacterControllerManager.obj
 0001:0002b2e0       ?grow@?$Array@VPxExtendedBox@physx@@VNamedAllocator@shdfnd@2@@shdfnd@physx@@IEAAXI@Z 000000018002c2e0 f i CctCharacterControllerManager.obj
 0001:0002b380       ?grow@?$HashBase@PEAVPxShape@physx@@PEAV12@U?$Hash@PEAVPxShape@physx@@@shdfnd@2@UGetKey@?$HashSetBase@PEAVPxShape@physx@@U?$Hash@PEAVPxShape@physx@@@shdfnd@2@VNonTrackingAllocator@42@$0A@@internal@42@VNonTrackingAllocator@42@$0A@@internal@shdfnd@physx@@AEAAXXZ 000000018002c380 f i CctCharacterControllerManager.obj
 0001:0002b450       ?grow@?$HashBase@V?$Pair@QEBVPxBase@physx@@UObservedRefCounter@Cct@2@@shdfnd@physx@@PEBVPxBase@3@U?$Hash@PEBVPxBase@physx@@@23@UGetKey@?$HashMapBase@PEBVPxBase@physx@@UObservedRefCounter@Cct@2@U?$Hash@PEBVPxBase@physx@@@shdfnd@2@VNonTrackingAllocator@62@@internal@23@VNonTrackingAllocator@23@$00@internal@shdfnd@physx@@AEAAXXZ 000000018002c450 f i CctCharacterControllerManager.obj
 0001:0002b530       ?growAndPushBack@?$Array@PEAVController@Cct@physx@@VNamedAllocator@shdfnd@3@@shdfnd@physx@@IEAAAEAPEAVController@Cct@3@AEBQEAV453@@Z 000000018002c530 f i CctCharacterControllerManager.obj
 0001:0002b740       ?growAndPushBack@?$Array@PEAVObstacleContext@Cct@physx@@VNamedAllocator@shdfnd@3@@shdfnd@physx@@IEAAAEAPEAVObstacleContext@Cct@3@AEBQEAV453@@Z 000000018002c740 f i CctCharacterControllerManager.obj
 0001:0002b950       ?growAndPushBack@?$Array@UPxDebugLine@physx@@VNamedAllocator@shdfnd@2@@shdfnd@physx@@IEAAAEAUPxDebugLine@3@AEBU43@@Z 000000018002c950 f i CctCharacterControllerManager.obj
 0001:0002bb60       ?growAndPushBack@?$Array@UPxDebugPoint@physx@@VNamedAllocator@shdfnd@2@@shdfnd@physx@@IEAAAEAUPxDebugPoint@3@AEBU43@@Z 000000018002cb60 f i CctCharacterControllerManager.obj
 0001:0002bd70       ?growAndPushBack@?$Array@UPxDebugText@physx@@VNamedAllocator@shdfnd@2@@shdfnd@physx@@IEAAAEAUPxDebugText@3@AEBU43@@Z 000000018002cd70 f i CctCharacterControllerManager.obj
 0001:0002bf80       ?growAndPushBack@?$Array@UPxDebugTriangle@physx@@VNamedAllocator@shdfnd@2@@shdfnd@physx@@IEAAAEAUPxDebugTriangle@3@AEBU43@@Z 000000018002cf80 f i CctCharacterControllerManager.obj
 0001:0002c190       ?hash@?$HashBase@V?$Pair@QEBVPxBase@physx@@UObservedRefCounter@Cct@2@@shdfnd@physx@@PEBVPxBase@3@U?$Hash@PEBVPxBase@physx@@@23@UGetKey@?$HashMapBase@PEBVPxBase@physx@@UObservedRefCounter@Cct@2@U?$Hash@PEBVPxBase@physx@@@shdfnd@2@VNonTrackingAllocator@62@@internal@23@VNonTrackingAllocator@23@$00@internal@shdfnd@physx@@AEBAIAEBQEBVPxBase@4@@Z 000000018002d190 f i CctCharacterControllerManager.obj
 0001:0002c1d0       ?hash@?$HashBase@V?$Pair@QEBVPxBase@physx@@UObservedRefCounter@Cct@2@@shdfnd@physx@@PEBVPxBase@3@U?$Hash@PEBVPxBase@physx@@@23@UGetKey@?$HashMapBase@PEBVPxBase@physx@@UObservedRefCounter@Cct@2@U?$Hash@PEBVPxBase@physx@@@shdfnd@2@VNonTrackingAllocator@62@@internal@23@VNonTrackingAllocator@23@$00@internal@shdfnd@physx@@AEBAIAEBQEBVPxBase@4@I@Z 000000018002d1d0 f i CctCharacterControllerManager.obj
 0001:0002c210       ?init@?$HashBase@PEAVPxShape@physx@@PEAV12@U?$Hash@PEAVPxShape@physx@@@shdfnd@2@UGetKey@?$HashSetBase@PEAVPxShape@physx@@U?$Hash@PEAVPxShape@physx@@@shdfnd@2@VNonTrackingAllocator@42@$0A@@internal@42@VNonTrackingAllocator@42@$0A@@internal@shdfnd@physx@@AEAAXIM@Z 000000018002d210 f i CctCharacterControllerManager.obj
 0001:0002c2f0       ?init@?$HashBase@V?$Pair@QEBVPxBase@physx@@UObservedRefCounter@Cct@2@@shdfnd@physx@@PEBVPxBase@3@U?$Hash@PEBVPxBase@physx@@@23@UGetKey@?$HashMapBase@PEBVPxBase@physx@@UObservedRefCounter@Cct@2@U?$Hash@PEBVPxBase@physx@@@shdfnd@2@VNonTrackingAllocator@62@@internal@23@VNonTrackingAllocator@23@$00@internal@shdfnd@physx@@AEAAXIM@Z 000000018002d2f0 f i CctCharacterControllerManager.obj
 0001:0002c3d0       ?insert@?$HashSetBase@PEAVPxShape@physx@@U?$Hash@PEAVPxShape@physx@@@shdfnd@2@VNonTrackingAllocator@42@$0A@@internal@shdfnd@physx@@QEAA_NAEBQEAVPxShape@4@@Z 000000018002d3d0 f i CctCharacterControllerManager.obj
 0001:0002c490       ?isInUserMemory@?$Array@DVNamedAllocator@shdfnd@physx@@@shdfnd@physx@@QEBAIXZ 000000018002d490 f i CctCharacterControllerManager.obj
 0001:0002c4b0       ?isInUserMemory@?$Array@PEAVController@Cct@physx@@VNamedAllocator@shdfnd@3@@shdfnd@physx@@QEBAIXZ 000000018002d4b0 f i CctCharacterControllerManager.obj
 0001:0002c4d0       ?isInUserMemory@?$Array@PEAVObstacleContext@Cct@physx@@VNamedAllocator@shdfnd@3@@shdfnd@physx@@QEBAIXZ 000000018002d4d0 f i CctCharacterControllerManager.obj
 0001:0002c4f0       ?isInUserMemory@?$Array@UPxDebugLine@physx@@VNamedAllocator@shdfnd@2@@shdfnd@physx@@QEBAIXZ 000000018002d4f0 f i CctCharacterControllerManager.obj
 0001:0002c510       ?isInUserMemory@?$Array@UPxDebugPoint@physx@@VNamedAllocator@shdfnd@2@@shdfnd@physx@@QEBAIXZ 000000018002d510 f i CctCharacterControllerManager.obj
 0001:0002c530       ?isInUserMemory@?$Array@UPxDebugText@physx@@VNamedAllocator@shdfnd@2@@shdfnd@physx@@QEBAIXZ 000000018002d530 f i CctCharacterControllerManager.obj
 0001:0002c550       ?isInUserMemory@?$Array@UPxDebugTriangle@physx@@VNamedAllocator@shdfnd@2@@shdfnd@physx@@QEBAIXZ 000000018002d550 f i CctCharacterControllerManager.obj
 0001:0002c570       ?isPowerOfTwo@shdfnd@physx@@YA_NI@Z 000000018002d570 f i CctCharacterControllerManager.obj
 0001:0002c5c0       ?memCopy@intrinsics@physx@@YAPEAXPEAXPEBXI@Z 000000018002d5c0 f i CctCharacterControllerManager.obj
 0001:0002c600       ?memSet@intrinsics@physx@@YAPEAXPEAXHI@Z 000000018002d600 f i CctCharacterControllerManager.obj
 0001:0002c640       ?name@type_info@@QEBAPEBDXZ 000000018002d640 f i CctCharacterControllerManager.obj
 0001:0002c670       ?nextPowerOfTwo@shdfnd@physx@@YAII@Z 000000018002d670 f i CctCharacterControllerManager.obj
 0001:0002c700       ?pushBack@?$Array@PEAVController@Cct@physx@@VNamedAllocator@shdfnd@3@@shdfnd@physx@@QEAAAEAPEAVController@Cct@3@AEBQEAV453@@Z 000000018002d700 f i CctCharacterControllerManager.obj
 0001:0002c7f0       ?pushBack@?$Array@PEAVObstacleContext@Cct@physx@@VNamedAllocator@shdfnd@3@@shdfnd@physx@@QEAAAEAPEAVObstacleContext@Cct@3@AEBQEAV453@@Z 000000018002d7f0 f i CctCharacterControllerManager.obj
 0001:0002c8e0       ?pushBack@?$Array@UPxDebugLine@physx@@VNamedAllocator@shdfnd@2@@shdfnd@physx@@QEAAAEAUPxDebugLine@3@AEBU43@@Z 000000018002d8e0 f i CctCharacterControllerManager.obj
 0001:0002c9d0       ?pushBack@?$Array@UPxDebugPoint@physx@@VNamedAllocator@shdfnd@2@@shdfnd@physx@@QEAAAEAUPxDebugPoint@3@AEBU43@@Z 000000018002d9d0 f i CctCharacterControllerManager.obj
 0001:0002cac0       ?pushBack@?$Array@UPxDebugText@physx@@VNamedAllocator@shdfnd@2@@shdfnd@physx@@QEAAAEAUPxDebugText@3@AEBU43@@Z 000000018002dac0 f i CctCharacterControllerManager.obj
 0001:0002cbb0       ?pushBack@?$Array@UPxDebugTriangle@physx@@VNamedAllocator@shdfnd@2@@shdfnd@physx@@QEAAAEAUPxDebugTriangle@3@AEBU43@@Z 000000018002dbb0 f i CctCharacterControllerManager.obj
 0001:0002cca0       ?recreate@?$Array@PEBXVNamedAllocator@shdfnd@physx@@@shdfnd@physx@@IEAAXI@Z 000000018002dca0 f i CctCharacterControllerManager.obj
 0001:0002cdf0       ?recreate@?$Array@UPxDebugLine@physx@@VNamedAllocator@shdfnd@2@@shdfnd@physx@@IEAAXI@Z 000000018002ddf0 f i CctCharacterControllerManager.obj
 0001:0002cf50       ?recreate@?$Array@UPxDebugPoint@physx@@VNamedAllocator@shdfnd@2@@shdfnd@physx@@IEAAXI@Z 000000018002df50 f i CctCharacterControllerManager.obj
 0001:0002d0b0       ?recreate@?$Array@UPxDebugText@physx@@VNamedAllocator@shdfnd@2@@shdfnd@physx@@IEAAXI@Z 000000018002e0b0 f i CctCharacterControllerManager.obj
 0001:0002d210       ?recreate@?$Array@UPxDebugTriangle@physx@@VNamedAllocator@shdfnd@2@@shdfnd@physx@@IEAAXI@Z 000000018002e210 f i CctCharacterControllerManager.obj
 0001:0002d370       ?recreate@?$Array@UPxExtendedCapsule@physx@@VNamedAllocator@shdfnd@2@@shdfnd@physx@@IEAAXI@Z 000000018002e370 f i CctCharacterControllerManager.obj
 0001:0002d4d0       ?recreate@?$Array@VPxExtendedBox@physx@@VNamedAllocator@shdfnd@2@@shdfnd@physx@@IEAAXI@Z 000000018002e4d0 f i CctCharacterControllerManager.obj
 0001:0002d630       ?replaceWithLast@?$Array@PEAVController@Cct@physx@@VNamedAllocator@shdfnd@3@@shdfnd@physx@@QEAAXI@Z 000000018002e630 f i CctCharacterControllerManager.obj
 0001:0002d700       ?replaceWithLast@?$Array@PEAVObstacleContext@Cct@physx@@VNamedAllocator@shdfnd@3@@shdfnd@physx@@QEAAXI@Z 000000018002e700 f i CctCharacterControllerManager.obj
 0001:0002d7d0       ?replaceWithLast@?$HashBase@PEAVPxShape@physx@@PEAV12@U?$Hash@PEAVPxShape@physx@@@shdfnd@2@UGetKey@?$HashSetBase@PEAVPxShape@physx@@U?$Hash@PEAVPxShape@physx@@@shdfnd@2@VNonTrackingAllocator@42@$0A@@internal@42@VNonTrackingAllocator@42@$0A@@internal@shdfnd@physx@@AEAAXI@Z 000000018002e7d0 f i CctCharacterControllerManager.obj
 0001:0002d990       ?replaceWithLast@?$HashBase@V?$Pair@QEBVPxBase@physx@@UObservedRefCounter@Cct@2@@shdfnd@physx@@PEBVPxBase@3@U?$Hash@PEBVPxBase@physx@@@23@UGetKey@?$HashMapBase@PEBVPxBase@physx@@UObservedRefCounter@Cct@2@U?$Hash@PEBVPxBase@physx@@@shdfnd@2@VNonTrackingAllocator@62@@internal@23@VNonTrackingAllocator@23@$00@internal@shdfnd@physx@@AEAAXI@Z 000000018002e990 f i CctCharacterControllerManager.obj
 0001:0002db50       ?reserve@?$Array@PEBXVNamedAllocator@shdfnd@physx@@@shdfnd@physx@@QEAAXI@Z 000000018002eb50 f i CctCharacterControllerManager.obj
 0001:0002db90       ?reserve@?$Array@UPxDebugLine@physx@@VNamedAllocator@shdfnd@2@@shdfnd@physx@@QEAAXI@Z 000000018002eb90 f i CctCharacterControllerManager.obj
 0001:0002dbd0       ?reserve@?$Array@UPxDebugPoint@physx@@VNamedAllocator@shdfnd@2@@shdfnd@physx@@QEAAXI@Z 000000018002ebd0 f i CctCharacterControllerManager.obj
 0001:0002dc10       ?reserve@?$Array@UPxDebugText@physx@@VNamedAllocator@shdfnd@2@@shdfnd@physx@@QEAAXI@Z 000000018002ec10 f i CctCharacterControllerManager.obj
 0001:0002dc50       ?reserve@?$Array@UPxDebugTriangle@physx@@VNamedAllocator@shdfnd@2@@shdfnd@physx@@QEAAXI@Z 000000018002ec50 f i CctCharacterControllerManager.obj
 0001:0002dc90       ?reserve@?$Array@UPxExtendedCapsule@physx@@VNamedAllocator@shdfnd@2@@shdfnd@physx@@QEAAXI@Z 000000018002ec90 f i CctCharacterControllerManager.obj
 0001:0002dcd0       ?reserve@?$Array@VPxExtendedBox@physx@@VNamedAllocator@shdfnd@2@@shdfnd@physx@@QEAAXI@Z 000000018002ecd0 f i CctCharacterControllerManager.obj
 0001:0002dd10       ?reserve@?$HashBase@PEAVPxShape@physx@@PEAV12@U?$Hash@PEAVPxShape@physx@@@shdfnd@2@UGetKey@?$HashSetBase@PEAVPxShape@physx@@U?$Hash@PEAVPxShape@physx@@@shdfnd@2@VNonTrackingAllocator@42@$0A@@internal@42@VNonTrackingAllocator@42@$0A@@internal@shdfnd@physx@@QEAAXI@Z 000000018002ed10 f i CctCharacterControllerManager.obj
 0001:0002dd50       ?reserve@?$HashBase@V?$Pair@QEBVPxBase@physx@@UObservedRefCounter@Cct@2@@shdfnd@physx@@PEBVPxBase@3@U?$Hash@PEBVPxBase@physx@@@23@UGetKey@?$HashMapBase@PEBVPxBase@physx@@UObservedRefCounter@Cct@2@U?$Hash@PEBVPxBase@physx@@@shdfnd@2@VNonTrackingAllocator@62@@internal@23@VNonTrackingAllocator@23@$00@internal@shdfnd@physx@@QEAAXI@Z 000000018002ed50 f i CctCharacterControllerManager.obj
 0001:0002dd90       ?reserveInternal@?$HashBase@PEAVPxShape@physx@@PEAV12@U?$Hash@PEAVPxShape@physx@@@shdfnd@2@UGetKey@?$HashSetBase@PEAVPxShape@physx@@U?$Hash@PEAVPxShape@physx@@@shdfnd@2@VNonTrackingAllocator@42@$0A@@internal@42@VNonTrackingAllocator@42@$0A@@internal@shdfnd@physx@@AEAAXI@Z 000000018002ed90 f i CctCharacterControllerManager.obj
 0001:0002e540       ?reserveInternal@?$HashBase@V?$Pair@QEBVPxBase@physx@@UObservedRefCounter@Cct@2@@shdfnd@physx@@PEBVPxBase@3@U?$Hash@PEBVPxBase@physx@@@23@UGetKey@?$HashMapBase@PEBVPxBase@physx@@UObservedRefCounter@Cct@2@U?$Hash@PEBVPxBase@physx@@@shdfnd@2@VNonTrackingAllocator@62@@internal@23@VNonTrackingAllocator@23@$00@internal@shdfnd@physx@@AEAAXI@Z 000000018002f540 f i CctCharacterControllerManager.obj
 0001:0002ec40       ?reset@?$Array@PEBXVNamedAllocator@shdfnd@physx@@@shdfnd@physx@@QEAAXXZ 000000018002fc40 f i CctCharacterControllerManager.obj
 0001:0002ec80       ?reset@?$Array@UPxExtendedCapsule@physx@@VNamedAllocator@shdfnd@2@@shdfnd@physx@@QEAAXXZ 000000018002fc80 f i CctCharacterControllerManager.obj
 0001:0002ece0       ?reset@?$Array@VPxExtendedBox@physx@@VNamedAllocator@shdfnd@2@@shdfnd@physx@@QEAAXXZ 000000018002fce0 f i CctCharacterControllerManager.obj
 0001:0002ed30       ?resize@?$Array@PEBXVNamedAllocator@shdfnd@physx@@@shdfnd@physx@@QEAAXIAEBQEBX@Z 000000018002fd30 f i CctCharacterControllerManager.obj
 0001:0002edf0       ?resize@?$Array@UPxExtendedCapsule@physx@@VNamedAllocator@shdfnd@2@@shdfnd@physx@@QEAAXIAEBUPxExtendedCapsule@3@@Z 000000018002fdf0 f i CctCharacterControllerManager.obj
 0001:0002eeb0       ?resize@?$Array@VPxExtendedBox@physx@@VNamedAllocator@shdfnd@2@@shdfnd@physx@@QEAAXIAEBVPxExtendedBox@3@@Z 000000018002feb0 f i CctCharacterControllerManager.obj
 0001:0002ef70       ?setCctManager@?$TouchedObject@VPxRigidActor@physx@@@Cct@physx@@QEAAXPEAVCharacterControllerManager@23@@Z 000000018002ff70 f i CctCharacterControllerManager.obj
 0001:0002ef90       ?setCctManager@?$TouchedObject@VPxShape@physx@@@Cct@physx@@QEAAXPEAVCharacterControllerManager@23@@Z 000000018002ff90 f i CctCharacterControllerManager.obj
 0001:0002efb0       ?setCctManager@Controller@Cct@physx@@QEAAXPEAVCharacterControllerManager@23@@Z 000000018002ffb0 f i CctCharacterControllerManager.obj
 0001:0002f000       ?setCctManager@SweepTest@Cct@physx@@QEAAXPEAVCharacterControllerManager@23@@Z 0000000180030000 f i CctCharacterControllerManager.obj
 0001:0002f070       ?setErrorLevel@Foundation@shdfnd@physx@@UEAAXW4Enum@PxErrorCode@3@@Z 0000000180030070 f i CctCharacterControllerManager.obj
 0001:0002f090       ?setReportAllocationNames@Foundation@shdfnd@physx@@UEAAX_N@Z 0000000180030090 f i CctCharacterControllerManager.obj
 0001:0002f0b0       ?shift@RenderBuffer@Cm@physx@@QEAAXAEBVPxVec3@3@@Z 00000001800300b0 f i CctCharacterControllerManager.obj
 0001:0002f2f0       ?shrink@?$Array@PEBXVNamedAllocator@shdfnd@physx@@@shdfnd@physx@@QEAAXXZ 00000001800302f0 f i CctCharacterControllerManager.obj
 0001:0002f320       ?shrink@?$Array@UPxExtendedCapsule@physx@@VNamedAllocator@shdfnd@2@@shdfnd@physx@@QEAAXXZ 0000000180030320 f i CctCharacterControllerManager.obj
 0001:0002f350       ?shrink@?$Array@VPxExtendedBox@physx@@VNamedAllocator@shdfnd@2@@shdfnd@physx@@QEAAXXZ 0000000180030350 f i CctCharacterControllerManager.obj
 0001:0002f380       ?size@?$Array@PEAVController@Cct@physx@@VNamedAllocator@shdfnd@3@@shdfnd@physx@@QEBAIXZ 0000000180030380 f i CctCharacterControllerManager.obj
 0001:0002f3a0       ?size@?$Array@PEAVObstacleContext@Cct@physx@@VNamedAllocator@shdfnd@3@@shdfnd@physx@@QEBAIXZ 00000001800303a0 f i CctCharacterControllerManager.obj
 0001:0002f3c0       ?size@?$Array@UPxDebugLine@physx@@VNamedAllocator@shdfnd@2@@shdfnd@physx@@QEBAIXZ 00000001800303c0 f i CctCharacterControllerManager.obj
 0001:0002f3e0       ?size@?$Array@UPxDebugPoint@physx@@VNamedAllocator@shdfnd@2@@shdfnd@physx@@QEBAIXZ 00000001800303e0 f i CctCharacterControllerManager.obj
 0001:0002f400       ?size@?$Array@UPxDebugText@physx@@VNamedAllocator@shdfnd@2@@shdfnd@physx@@QEBAIXZ 0000000180030400 f i CctCharacterControllerManager.obj
 0001:0002f420       ?size@?$Array@UPxDebugTriangle@physx@@VNamedAllocator@shdfnd@2@@shdfnd@physx@@QEBAIXZ 0000000180030420 f i CctCharacterControllerManager.obj
 0001:0002f440       ??0Controller@Cct@physx@@QEAA@AEBVPxControllerDesc@2@PEAVPxScene@2@@Z 0000000180030440 f   CctController.obj
 0001:0002f770       ??1Controller@Cct@physx@@UEAA@XZ 0000000180030770 f   CctController.obj
 0001:0002f800       ?releaseInternal@Controller@Cct@physx@@QEAAXXZ 0000000180030800 f   CctController.obj
 0001:0002f840       ?getInternalState@Controller@Cct@physx@@QEBAXAEAUPxControllerState@3@@Z 0000000180030840 f   CctController.obj
 0001:0002f9c0       ?getInternalStats@Controller@Cct@physx@@QEBAXAEAUPxControllerStats@3@@Z 00000001800309c0 f   CctController.obj
 0001:0002fa30       ?onOriginShift@Controller@Cct@physx@@QEAAXAEBVPxVec3@3@@Z 0000000180030a30 f   CctController.obj
 0001:0002faf0       ?onRelease@Controller@Cct@physx@@QEAAXAEBVPxBase@3@@Z 0000000180030af0 f   CctController.obj
 0001:0002fb20       ?setUpDirectionInternal@Controller@Cct@physx@@IEAAXAEBVPxVec3@3@@Z 0000000180030b20 f   CctController.obj
 0001:0002fbf0       ?getKineShape@Controller@Cct@physx@@IEBAPEAVPxShape@3@XZ 0000000180030bf0 f   CctController.obj
 0001:0002fca0       ?createProxyActor@Controller@Cct@physx@@IEAA_NAEAVPxPhysics@3@AEBVPxGeometry@3@AEBVPxMaterial@3@@Z 0000000180030ca0 f   CctController.obj
 0001:0002fe80       ?setPos@Controller@Cct@physx@@IEAA_NAEBUPxExtendedVec3@3@@Z 0000000180030e80 f   CctController.obj
 0001:00030210       ??0?$PxFlags@W4Enum@PxShapeFlag@physx@@E@physx@@QEAA@W4Enum@PxShapeFlag@1@@Z 0000000180031210 f i CctController.obj
 0001:00030240       ??8PxVec3@physx@@QEBA_NAEBV01@@Z 0000000180031240 f i CctController.obj
 0001:000302c0       ??B?$PxFlags@W4Enum@PxControllerCollisionFlag@physx@@E@physx@@QEBAIXZ 00000001800312c0 f i CctController.obj
 0001:000302e0       ??U?$PxFlags@W4Enum@PxShapeFlag@physx@@E@physx@@QEBA?AV01@W4Enum@PxShapeFlag@1@@Z 00000001800312e0 f i CctController.obj
 0001:00030340       ??Uphysx@@YA?AV?$PxFlags@W4Enum@PxShapeFlag@physx@@E@0@W4Enum@PxShapeFlag@0@0@Z 0000000180031340 f i CctController.obj
 0001:000303a0       ??_5?$PxFlags@W4Enum@PxShapeFlag@physx@@E@physx@@QEAAAEAV01@W4Enum@PxShapeFlag@1@@Z 00000001800313a0 f i CctController.obj
 0001:000303d0       ??_GController@Cct@physx@@UEAAPEAXI@Z 00000001800313d0 f i CctController.obj
 0001:000303d0       ??_EController@Cct@physx@@UEAAPEAXI@Z 00000001800313d0 f i CctController.obj
 0001:00030440       ?createShape@PxPhysics@physx@@QEAAPEAVPxShape@2@AEBVPxGeometry@2@AEBVPxMaterial@2@_NV?$PxFlags@W4Enum@PxShapeFlag@physx@@E@2@@Z 0000000180031440 f i CctController.obj
 0001:000304e0       ?isNormalized@PxVec3@physx@@QEBA_NXZ 00000001800314e0 f i CctController.obj
 0001:00030560       ??0HandleManager@Cct@physx@@QEAA@XZ 0000000180031560 f   CctObstacleContext.obj
 0001:00030740       ??1HandleManager@Cct@physx@@QEAA@XZ 0000000180031740 f   CctObstacleContext.obj
 0001:00030770       ?Add@HandleManager@Cct@physx@@QEAAIPEAX@Z 0000000180031770 f   CctObstacleContext.obj
 0001:00030c90       ?Remove@HandleManager@Cct@physx@@QEAAXI@Z 0000000180031c90 f   CctObstacleContext.obj
 0001:00030e20       ?GetObject@HandleManager@Cct@physx@@QEBAPEAXI@Z 0000000180031e20 f   CctObstacleContext.obj
 0001:00030ec0       ?UpdateObject@HandleManager@Cct@physx@@QEAA_NIPEAX@Z 0000000180031ec0 f   CctObstacleContext.obj
 0001:00030f70       ?SetupLists@HandleManager@Cct@physx@@AEAA_NPEAPEAXPEAG11@Z 0000000180031f70 f   CctObstacleContext.obj
 0001:00031080       ??0ObstacleContext@Cct@physx@@QEAA@AEAVCharacterControllerManager@12@@Z 0000000180032080 f   CctObstacleContext.obj
 0001:00031130       ??1ObstacleContext@Cct@physx@@UEAA@XZ 0000000180032130 f   CctObstacleContext.obj
 0001:00031190       ?release@ObstacleContext@Cct@physx@@UEAAXXZ 0000000180032190 f   CctObstacleContext.obj
 0001:000311c0       ?getControllerManager@ObstacleContext@Cct@physx@@UEBAAEAVPxControllerManager@3@XZ 00000001800321c0 f   CctObstacleContext.obj
 0001:000311e0       ?addObstacle@ObstacleContext@Cct@physx@@UEAAIAEBVPxObstacle@3@@Z 00000001800321e0 f   CctObstacleContext.obj
 0001:00031350       ?removeObstacle@ObstacleContext@Cct@physx@@UEAA_NI@Z 0000000180032350 f   CctObstacleContext.obj
 0001:00031580       ?updateObstacle@ObstacleContext@Cct@physx@@UEAA_NIAEBVPxObstacle@3@@Z 0000000180032580 f   CctObstacleContext.obj
 0001:000317f0       ?getNbObstacles@ObstacleContext@Cct@physx@@UEBAIXZ 00000001800327f0 f   CctObstacleContext.obj
 0001:00031830       ?getObstacle@ObstacleContext@Cct@physx@@UEBAPEBVPxObstacle@3@I@Z 0000000180032830 f   CctObstacleContext.obj
 0001:000318d0       ?getObstacleByHandle@ObstacleContext@Cct@physx@@UEBAPEBVPxObstacle@3@I@Z 00000001800328d0 f   CctObstacleContext.obj
 0001:00031aa0       ?raycastSingle@ObstacleContext@Cct@physx@@QEBAPEBVPxObstacle@3@AEAUPxRaycastHit@3@AEBVPxVec3@3@1MAEAI@Z 0000000180032aa0 f   CctObstacleContext.obj
 0001:00031f70       ?raycastSingle@ObstacleContext@Cct@physx@@QEBAPEBVPxObstacle@3@AEAUPxRaycastHit@3@AEBIAEBVPxVec3@3@2M@Z 0000000180032f70 f   CctObstacleContext.obj
 0001:00032300       ?onOriginShift@ObstacleContext@Cct@physx@@QEAAXAEBVPxVec3@3@@Z 0000000180033300 f   CctObstacleContext.obj
 0001:00032ea0       ??$PX_UNUSED@_N@@YAXAEB_N@Z 0000000180033ea0 f i CctObstacleContext.obj
 0001:00032eb0       ??0?$Array@UInternalBoxObstacle@ObstacleContext@Cct@physx@@VNamedAllocator@shdfnd@4@@shdfnd@physx@@QEAA@AEBVNamedAllocator@12@@Z 0000000180033eb0 f i CctObstacleContext.obj
 0001:00032f10       ??0?$Array@UInternalCapsuleObstacle@ObstacleContext@Cct@physx@@VNamedAllocator@shdfnd@4@@shdfnd@physx@@QEAA@AEBVNamedAllocator@12@@Z 0000000180033f10 f i CctObstacleContext.obj
 0001:00032f70       ??0InternalBoxObstacle@ObstacleContext@Cct@physx@@QEAA@AEBU0123@@Z 0000000180033f70 f i CctObstacleContext.obj
 0001:00032fc0       ??0InternalBoxObstacle@ObstacleContext@Cct@physx@@QEAA@IAEBVPxBoxObstacle@3@@Z 0000000180033fc0 f i CctObstacleContext.obj
 0001:00033010       ??0InternalCapsuleObstacle@ObstacleContext@Cct@physx@@QEAA@AEBU0123@@Z 0000000180034010 f i CctObstacleContext.obj
 0001:00033060       ??0InternalCapsuleObstacle@ObstacleContext@Cct@physx@@QEAA@IAEBVPxCapsuleObstacle@3@@Z 0000000180034060 f i CctObstacleContext.obj
 0001:000330b0       ??0PxBoxObstacle@physx@@QEAA@AEBV01@@Z 00000001800340b0 f i CctObstacleContext.obj
 0001:00033110       ??0PxCapsuleObstacle@physx@@QEAA@AEBV01@@Z 0000000180034110 f i CctObstacleContext.obj
 0001:00033180       ??0PxObstacle@physx@@QEAA@AEBV01@@Z 0000000180034180 f i CctObstacleContext.obj
 0001:00033210       ??0PxObstacleContext@physx@@QEAA@XZ 0000000180034210 f i CctObstacleContext.obj
 0001:00033230       ??1?$Array@UInternalBoxObstacle@ObstacleContext@Cct@physx@@VNamedAllocator@shdfnd@4@@shdfnd@physx@@QEAA@XZ 0000000180034230 f i CctObstacleContext.obj
 0001:000332c0       ??1?$Array@UInternalCapsuleObstacle@ObstacleContext@Cct@physx@@VNamedAllocator@shdfnd@4@@shdfnd@physx@@QEAA@XZ 00000001800342c0 f i CctObstacleContext.obj
 0001:00033350       ??1PxObstacleContext@physx@@UEAA@XZ 0000000180034350 f i CctObstacleContext.obj
 0001:00033370       ??4InternalBoxObstacle@ObstacleContext@Cct@physx@@QEAAAEAU0123@AEBU0123@@Z 0000000180034370 f i CctObstacleContext.obj
 0001:000333c0       ??4InternalCapsuleObstacle@ObstacleContext@Cct@physx@@QEAAAEAU0123@AEBU0123@@Z 00000001800343c0 f i CctObstacleContext.obj
 0001:00033410       ??4PxBoxObstacle@physx@@QEAAAEAV01@AEBV01@@Z 0000000180034410 f i CctObstacleContext.obj
 0001:00033470       ??4PxCapsuleObstacle@physx@@QEAAAEAV01@AEBV01@@Z 0000000180034470 f i CctObstacleContext.obj
 0001:000334e0       ??4PxObstacle@physx@@QEAAAEAV01@AEBV01@@Z 00000001800344e0 f i CctObstacleContext.obj
 0001:00033570       ??A?$Array@UInternalBoxObstacle@ObstacleContext@Cct@physx@@VNamedAllocator@shdfnd@4@@shdfnd@physx@@QEAAAEAUInternalBoxObstacle@ObstacleContext@Cct@2@I@Z 0000000180034570 f i CctObstacleContext.obj
 0001:00033610       ??A?$Array@UInternalCapsuleObstacle@ObstacleContext@Cct@physx@@VNamedAllocator@shdfnd@4@@shdfnd@physx@@QEAAAEAUInternalCapsuleObstacle@ObstacleContext@Cct@2@I@Z 0000000180034610 f i CctObstacleContext.obj
 0001:000336b0       ??_EObstacleContext@Cct@physx@@UEAAPEAXI@Z 00000001800346b0 f i CctObstacleContext.obj
 0001:000336b0       ??_GObstacleContext@Cct@physx@@UEAAPEAXI@Z 00000001800346b0 f i CctObstacleContext.obj
 0001:00033720       ??_EPxObstacleContext@physx@@UEAAPEAXI@Z 0000000180034720 f i CctObstacleContext.obj
 0001:00033720       ??_GPxObstacleContext@physx@@UEAAPEAXI@Z 0000000180034720 f i CctObstacleContext.obj
 0001:00033770       ?PxMemCopy@physx@@YAPEAXPEAXPEBXI@Z 0000000180034770 f i CctObstacleContext.obj
 0001:000337b0       ?PxMemSet@physx@@YAPEAXPEAXHI@Z 00000001800347b0 f i CctObstacleContext.obj
 0001:000337f0       ?PxMemZero@physx@@YAPEAXPEAXI@Z 00000001800347f0 f i CctObstacleContext.obj
 0001:00033820       ?allocate@?$Array@UInternalBoxObstacle@ObstacleContext@Cct@physx@@VNamedAllocator@shdfnd@4@@shdfnd@physx@@IEAAPEAUInternalBoxObstacle@ObstacleContext@Cct@3@I@Z 0000000180034820 f i CctObstacleContext.obj
 0001:000338d0       ?allocate@?$Array@UInternalCapsuleObstacle@ObstacleContext@Cct@physx@@VNamedAllocator@shdfnd@4@@shdfnd@physx@@IEAAPEAUInternalCapsuleObstacle@ObstacleContext@Cct@3@I@Z 00000001800348d0 f i CctObstacleContext.obj
 0001:00033980       ?capacity@?$Array@UInternalBoxObstacle@ObstacleContext@Cct@physx@@VNamedAllocator@shdfnd@4@@shdfnd@physx@@QEBAIXZ 0000000180034980 f i CctObstacleContext.obj
 0001:000339a0       ?capacity@?$Array@UInternalCapsuleObstacle@ObstacleContext@Cct@physx@@VNamedAllocator@shdfnd@4@@shdfnd@physx@@QEBAIXZ 00000001800349a0 f i CctObstacleContext.obj
 0001:000339c0       ?capacityIncrement@?$Array@UInternalBoxObstacle@ObstacleContext@Cct@physx@@VNamedAllocator@shdfnd@4@@shdfnd@physx@@IEBAIXZ 00000001800349c0 f i CctObstacleContext.obj
 0001:00033a10       ?capacityIncrement@?$Array@UInternalCapsuleObstacle@ObstacleContext@Cct@physx@@VNamedAllocator@shdfnd@4@@shdfnd@physx@@IEBAIXZ 0000000180034a10 f i CctObstacleContext.obj
 0001:00033a60       ?copy@?$Array@UInternalBoxObstacle@ObstacleContext@Cct@physx@@VNamedAllocator@shdfnd@4@@shdfnd@physx@@KAXPEAUInternalBoxObstacle@ObstacleContext@Cct@3@0PEBU4563@@Z 0000000180034a60 f i CctObstacleContext.obj
 0001:00033b10       ?copy@?$Array@UInternalCapsuleObstacle@ObstacleContext@Cct@physx@@VNamedAllocator@shdfnd@4@@shdfnd@physx@@KAXPEAUInternalCapsuleObstacle@ObstacleContext@Cct@3@0PEBU4563@@Z 0000000180034b10 f i CctObstacleContext.obj
 0001:00033bc0       ?deallocate@?$Array@UInternalBoxObstacle@ObstacleContext@Cct@physx@@VNamedAllocator@shdfnd@4@@shdfnd@physx@@IEAAXPEAX@Z 0000000180034bc0 f i CctObstacleContext.obj
 0001:00033bf0       ?deallocate@?$Array@UInternalCapsuleObstacle@ObstacleContext@Cct@physx@@VNamedAllocator@shdfnd@4@@shdfnd@physx@@IEAAXPEAX@Z 0000000180034bf0 f i CctObstacleContext.obj
 0001:00033c20       ?destroy@?$Array@UInternalBoxObstacle@ObstacleContext@Cct@physx@@VNamedAllocator@shdfnd@4@@shdfnd@physx@@KAXPEAUInternalBoxObstacle@ObstacleContext@Cct@3@0@Z 0000000180034c20 f i CctObstacleContext.obj
 0001:00033c60       ?destroy@?$Array@UInternalCapsuleObstacle@ObstacleContext@Cct@physx@@VNamedAllocator@shdfnd@4@@shdfnd@physx@@KAXPEAUInternalCapsuleObstacle@ObstacleContext@Cct@3@0@Z 0000000180034c60 f i CctObstacleContext.obj
 0001:00033ca0       ?getType@PxObstacle@physx@@QEBA?AW4Enum@PxGeometryType@2@XZ 0000000180034ca0 f i CctObstacleContext.obj
 0001:00033cb0       ?growAndPushBack@?$Array@UInternalBoxObstacle@ObstacleContext@Cct@physx@@VNamedAllocator@shdfnd@4@@shdfnd@physx@@IEAAAEAUInternalBoxObstacle@ObstacleContext@Cct@3@AEBU4563@@Z 0000000180034cb0 f i CctObstacleContext.obj
 0001:00033ec0       ?growAndPushBack@?$Array@UInternalCapsuleObstacle@ObstacleContext@Cct@physx@@VNamedAllocator@shdfnd@4@@shdfnd@physx@@IEAAAEAUInternalCapsuleObstacle@ObstacleContext@Cct@3@AEBU4563@@Z 0000000180034ec0 f i CctObstacleContext.obj
 0001:000340d0       ?isInUserMemory@?$Array@UInternalBoxObstacle@ObstacleContext@Cct@physx@@VNamedAllocator@shdfnd@4@@shdfnd@physx@@QEBAIXZ 00000001800350d0 f i CctObstacleContext.obj
 0001:000340f0       ?isInUserMemory@?$Array@UInternalCapsuleObstacle@ObstacleContext@Cct@physx@@VNamedAllocator@shdfnd@4@@shdfnd@physx@@QEBAIXZ 00000001800350f0 f i CctObstacleContext.obj
 0001:00034110       ?memZero@intrinsics@physx@@YAPEAXPEAXI@Z 0000000180035110 f i CctObstacleContext.obj
 0001:00034140       ?pushBack@?$Array@UInternalBoxObstacle@ObstacleContext@Cct@physx@@VNamedAllocator@shdfnd@4@@shdfnd@physx@@QEAAAEAUInternalBoxObstacle@ObstacleContext@Cct@3@AEBU4563@@Z 0000000180035140 f i CctObstacleContext.obj
 0001:00034230       ?pushBack@?$Array@UInternalCapsuleObstacle@ObstacleContext@Cct@physx@@VNamedAllocator@shdfnd@4@@shdfnd@physx@@QEAAAEAUInternalCapsuleObstacle@ObstacleContext@Cct@3@AEBU4563@@Z 0000000180035230 f i CctObstacleContext.obj
 0001:00034320       ?replaceWithLast@?$Array@UInternalBoxObstacle@ObstacleContext@Cct@physx@@VNamedAllocator@shdfnd@4@@shdfnd@physx@@QEAAXI@Z 0000000180035320 f i CctObstacleContext.obj
 0001:00034400       ?replaceWithLast@?$Array@UInternalCapsuleObstacle@ObstacleContext@Cct@physx@@VNamedAllocator@shdfnd@4@@shdfnd@physx@@QEAAXI@Z 0000000180035400 f i CctObstacleContext.obj
 0001:000344e0       ?to16@shdfnd@physx@@YAGI@Z 00000001800354e0 f i CctObstacleContext.obj
 0001:00034560       ??0SweptBox@Cct@physx@@QEAA@XZ 0000000180035560 f   CctSweptBox.obj
 0001:000345b0       ??1SweptBox@Cct@physx@@UEAA@XZ 00000001800355b0 f   CctSweptBox.obj
 0001:000345e0       ?computeTemporalBox@SweptBox@Cct@physx@@UEBAXAEBVSweepTest@23@AEAUPxExtendedBounds3@3@AEBUPxExtendedVec3@3@AEBVPxVec3@3@@Z 00000001800355e0 f   CctSweptBox.obj
 0001:000346e0       ??$PxMax@M@physx@@YAMMM@Z  00000001800356e0 f i CctSweptBox.obj
 0001:00034710       ??_GSweptBox@Cct@physx@@UEAAPEAXI@Z 0000000180035710 f i CctSweptBox.obj
 0001:00034710       ??_ESweptBox@Cct@physx@@UEAAPEAXI@Z 0000000180035710 f i CctSweptBox.obj
 0001:00034760       ??0SweptCapsule@Cct@physx@@QEAA@XZ 0000000180035760 f   CctSweptCapsule.obj
 0001:000347a0       ??1SweptCapsule@Cct@physx@@UEAA@XZ 00000001800357a0 f   CctSweptCapsule.obj
 0001:000347d0       ?computeTemporalBox@SweptCapsule@Cct@physx@@UEBAXAEBVSweepTest@23@AEAUPxExtendedBounds3@3@AEBUPxExtendedVec3@3@AEBVPxVec3@3@@Z 00000001800357d0 f   CctSweptCapsule.obj
 0001:00034890       ??_ESweptCapsule@Cct@physx@@UEAAPEAXI@Z 0000000180035890 f i CctSweptCapsule.obj
 0001:00034890       ??_GSweptCapsule@Cct@physx@@UEAAPEAXI@Z 0000000180035890 f i CctSweptCapsule.obj
 0001:000348e0       ??0SweptVolume@Cct@physx@@QEAA@XZ 00000001800358e0 f   CctSweptVolume.obj
 0001:00034930       ??1SweptVolume@Cct@physx@@UEAA@XZ 0000000180035930 f   CctSweptVolume.obj
 0001:00034950       ?computeTemporalBox@Cct@physx@@YAXAEAUPxExtendedBounds3@2@MMMMAEBVPxVec3@2@AEBUPxExtendedVec3@2@1@Z 0000000180035950 f   CctSweptVolume.obj
 0001:00034c00       ??_ESweptVolume@Cct@physx@@UEAAPEAXI@Z 0000000180035c00 f i CctSweptVolume.obj
 0001:00034c00       ??_GSweptVolume@Cct@physx@@UEAAPEAXI@Z 0000000180035c00 f i CctSweptVolume.obj
 0001:00034c50       ??0PxMeshOverlapUtil@physx@@QEAA@XZ 0000000180035c50 f   PhysX3ExtensionsDEBUG:ExtTriangleMeshExt.obj
 0001:00034c90       ??1PxMeshOverlapUtil@physx@@QEAA@XZ 0000000180035c90 f   PhysX3ExtensionsDEBUG:ExtTriangleMeshExt.obj
 0001:00034ce0       ?findOverlap@PxMeshOverlapUtil@physx@@QEAAIAEBVPxGeometry@2@AEBVPxTransform@2@AEBVPxTriangleMeshGeometry@2@1@Z 0000000180035ce0 f   PhysX3ExtensionsDEBUG:ExtTriangleMeshExt.obj
 0001:00034f80       ?findOverlap@PxMeshOverlapUtil@physx@@QEAAIAEBVPxGeometry@2@AEBVPxTransform@2@AEBVPxHeightFieldGeometry@2@1@Z 0000000180035f80 f   PhysX3ExtensionsDEBUG:ExtTriangleMeshExt.obj
 0001:000350e0       ?PxComputeMeshPenetration@physx@@YA?AVPxVec3@1@IAEBVPxGeometry@1@AEBVPxTransform@1@AEBVPxTriangleMeshGeometry@1@1AEAI@Z 00000001800360e0 f   PhysX3ExtensionsDEBUG:ExtTriangleMeshExt.obj
 0001:00035180       ?PxComputeTriangleMeshPenetration@physx@@YA_NAEAVPxVec3@1@AEAMAEBVPxGeometry@1@AEBVPxTransform@1@AEBVPxTriangleMeshGeometry@1@3IPEAI@Z 0000000180036180 f   PhysX3ExtensionsDEBUG:ExtTriangleMeshExt.obj
 0001:000351f0       ?PxComputeHeightFieldPenetration@physx@@YA?AVPxVec3@1@IAEBVPxGeometry@1@AEBVPxTransform@1@AEBVPxHeightFieldGeometry@1@1AEAI@Z 00000001800361f0 f   PhysX3ExtensionsDEBUG:ExtTriangleMeshExt.obj
 0001:00035290       ?PxComputeHeightFieldPenetration@physx@@YA_NAEAVPxVec3@1@AEAMAEBVPxGeometry@1@AEBVPxTransform@1@AEBVPxHeightFieldGeometry@1@3IPEAI@Z 0000000180036290 f   PhysX3ExtensionsDEBUG:ExtTriangleMeshExt.obj
 0001:00035840       ??0PxTransform@physx@@QEAA@AEBV01@@Z 0000000180036840 f i PhysX3ExtensionsDEBUG:ExtTriangleMeshExt.obj
 0001:000358a0       ??KPxVec3@physx@@QEBA?AV01@M@Z 00000001800368a0 f i PhysX3ExtensionsDEBUG:ExtTriangleMeshExt.obj
 0001:00035940       ?updateMassAndInertia@PxRigidBodyExt@physx@@SA_NAEAVPxRigidBody@2@PEBMIPEBVPxVec3@2@_N@Z 0000000180036940 f   PhysX3ExtensionsDEBUG:ExtRigidBodyExt.obj
 0001:00035990       ?updateMassAndInertia@PxRigidBodyExt@physx@@SA_NAEAVPxRigidBody@2@MPEBVPxVec3@2@_N@Z 0000000180036990 f   PhysX3ExtensionsDEBUG:ExtRigidBodyExt.obj
 0001:000359e0       ?setMassAndUpdateInertia@PxRigidBodyExt@physx@@SA_NAEAVPxRigidBody@2@PEBMIPEBVPxVec3@2@_N@Z 00000001800369e0 f   PhysX3ExtensionsDEBUG:ExtRigidBodyExt.obj
 0001:00035a30       ?setMassAndUpdateInertia@PxRigidBodyExt@physx@@SA_NAEAVPxRigidBody@2@MPEBVPxVec3@2@_N@Z 0000000180036a30 f   PhysX3ExtensionsDEBUG:ExtRigidBodyExt.obj
 0001:00035a80       ?computeMassPropertiesFromShapes@PxRigidBodyExt@physx@@SA?AVPxMassProperties@2@PEBQEBVPxShape@2@I@Z 0000000180036a80 f   PhysX3ExtensionsDEBUG:ExtRigidBodyExt.obj
 0001:00035c30       ?addForceAtPos@PxRigidBodyExt@physx@@SAXAEAVPxRigidBody@2@AEBVPxVec3@2@1W4Enum@PxForceMode@2@_N@Z 0000000180036c30 f   PhysX3ExtensionsDEBUG:ExtRigidBodyExt.obj
 0001:00035c80       ?addForceAtLocalPos@PxRigidBodyExt@physx@@SAXAEAVPxRigidBody@2@AEBVPxVec3@2@1W4Enum@PxForceMode@2@_N@Z 0000000180036c80 f   PhysX3ExtensionsDEBUG:ExtRigidBodyExt.obj
 0001:00035d00       ?addLocalForceAtPos@PxRigidBodyExt@physx@@SAXAEAVPxRigidBody@2@AEBVPxVec3@2@1W4Enum@PxForceMode@2@_N@Z 0000000180036d00 f   PhysX3ExtensionsDEBUG:ExtRigidBodyExt.obj
 0001:00035d80       ?addLocalForceAtLocalPos@PxRigidBodyExt@physx@@SAXAEAVPxRigidBody@2@AEBVPxVec3@2@1W4Enum@PxForceMode@2@_N@Z 0000000180036d80 f   PhysX3ExtensionsDEBUG:ExtRigidBodyExt.obj
 0001:00035e20       ?getVelocityAtPos@PxRigidBodyExt@physx@@SA?AVPxVec3@2@AEBVPxRigidBody@2@AEBV32@@Z 0000000180036e20 f   PhysX3ExtensionsDEBUG:ExtRigidBodyExt.obj
 0001:00035ed0       ?getLocalVelocityAtLocalPos@PxRigidBodyExt@physx@@SA?AVPxVec3@2@AEBVPxRigidBody@2@AEBV32@@Z 0000000180036ed0 f   PhysX3ExtensionsDEBUG:ExtRigidBodyExt.obj
 0001:00035fa0       ?getVelocityAtOffset@PxRigidBodyExt@physx@@SA?AVPxVec3@2@AEBVPxRigidBody@2@AEBV32@@Z 0000000180036fa0 f   PhysX3ExtensionsDEBUG:ExtRigidBodyExt.obj
 0001:00036050       ?linearSweepSingle@PxRigidBodyExt@physx@@SA_NAEAVPxRigidBody@2@AEAVPxScene@2@AEBVPxVec3@2@MV?$PxFlags@W4Enum@PxHitFlag@physx@@G@2@AEAUPxSweepHit@2@AEAIAEBUPxQueryFilterData@2@PEAVPxQueryFilterCallback@2@PEBUPxQueryCache@2@M@Z 0000000180037050 f   PhysX3ExtensionsDEBUG:ExtRigidBodyExt.obj
 0001:000363d0       ?linearSweepMultiple@PxRigidBodyExt@physx@@SAIAEAVPxRigidBody@2@AEAVPxScene@2@AEBVPxVec3@2@MV?$PxFlags@W4Enum@PxHitFlag@physx@@G@2@PEAUPxSweepHit@2@PEAIIAEAU72@AEAHAEA_NAEBUPxQueryFilterData@2@PEAVPxQueryFilterCallback@2@PEBUPxQueryCache@2@M@Z 00000001800373d0 f   PhysX3ExtensionsDEBUG:ExtRigidBodyExt.obj
 0001:00036aa0       ?computeVelocityDeltaFromImpulse@PxRigidBodyExt@physx@@SAXAEBVPxRigidBody@2@AEBVPxVec3@2@1AEAV42@2@Z 0000000180037aa0 f   PhysX3ExtensionsDEBUG:ExtRigidBodyExt.obj
 0001:000371d0       ?computeVelocityDeltaFromImpulse@PxRigidBodyExt@physx@@SAXAEBVPxRigidBody@2@AEBVPxTransform@2@AEBVPxVec3@2@2MMAEAV52@3@Z 00000001800381d0 f   PhysX3ExtensionsDEBUG:ExtRigidBodyExt.obj
 0001:00037350       ?computeLinearAngularImpulse@PxRigidBodyExt@physx@@SAXAEBVPxRigidBody@2@AEBVPxTransform@2@AEBVPxVec3@2@2MMAEAV52@3@Z 0000000180038350 f   PhysX3ExtensionsDEBUG:ExtRigidBodyExt.obj
 0001:00037430       ??0InertiaTensorComputer@Ext@physx@@QEAA@_N@Z 0000000180038430 f   PhysX3ExtensionsDEBUG:ExtRigidBodyExt.obj
 0001:00037480       ??0InertiaTensorComputer@Ext@physx@@QEAA@AEBVPxMat33@2@AEBVPxVec3@2@M@Z 0000000180038480 f   PhysX3ExtensionsDEBUG:ExtRigidBodyExt.obj
 0001:000374f0       ??1InertiaTensorComputer@Ext@physx@@QEAA@XZ 00000001800384f0 f   PhysX3ExtensionsDEBUG:ExtRigidBodyExt.obj
 0001:00037500       ?translate@InertiaTensorComputer@Ext@physx@@QEAAXAEBVPxVec3@3@@Z 0000000180038500 f   PhysX3ExtensionsDEBUG:ExtRigidBodyExt.obj
 0001:000378c0       ?setBox@InertiaTensorComputer@Ext@physx@@QEAAXAEBVPxVec3@3@@Z 00000001800388c0 f   PhysX3ExtensionsDEBUG:ExtRigidBodyExt.obj
 0001:000379d0       ?setSphere@InertiaTensorComputer@Ext@physx@@QEAAXM@Z 00000001800389d0 f   PhysX3ExtensionsDEBUG:ExtRigidBodyExt.obj
 0001:00037a50       ?setCylinder@InertiaTensorComputer@Ext@physx@@QEAAXHMM@Z 0000000180038a50 f   PhysX3ExtensionsDEBUG:ExtRigidBodyExt.obj
 0001:00037bb0       ?setCapsule@InertiaTensorComputer@Ext@physx@@QEAAXHMM@Z 0000000180038bb0 f   PhysX3ExtensionsDEBUG:ExtRigidBodyExt.obj
 0001:00037df0       ?setEllipsoid@InertiaTensorComputer@Ext@physx@@QEAAXMMM@Z 0000000180038df0 f   PhysX3ExtensionsDEBUG:ExtRigidBodyExt.obj
 0001:00037ec0       ?computeSphereMass@Ext@physx@@YAMMM@Z 0000000180038ec0 f   PhysX3ExtensionsDEBUG:ExtRigidBodyExt.obj
 0001:00037f00       ?computeSphereDensity@Ext@physx@@YAMMM@Z 0000000180038f00 f   PhysX3ExtensionsDEBUG:ExtRigidBodyExt.obj
 0001:00037f40       ?computeBoxMass@Ext@physx@@YAMAEBVPxVec3@2@M@Z 0000000180038f40 f   PhysX3ExtensionsDEBUG:ExtRigidBodyExt.obj
 0001:00037f80       ?computeBoxDensity@Ext@physx@@YAMAEBVPxVec3@2@M@Z 0000000180038f80 f   PhysX3ExtensionsDEBUG:ExtRigidBodyExt.obj
 0001:00037fc0       ?computeEllipsoidMass@Ext@physx@@YAMAEBVPxVec3@2@M@Z 0000000180038fc0 f   PhysX3ExtensionsDEBUG:ExtRigidBodyExt.obj
 0001:00038000       ?computeEllipsoidDensity@Ext@physx@@YAMAEBVPxVec3@2@M@Z 0000000180039000 f   PhysX3ExtensionsDEBUG:ExtRigidBodyExt.obj
 0001:00038040       ?computeCylinderMass@Ext@physx@@YAMMMM@Z 0000000180039040 f   PhysX3ExtensionsDEBUG:ExtRigidBodyExt.obj
 0001:00038080       ?computeCylinderDensity@Ext@physx@@YAMMMM@Z 0000000180039080 f   PhysX3ExtensionsDEBUG:ExtRigidBodyExt.obj
 0001:000380c0       ?computeCapsuleMass@Ext@physx@@YAMMMM@Z 00000001800390c0 f   PhysX3ExtensionsDEBUG:ExtRigidBodyExt.obj
 0001:00038100       ?computeCapsuleDensity@Ext@physx@@YAMMMM@Z 0000000180039100 f   PhysX3ExtensionsDEBUG:ExtRigidBodyExt.obj
 0001:00038140       ?computeConeMass@Ext@physx@@YAMMMM@Z 0000000180039140 f   PhysX3ExtensionsDEBUG:ExtRigidBodyExt.obj
 0001:00038180       ?computeConeDensity@Ext@physx@@YAMMMM@Z 0000000180039180 f   PhysX3ExtensionsDEBUG:ExtRigidBodyExt.obj
 0001:000381c0       ?computeBoxInertiaTensor@Ext@physx@@YAXAEAVPxVec3@2@MMMM@Z 00000001800391c0 f   PhysX3ExtensionsDEBUG:ExtRigidBodyExt.obj
 0001:00038410       ?computeSphereInertiaTensor@Ext@physx@@YAXAEAVPxVec3@2@MM_N@Z 0000000180039410 f   PhysX3ExtensionsDEBUG:ExtRigidBodyExt.obj
 0001:0003abd0       ??$PX_UNUSED@PEBUPxSweepHit@physx@@@@YAXAEBQEBUPxSweepHit@physx@@@Z 000000018003bbd0 f i PhysX3ExtensionsDEBUG:ExtRigidBodyExt.obj
 0001:0003abe0       ??$PX_UNUSED@W4PxZERO@physx@@@@YAXAEBW4PxZERO@physx@@@Z 000000018003bbe0 f i PhysX3ExtensionsDEBUG:ExtRigidBodyExt.obj
 0001:0003abf0       ??$PxUnionCast@PEAVPxGeometry@physx@@PEAY03E@physx@@YAPEAVPxGeometry@0@PEAY03E@Z 000000018003bbf0 f i PhysX3ExtensionsDEBUG:ExtRigidBodyExt.obj
 0001:0003ac20       ??0?$Array@PEAVPxShape@physx@@V?$InlineAllocator@$0IA@VNamedAllocator@shdfnd@physx@@@shdfnd@2@@shdfnd@physx@@QEAA@AEBV?$InlineAllocator@$0IA@VNamedAllocator@shdfnd@physx@@@12@@Z 000000018003bc20 f i PhysX3ExtensionsDEBUG:ExtRigidBodyExt.obj
 0001:0003ac90       ??0?$Array@VPxMassProperties@physx@@V?$InlineAllocator@$0DEA@VNamedAllocator@shdfnd@physx@@@shdfnd@2@@shdfnd@physx@@QEAA@AEBV?$InlineAllocator@$0DEA@VNamedAllocator@shdfnd@physx@@@12@@Z 000000018003bc90 f i PhysX3ExtensionsDEBUG:ExtRigidBodyExt.obj
 0001:0003ad00       ??0?$Array@VPxTransform@physx@@V?$InlineAllocator@$0BMA@VNamedAllocator@shdfnd@physx@@@shdfnd@2@@shdfnd@physx@@QEAA@AEBV?$InlineAllocator@$0BMA@VNamedAllocator@shdfnd@physx@@@12@@Z 000000018003bd00 f i PhysX3ExtensionsDEBUG:ExtRigidBodyExt.obj
 0001:0003ad70       ??0?$InlineAllocator@$0BMA@VNamedAllocator@shdfnd@physx@@@shdfnd@physx@@QEAA@AEBV012@@Z 000000018003bd70 f i PhysX3ExtensionsDEBUG:ExtRigidBodyExt.obj
 0001:0003adc0       ??0?$InlineAllocator@$0BMA@VNamedAllocator@shdfnd@physx@@@shdfnd@physx@@QEAA@AEBVNamedAllocator@12@@Z 000000018003bdc0 f i PhysX3ExtensionsDEBUG:ExtRigidBodyExt.obj
 0001:0003ae10       ??0?$InlineAllocator@$0DEA@VNamedAllocator@shdfnd@physx@@@shdfnd@physx@@QEAA@AEBV012@@Z 000000018003be10 f i PhysX3ExtensionsDEBUG:ExtRigidBodyExt.obj
 0001:0003ae60       ??0?$InlineAllocator@$0DEA@VNamedAllocator@shdfnd@physx@@@shdfnd@physx@@QEAA@AEBVNamedAllocator@12@@Z 000000018003be60 f i PhysX3ExtensionsDEBUG:ExtRigidBodyExt.obj
 0001:0003aeb0       ??0?$InlineAllocator@$0IA@VNamedAllocator@shdfnd@physx@@@shdfnd@physx@@QEAA@AEBV012@@Z 000000018003beb0 f i PhysX3ExtensionsDEBUG:ExtRigidBodyExt.obj
 0001:0003af00       ??0?$InlineAllocator@$0IA@VNamedAllocator@shdfnd@physx@@@shdfnd@physx@@QEAA@AEBVNamedAllocator@12@@Z 000000018003bf00 f i PhysX3ExtensionsDEBUG:ExtRigidBodyExt.obj
 0001:0003af50       ??0?$InlineArray@PEAVPxShape@physx@@$0BA@VNamedAllocator@shdfnd@2@@shdfnd@physx@@QEAA@AEBVNamedAllocator@12@@Z 000000018003bf50 f i PhysX3ExtensionsDEBUG:ExtRigidBodyExt.obj
 0001:0003b000       ??0?$InlineArray@VPxMassProperties@physx@@$0BA@VNamedAllocator@shdfnd@2@@shdfnd@physx@@QEAA@AEBVNamedAllocator@12@@Z 000000018003c000 f i PhysX3ExtensionsDEBUG:ExtRigidBodyExt.obj
 0001:0003b0b0       ??0?$InlineArray@VPxTransform@physx@@$0BA@VNamedAllocator@shdfnd@2@@shdfnd@physx@@QEAA@AEBVNamedAllocator@12@@Z 000000018003c0b0 f i PhysX3ExtensionsDEBUG:ExtRigidBodyExt.obj
 0001:0003b160       ??0?$PxHitBuffer@UPxSweepHit@physx@@@physx@@QEAA@PEAUPxSweepHit@1@I@Z 000000018003c160 f i PhysX3ExtensionsDEBUG:ExtRigidBodyExt.obj
 0001:0003b1b0       ??0?$PxHitCallback@UPxSweepHit@physx@@@physx@@QEAA@PEAUPxSweepHit@1@I@Z 000000018003c1b0 f i PhysX3ExtensionsDEBUG:ExtRigidBodyExt.obj
 0001:0003b270       ??0PxMassProperties@physx@@QEAA@AEBV01@@Z 000000018003c270 f i PhysX3ExtensionsDEBUG:ExtRigidBodyExt.obj
 0001:0003b2e0       ??0PxMassProperties@physx@@QEAA@AEBVPxGeometry@1@@Z 000000018003c2e0 f i PhysX3ExtensionsDEBUG:ExtRigidBodyExt.obj
 0001:0003c040       ??0PxMassProperties@physx@@QEAA@MAEBVPxMat33@1@AEBVPxVec3@1@@Z 000000018003d040 f i PhysX3ExtensionsDEBUG:ExtRigidBodyExt.obj
 0001:0003c0c0       ??0PxMassProperties@physx@@QEAA@XZ 000000018003d0c0 f i PhysX3ExtensionsDEBUG:ExtRigidBodyExt.obj
 0001:0003c120       ??0PxMat33@physx@@QEAA@AEBV01@@Z 000000018003d120 f i PhysX3ExtensionsDEBUG:ExtRigidBodyExt.obj
 0001:0003c1a0       ??0PxMat33@physx@@QEAA@W4PxZERO@1@@Z 000000018003d1a0 f i PhysX3ExtensionsDEBUG:ExtRigidBodyExt.obj
 0001:0003c210       ??0PxMat33@physx@@QEAA@XZ  000000018003d210 f i PhysX3ExtensionsDEBUG:ExtRigidBodyExt.obj
 0001:0003c270       ??0PxQueryFilterData@physx@@QEAA@XZ 000000018003d270 f i PhysX3ExtensionsDEBUG:ExtRigidBodyExt.obj
 0001:0003c2d0       ??1?$Array@PEAVPxShape@physx@@V?$InlineAllocator@$0IA@VNamedAllocator@shdfnd@physx@@@shdfnd@2@@shdfnd@physx@@QEAA@XZ 000000018003d2d0 f i PhysX3ExtensionsDEBUG:ExtRigidBodyExt.obj
 0001:0003c370       ??1?$Array@VPxMassProperties@physx@@V?$InlineAllocator@$0DEA@VNamedAllocator@shdfnd@physx@@@shdfnd@2@@shdfnd@physx@@QEAA@XZ 000000018003d370 f i PhysX3ExtensionsDEBUG:ExtRigidBodyExt.obj
 0001:0003c410       ??1?$Array@VPxTransform@physx@@V?$InlineAllocator@$0BMA@VNamedAllocator@shdfnd@physx@@@shdfnd@2@@shdfnd@physx@@QEAA@XZ 000000018003d410 f i PhysX3ExtensionsDEBUG:ExtRigidBodyExt.obj
 0001:0003c4b0       ??1?$InlineAllocator@$0BMA@VNamedAllocator@shdfnd@physx@@@shdfnd@physx@@QEAA@XZ 000000018003d4b0 f i PhysX3ExtensionsDEBUG:ExtRigidBodyExt.obj
 0001:0003c4d0       ??1?$InlineAllocator@$0DEA@VNamedAllocator@shdfnd@physx@@@shdfnd@physx@@QEAA@XZ 000000018003d4d0 f i PhysX3ExtensionsDEBUG:ExtRigidBodyExt.obj
 0001:0003c4f0       ??1?$InlineAllocator@$0IA@VNamedAllocator@shdfnd@physx@@@shdfnd@physx@@QEAA@XZ 000000018003d4f0 f i PhysX3ExtensionsDEBUG:ExtRigidBodyExt.obj
 0001:0003c510       ??1?$InlineArray@PEAVPxShape@physx@@$0BA@VNamedAllocator@shdfnd@2@@shdfnd@physx@@QEAA@XZ 000000018003d510 f i PhysX3ExtensionsDEBUG:ExtRigidBodyExt.obj
 0001:0003c530       ??1?$InlineArray@VPxMassProperties@physx@@$0BA@VNamedAllocator@shdfnd@2@@shdfnd@physx@@QEAA@XZ 000000018003d530 f i PhysX3ExtensionsDEBUG:ExtRigidBodyExt.obj
 0001:0003c550       ??1?$InlineArray@VPxTransform@physx@@$0BA@VNamedAllocator@shdfnd@2@@shdfnd@physx@@QEAA@XZ 000000018003d550 f i PhysX3ExtensionsDEBUG:ExtRigidBodyExt.obj
 0001:0003c570       ??1?$PxHitBuffer@UPxSweepHit@physx@@@physx@@UEAA@XZ 000000018003d570 f i PhysX3ExtensionsDEBUG:ExtRigidBodyExt.obj
 0001:0003c5a0       ??1?$PxHitCallback@UPxSweepHit@physx@@@physx@@UEAA@XZ 000000018003d5a0 f i PhysX3ExtensionsDEBUG:ExtRigidBodyExt.obj
 0001:0003c5c0       ??4InertiaTensorComputer@Ext@physx@@QEAAAEAV012@AEBV012@@Z 000000018003d5c0 f i PhysX3ExtensionsDEBUG:ExtRigidBodyExt.obj
 0001:0003c630       ??4PxFilterData@physx@@QEAAXAEBU01@@Z 000000018003d630 f i PhysX3ExtensionsDEBUG:ExtRigidBodyExt.obj
 0001:0003c690       ??4PxMassProperties@physx@@QEAAAEAV01@$$QEAV01@@Z 000000018003d690 f i PhysX3ExtensionsDEBUG:ExtRigidBodyExt.obj
 0001:0003c700       ??4PxMat33@physx@@QEAAAEAV01@AEBV01@@Z 000000018003d700 f i PhysX3ExtensionsDEBUG:ExtRigidBodyExt.obj
 0001:0003c780       ??4PxSweepHit@physx@@QEAAAEAU01@AEBU01@@Z 000000018003d780 f i PhysX3ExtensionsDEBUG:ExtRigidBodyExt.obj
 0001:0003c7d0       ??A?$Array@PEAVPxShape@physx@@V?$InlineAllocator@$0IA@VNamedAllocator@shdfnd@physx@@@shdfnd@2@@shdfnd@physx@@QEAAAEAPEAVPxShape@2@I@Z 000000018003d7d0 f i PhysX3ExtensionsDEBUG:ExtRigidBodyExt.obj
 0001:0003c870       ??APxMat33@physx@@QEAAAEAVPxVec3@1@I@Z 000000018003d870 f i PhysX3ExtensionsDEBUG:ExtRigidBodyExt.obj
 0001:0003c8a0       ??APxVec3@physx@@QEAAAEAMI@Z 000000018003d8a0 f i PhysX3ExtensionsDEBUG:ExtRigidBodyExt.obj
 0001:0003c930       ??DPxMat33@physx@@QEBA?BV01@M@Z 000000018003d930 f i PhysX3ExtensionsDEBUG:ExtRigidBodyExt.obj
 0001:0003c9f0       ??DPxMat33@physx@@QEBA?BVPxVec3@1@AEBV21@@Z 000000018003d9f0 f i PhysX3ExtensionsDEBUG:ExtRigidBodyExt.obj
 0001:0003ca30       ??GPxMat33@physx@@QEBA?BV01@AEBV01@@Z 000000018003da30 f i PhysX3ExtensionsDEBUG:ExtRigidBodyExt.obj
 0001:0003cb30       ??HPxMat33@physx@@QEBA?BV01@AEBV01@@Z 000000018003db30 f i PhysX3ExtensionsDEBUG:ExtRigidBodyExt.obj
 0001:0003cc30       ??RPxMat33@physx@@QEAAAEAMII@Z 000000018003dc30 f i PhysX3ExtensionsDEBUG:ExtRigidBodyExt.obj
 0001:0003cc70       ??RPxMat33@physx@@QEBAMII@Z 000000018003dc70 f i PhysX3ExtensionsDEBUG:ExtRigidBodyExt.obj
 0001:0003ccc0       ??XPxMat33@physx@@QEAAAEAV01@M@Z 000000018003dcc0 f i PhysX3ExtensionsDEBUG:ExtRigidBodyExt.obj
 0001:0003cd30       ??YPxMat33@physx@@QEAAAEAV01@AEBV01@@Z 000000018003dd30 f i PhysX3ExtensionsDEBUG:ExtRigidBodyExt.obj
 0001:0003cdb0       ??_E?$PxHitBuffer@UPxSweepHit@physx@@@physx@@UEAAPEAXI@Z 000000018003ddb0 f i PhysX3ExtensionsDEBUG:ExtRigidBodyExt.obj
 0001:0003cdb0       ??_G?$PxHitBuffer@UPxSweepHit@physx@@@physx@@UEAAPEAXI@Z 000000018003ddb0 f i PhysX3ExtensionsDEBUG:ExtRigidBodyExt.obj
 0001:0003ce00       ??_G?$PxHitCallback@UPxSweepHit@physx@@@physx@@UEAAPEAXI@Z 000000018003de00 f i PhysX3ExtensionsDEBUG:ExtRigidBodyExt.obj
 0001:0003ce00       ??_E?$PxHitCallback@UPxSweepHit@physx@@@physx@@UEAAPEAXI@Z 000000018003de00 f i PhysX3ExtensionsDEBUG:ExtRigidBodyExt.obj
 0001:0003ce50       ?add@InertiaTensorComputer@Ext@physx@@QEAAXAEBV123@@Z 000000018003de50 f i PhysX3ExtensionsDEBUG:ExtRigidBodyExt.obj
 0001:0003d130       ?addForceAtPosInternal@@YAXAEAVPxRigidBody@physx@@AEBVPxVec3@2@1W4Enum@PxForceMode@2@_N@Z 000000018003e130 f i PhysX3ExtensionsDEBUG:ExtRigidBodyExt.obj
 0001:0003d2d0       ?allocate@?$Array@PEAVPxShape@physx@@V?$InlineAllocator@$0IA@VNamedAllocator@shdfnd@physx@@@shdfnd@2@@shdfnd@physx@@IEAAPEAPEAVPxShape@3@I@Z 000000018003e2d0 f i PhysX3ExtensionsDEBUG:ExtRigidBodyExt.obj
 0001:0003d380       ?allocate@?$Array@VPxMassProperties@physx@@V?$InlineAllocator@$0DEA@VNamedAllocator@shdfnd@physx@@@shdfnd@2@@shdfnd@physx@@IEAAPEAVPxMassProperties@3@I@Z 000000018003e380 f i PhysX3ExtensionsDEBUG:ExtRigidBodyExt.obj
 0001:0003d430       ?allocate@?$Array@VPxTransform@physx@@V?$InlineAllocator@$0BMA@VNamedAllocator@shdfnd@physx@@@shdfnd@2@@shdfnd@physx@@IEAAPEAVPxTransform@3@I@Z 000000018003e430 f i PhysX3ExtensionsDEBUG:ExtRigidBodyExt.obj
 0001:0003d4e0       ?allocate@?$InlineAllocator@$0BMA@VNamedAllocator@shdfnd@physx@@@shdfnd@physx@@QEAAPEAXIPEBDH@Z 000000018003e4e0 f i PhysX3ExtensionsDEBUG:ExtRigidBodyExt.obj
 0001:0003d560       ?allocate@?$InlineAllocator@$0DEA@VNamedAllocator@shdfnd@physx@@@shdfnd@physx@@QEAAPEAXIPEBDH@Z 000000018003e560 f i PhysX3ExtensionsDEBUG:ExtRigidBodyExt.obj
 0001:0003d5e0       ?allocate@?$InlineAllocator@$0IA@VNamedAllocator@shdfnd@physx@@@shdfnd@physx@@QEAAPEAXIPEBDH@Z 000000018003e5e0 f i PhysX3ExtensionsDEBUG:ExtRigidBodyExt.obj
 0001:0003d660       ?any@PxGeometryHolder@physx@@QEAAAEAVPxGeometry@2@XZ 000000018003e660 f i PhysX3ExtensionsDEBUG:ExtRigidBodyExt.obj
 0001:0003d690       ?basisExtent@PxBounds3@physx@@SA?AV12@AEBVPxVec3@2@AEBVPxMat33@2@0@Z 000000018003e690 f i PhysX3ExtensionsDEBUG:ExtRigidBodyExt.obj
 0001:0003d8e0       ?begin@?$Array@PEAVPxShape@physx@@V?$InlineAllocator@$0IA@VNamedAllocator@shdfnd@physx@@@shdfnd@2@@shdfnd@physx@@QEAAPEAPEAVPxShape@3@XZ 000000018003e8e0 f i PhysX3ExtensionsDEBUG:ExtRigidBodyExt.obj
 0001:0003d900       ?begin@?$Array@VPxMassProperties@physx@@V?$InlineAllocator@$0DEA@VNamedAllocator@shdfnd@physx@@@shdfnd@2@@shdfnd@physx@@QEAAPEAVPxMassProperties@3@XZ 000000018003e900 f i PhysX3ExtensionsDEBUG:ExtRigidBodyExt.obj
 0001:0003d920       ?begin@?$Array@VPxTransform@physx@@V?$InlineAllocator@$0BMA@VNamedAllocator@shdfnd@physx@@@shdfnd@2@@shdfnd@physx@@QEAAPEAVPxTransform@3@XZ 000000018003e920 f i PhysX3ExtensionsDEBUG:ExtRigidBodyExt.obj
 0001:0003d940       ?capacity@?$Array@PEAVPxShape@physx@@V?$InlineAllocator@$0IA@VNamedAllocator@shdfnd@physx@@@shdfnd@2@@shdfnd@physx@@QEBAIXZ 000000018003e940 f i PhysX3ExtensionsDEBUG:ExtRigidBodyExt.obj
 0001:0003d960       ?capacity@?$Array@VPxMassProperties@physx@@V?$InlineAllocator@$0DEA@VNamedAllocator@shdfnd@physx@@@shdfnd@2@@shdfnd@physx@@QEBAIXZ 000000018003e960 f i PhysX3ExtensionsDEBUG:ExtRigidBodyExt.obj
 0001:0003d980       ?capacity@?$Array@VPxTransform@physx@@V?$InlineAllocator@$0BMA@VNamedAllocator@shdfnd@physx@@@shdfnd@2@@shdfnd@physx@@QEBAIXZ 000000018003e980 f i PhysX3ExtensionsDEBUG:ExtRigidBodyExt.obj
 0001:0003d9a0       ?capacityIncrement@?$Array@VPxMassProperties@physx@@V?$InlineAllocator@$0DEA@VNamedAllocator@shdfnd@physx@@@shdfnd@2@@shdfnd@physx@@IEBAIXZ 000000018003e9a0 f i PhysX3ExtensionsDEBUG:ExtRigidBodyExt.obj
 0001:0003d9f0       ?capacityIncrement@?$Array@VPxTransform@physx@@V?$InlineAllocator@$0BMA@VNamedAllocator@shdfnd@physx@@@shdfnd@2@@shdfnd@physx@@IEBAIXZ 000000018003e9f0 f i PhysX3ExtensionsDEBUG:ExtRigidBodyExt.obj
 0001:0003da40       ?center@InertiaTensorComputer@Ext@physx@@QEAAXXZ 000000018003ea40 f i PhysX3ExtensionsDEBUG:ExtRigidBodyExt.obj
 0001:0003da80       ?computeBoxRatio@Ext@physx@@YAMAEBVPxVec3@2@@Z 000000018003ea80 f i PhysX3ExtensionsDEBUG:ExtRigidBodyExt.obj
 0001:0003daa0       ?computeCapsuleRatio@Ext@physx@@YAMMM@Z 000000018003eaa0 f i PhysX3ExtensionsDEBUG:ExtRigidBodyExt.obj
 0001:0003db00       ?computeConeRatio@Ext@physx@@YAMMM@Z 000000018003eb00 f i PhysX3ExtensionsDEBUG:ExtRigidBodyExt.obj
 0001:0003db70       ?computeCylinderRatio@Ext@physx@@YAMMM@Z 000000018003eb70 f i PhysX3ExtensionsDEBUG:ExtRigidBodyExt.obj
 0001:0003dbb0       ?computeEllipsoidRatio@Ext@physx@@YAMAEBVPxVec3@2@@Z 000000018003ebb0 f i PhysX3ExtensionsDEBUG:ExtRigidBodyExt.obj
 0001:0003dbe0       ?computeSphereRatio@Ext@physx@@YAMM@Z 000000018003ebe0 f i PhysX3ExtensionsDEBUG:ExtRigidBodyExt.obj
 0001:0003dc10       ?copy@?$Array@PEAVPxShape@physx@@V?$InlineAllocator@$0IA@VNamedAllocator@shdfnd@physx@@@shdfnd@2@@shdfnd@physx@@KAXPEAPEAVPxShape@3@0PEBQEAV43@@Z 000000018003ec10 f i PhysX3ExtensionsDEBUG:ExtRigidBodyExt.obj
 0001:0003dcd0       ?copy@?$Array@VPxMassProperties@physx@@V?$InlineAllocator@$0DEA@VNamedAllocator@shdfnd@physx@@@shdfnd@2@@shdfnd@physx@@KAXPEAVPxMassProperties@3@0PEBV43@@Z 000000018003ecd0 f i PhysX3ExtensionsDEBUG:ExtRigidBodyExt.obj
 0001:0003dd80       ?copy@?$Array@VPxTransform@physx@@V?$InlineAllocator@$0BMA@VNamedAllocator@shdfnd@physx@@@shdfnd@2@@shdfnd@physx@@KAXPEAVPxTransform@3@0PEBV43@@Z 000000018003ed80 f i PhysX3ExtensionsDEBUG:ExtRigidBodyExt.obj
 0001:0003de30       ?create@?$Array@PEAVPxShape@physx@@V?$InlineAllocator@$0IA@VNamedAllocator@shdfnd@physx@@@shdfnd@2@@shdfnd@physx@@KAXPEAPEAVPxShape@3@0AEBQEAV43@@Z 000000018003ee30 f i PhysX3ExtensionsDEBUG:ExtRigidBodyExt.obj
 0001:0003ded0       ?createDiagonal@PxMat33@physx@@SA?BV12@AEBVPxVec3@2@@Z 000000018003eed0 f i PhysX3ExtensionsDEBUG:ExtRigidBodyExt.obj
 0001:0003df80       ?deallocate@?$Array@PEAVPxShape@physx@@V?$InlineAllocator@$0IA@VNamedAllocator@shdfnd@physx@@@shdfnd@2@@shdfnd@physx@@IEAAXPEAX@Z 000000018003ef80 f i PhysX3ExtensionsDEBUG:ExtRigidBodyExt.obj
 0001:0003dfb0       ?deallocate@?$Array@VPxMassProperties@physx@@V?$InlineAllocator@$0DEA@VNamedAllocator@shdfnd@physx@@@shdfnd@2@@shdfnd@physx@@IEAAXPEAX@Z 000000018003efb0 f i PhysX3ExtensionsDEBUG:ExtRigidBodyExt.obj
 0001:0003dfe0       ?deallocate@?$Array@VPxTransform@physx@@V?$InlineAllocator@$0BMA@VNamedAllocator@shdfnd@physx@@@shdfnd@2@@shdfnd@physx@@IEAAXPEAX@Z 000000018003efe0 f i PhysX3ExtensionsDEBUG:ExtRigidBodyExt.obj
 0001:0003e010       ?deallocate@?$InlineAllocator@$0BMA@VNamedAllocator@shdfnd@physx@@@shdfnd@physx@@QEAAXPEAX@Z 000000018003f010 f i PhysX3ExtensionsDEBUG:ExtRigidBodyExt.obj
 0001:0003e060       ?deallocate@?$InlineAllocator@$0DEA@VNamedAllocator@shdfnd@physx@@@shdfnd@physx@@QEAAXPEAX@Z 000000018003f060 f i PhysX3ExtensionsDEBUG:ExtRigidBodyExt.obj
 0001:0003e0b0       ?deallocate@?$InlineAllocator@$0IA@VNamedAllocator@shdfnd@physx@@@shdfnd@physx@@QEAAXPEAX@Z 000000018003f0b0 f i PhysX3ExtensionsDEBUG:ExtRigidBodyExt.obj
 0001:0003e100       ?destroy@?$Array@PEAVPxShape@physx@@V?$InlineAllocator@$0IA@VNamedAllocator@shdfnd@physx@@@shdfnd@2@@shdfnd@physx@@KAXPEAPEAVPxShape@3@0@Z 000000018003f100 f i PhysX3ExtensionsDEBUG:ExtRigidBodyExt.obj
 0001:0003e140       ?destroy@?$Array@VPxMassProperties@physx@@V?$InlineAllocator@$0DEA@VNamedAllocator@shdfnd@physx@@@shdfnd@2@@shdfnd@physx@@KAXPEAVPxMassProperties@3@0@Z 000000018003f140 f i PhysX3ExtensionsDEBUG:ExtRigidBodyExt.obj
 0001:0003e180       ?destroy@?$Array@VPxTransform@physx@@V?$InlineAllocator@$0BMA@VNamedAllocator@shdfnd@physx@@@shdfnd@2@@shdfnd@physx@@KAXPEAVPxTransform@3@0@Z 000000018003f180 f i PhysX3ExtensionsDEBUG:ExtRigidBodyExt.obj
 0001:0003e1c0       ?finalizeQuery@?$PxHitCallback@UPxSweepHit@physx@@@physx@@UEAAXXZ 000000018003f1c0 f i PhysX3ExtensionsDEBUG:ExtRigidBodyExt.obj
 0001:0003e1d0       ?getCenterOfMass@InertiaTensorComputer@Ext@physx@@QEBA?AVPxVec3@3@XZ 000000018003f1d0 f i PhysX3ExtensionsDEBUG:ExtRigidBodyExt.obj
 0001:0003e210       ?getConjugate@PxQuat@physx@@QEBA?AV12@XZ 000000018003f210 f i PhysX3ExtensionsDEBUG:ExtRigidBodyExt.obj
 0001:0003e2b0       ?getInertia@InertiaTensorComputer@Ext@physx@@QEBA?AVPxMat33@3@XZ 000000018003f2b0 f i PhysX3ExtensionsDEBUG:ExtRigidBodyExt.obj
 0001:0003e2f0       ?getInverse@PxTransform@physx@@QEBA?AV12@XZ 000000018003f2f0 f i PhysX3ExtensionsDEBUG:ExtRigidBodyExt.obj
 0001:0003e400       ?getMass@InertiaTensorComputer@Ext@physx@@QEBAMXZ 000000018003f400 f i PhysX3ExtensionsDEBUG:ExtRigidBodyExt.obj
 0001:0003e420       ?getNbTouches@?$PxHitBuffer@UPxSweepHit@physx@@@physx@@QEBAIXZ 000000018003f420 f i PhysX3ExtensionsDEBUG:ExtRigidBodyExt.obj
 0001:0003e440       ?getType@PxGeometry@physx@@QEBA?AW4Enum@PxGeometryType@2@XZ 000000018003f440 f i PhysX3ExtensionsDEBUG:ExtRigidBodyExt.obj
 0001:0003e450       ?getVelocityAtPosInternal@@YA?AVPxVec3@physx@@AEBVPxRigidBody@2@AEBV12@@Z 000000018003f450 f i PhysX3ExtensionsDEBUG:ExtRigidBodyExt.obj
 0001:0003e4f0       ?grow@?$Array@PEAVPxShape@physx@@V?$InlineAllocator@$0IA@VNamedAllocator@shdfnd@physx@@@shdfnd@2@@shdfnd@physx@@IEAAXI@Z 000000018003f4f0 f i PhysX3ExtensionsDEBUG:ExtRigidBodyExt.obj
 0001:0003e590       ?grow@?$Array@VPxMassProperties@physx@@V?$InlineAllocator@$0DEA@VNamedAllocator@shdfnd@physx@@@shdfnd@2@@shdfnd@physx@@IEAAXI@Z 000000018003f590 f i PhysX3ExtensionsDEBUG:ExtRigidBodyExt.obj
 0001:0003e630       ?grow@?$Array@VPxTransform@physx@@V?$InlineAllocator@$0BMA@VNamedAllocator@shdfnd@physx@@@shdfnd@2@@shdfnd@physx@@IEAAXI@Z 000000018003f630 f i PhysX3ExtensionsDEBUG:ExtRigidBodyExt.obj
 0001:0003e6d0       ?growAndPushBack@?$Array@VPxMassProperties@physx@@V?$InlineAllocator@$0DEA@VNamedAllocator@shdfnd@physx@@@shdfnd@2@@shdfnd@physx@@IEAAAEAVPxMassProperties@3@AEBV43@@Z 000000018003f6d0 f i PhysX3ExtensionsDEBUG:ExtRigidBodyExt.obj
 0001:0003e920       ?growAndPushBack@?$Array@VPxTransform@physx@@V?$InlineAllocator@$0BMA@VNamedAllocator@shdfnd@physx@@@shdfnd@2@@shdfnd@physx@@IEAAAEAVPxTransform@3@AEBV43@@Z 000000018003f920 f i PhysX3ExtensionsDEBUG:ExtRigidBodyExt.obj
 0001:0003eb70       ?isIdentity@PxMeshScale@physx@@QEBA_NXZ 000000018003fb70 f i PhysX3ExtensionsDEBUG:ExtRigidBodyExt.obj
 0001:0003ebe0       ?isInUserMemory@?$Array@PEAVPxShape@physx@@V?$InlineAllocator@$0IA@VNamedAllocator@shdfnd@physx@@@shdfnd@2@@shdfnd@physx@@QEBAIXZ 000000018003fbe0 f i PhysX3ExtensionsDEBUG:ExtRigidBodyExt.obj
 0001:0003ec00       ?isInUserMemory@?$Array@VPxMassProperties@physx@@V?$InlineAllocator@$0DEA@VNamedAllocator@shdfnd@physx@@@shdfnd@2@@shdfnd@physx@@QEBAIXZ 000000018003fc00 f i PhysX3ExtensionsDEBUG:ExtRigidBodyExt.obj
 0001:0003ec20       ?isInUserMemory@?$Array@VPxTransform@physx@@V?$InlineAllocator@$0BMA@VNamedAllocator@shdfnd@physx@@@shdfnd@2@@shdfnd@physx@@QEBAIXZ 000000018003fc20 f i PhysX3ExtensionsDEBUG:ExtRigidBodyExt.obj
 0001:0003ec40       ?isUnit@PxQuat@physx@@QEBA_NXZ 000000018003fc40 f i PhysX3ExtensionsDEBUG:ExtRigidBodyExt.obj
 0001:0003ecc0       ?multiply@PxVec3@physx@@QEBA?AV12@AEBV12@@Z 000000018003fcc0 f i PhysX3ExtensionsDEBUG:ExtRigidBodyExt.obj
 0001:0003ed60       ?processTouches@?$PxHitBuffer@UPxSweepHit@physx@@@physx@@MEAA_NPEBUPxSweepHit@2@I@Z 000000018003fd60 f i PhysX3ExtensionsDEBUG:ExtRigidBodyExt.obj
 0001:0003eda0       ?pushBack@?$Array@VPxMassProperties@physx@@V?$InlineAllocator@$0DEA@VNamedAllocator@shdfnd@physx@@@shdfnd@2@@shdfnd@physx@@QEAAAEAVPxMassProperties@3@AEBV43@@Z 000000018003fda0 f i PhysX3ExtensionsDEBUG:ExtRigidBodyExt.obj
 0001:0003eeb0       ?pushBack@?$Array@VPxTransform@physx@@V?$InlineAllocator@$0BMA@VNamedAllocator@shdfnd@physx@@@shdfnd@2@@shdfnd@physx@@QEAAAEAVPxTransform@3@AEBV43@@Z 000000018003feb0 f i PhysX3ExtensionsDEBUG:ExtRigidBodyExt.obj
 0001:0003efc0       ?recreate@?$Array@PEAVPxShape@physx@@V?$InlineAllocator@$0IA@VNamedAllocator@shdfnd@physx@@@shdfnd@2@@shdfnd@physx@@IEAAXI@Z 000000018003ffc0 f i PhysX3ExtensionsDEBUG:ExtRigidBodyExt.obj
 0001:0003f140       ?recreate@?$Array@VPxMassProperties@physx@@V?$InlineAllocator@$0DEA@VNamedAllocator@shdfnd@physx@@@shdfnd@2@@shdfnd@physx@@IEAAXI@Z 0000000180040140 f i PhysX3ExtensionsDEBUG:ExtRigidBodyExt.obj
 0001:0003f2d0       ?recreate@?$Array@VPxTransform@physx@@V?$InlineAllocator@$0BMA@VNamedAllocator@shdfnd@physx@@@shdfnd@2@@shdfnd@physx@@IEAAXI@Z 00000001800402d0 f i PhysX3ExtensionsDEBUG:ExtRigidBodyExt.obj
 0001:0003f460       ?reserve@?$Array@PEAVPxShape@physx@@V?$InlineAllocator@$0IA@VNamedAllocator@shdfnd@physx@@@shdfnd@2@@shdfnd@physx@@QEAAXI@Z 0000000180040460 f i PhysX3ExtensionsDEBUG:ExtRigidBodyExt.obj
 0001:0003f4a0       ?reserve@?$Array@VPxMassProperties@physx@@V?$InlineAllocator@$0DEA@VNamedAllocator@shdfnd@physx@@@shdfnd@2@@shdfnd@physx@@QEAAXI@Z 00000001800404a0 f i PhysX3ExtensionsDEBUG:ExtRigidBodyExt.obj
 0001:0003f4e0       ?reserve@?$Array@VPxTransform@physx@@V?$InlineAllocator@$0BMA@VNamedAllocator@shdfnd@physx@@@shdfnd@2@@shdfnd@physx@@QEAAXI@Z 00000001800404e0 f i PhysX3ExtensionsDEBUG:ExtRigidBodyExt.obj
 0001:0003f520       ?resize@?$Array@PEAVPxShape@physx@@V?$InlineAllocator@$0IA@VNamedAllocator@shdfnd@physx@@@shdfnd@2@@shdfnd@physx@@QEAAXIAEBQEAVPxShape@3@@Z 0000000180040520 f i PhysX3ExtensionsDEBUG:ExtRigidBodyExt.obj
 0001:0003f5f0       ?rotate@InertiaTensorComputer@Ext@physx@@QEAAXAEBVPxMat33@3@@Z 00000001800405f0 f i PhysX3ExtensionsDEBUG:ExtRigidBodyExt.obj
 0001:0003f800       ?rotateInertia@PxMassProperties@physx@@SA?AVPxMat33@2@AEBV32@AEBVPxQuat@2@@Z 0000000180040800 f i PhysX3ExtensionsDEBUG:ExtRigidBodyExt.obj
 0001:0003fa80       ?scaleDensity@InertiaTensorComputer@Ext@physx@@QEAAXM@Z 0000000180040a80 f i PhysX3ExtensionsDEBUG:ExtRigidBodyExt.obj
 0001:0003fc00       ?scaleInertia@PxMassProperties@physx@@SA?AVPxMat33@2@AEBV32@AEBVPxQuat@2@AEBVPxVec3@2@@Z 0000000180040c00 f i PhysX3ExtensionsDEBUG:ExtRigidBodyExt.obj
 0001:00040290       ?setBox@InertiaTensorComputer@Ext@physx@@QEAAXAEBVPxVec3@3@PEBVPxTransform@3@@Z 0000000180041290 f i PhysX3ExtensionsDEBUG:ExtRigidBodyExt.obj
 0001:000402e0       ?setCapsule@InertiaTensorComputer@Ext@physx@@QEAAXHMMPEBVPxTransform@3@@Z 00000001800412e0 f i PhysX3ExtensionsDEBUG:ExtRigidBodyExt.obj
 0001:00040350       ?setDiagonal@InertiaTensorComputer@Ext@physx@@QEAAXMAEBVPxVec3@3@@Z 0000000180041350 f i PhysX3ExtensionsDEBUG:ExtRigidBodyExt.obj
 0001:00040520       ?setSphere@InertiaTensorComputer@Ext@physx@@QEAAXMPEBVPxTransform@3@@Z 0000000180041520 f i PhysX3ExtensionsDEBUG:ExtRigidBodyExt.obj
 0001:00040570       ?size@?$Array@PEAVPxShape@physx@@V?$InlineAllocator@$0IA@VNamedAllocator@shdfnd@physx@@@shdfnd@2@@shdfnd@physx@@QEBAIXZ 0000000180041570 f i PhysX3ExtensionsDEBUG:ExtRigidBodyExt.obj
 0001:00040590       ?sum@PxMassProperties@physx@@SA?AV12@PEBV12@PEBVPxTransform@2@I@Z 0000000180041590 f i PhysX3ExtensionsDEBUG:ExtRigidBodyExt.obj
 0001:00040c00       ?transform@InertiaTensorComputer@Ext@physx@@QEAAXAEBVPxTransform@3@@Z 0000000180041c00 f i PhysX3ExtensionsDEBUG:ExtRigidBodyExt.obj
 0001:00040c60       ?transformFast@PxBounds3@physx@@SA?AV12@AEBVPxTransform@2@AEBV12@@Z 0000000180041c60 f i PhysX3ExtensionsDEBUG:ExtRigidBodyExt.obj
 0001:00040da0       ?transformInertiaTensor@Cm@physx@@YAXAEBVPxVec3@2@AEBVPxMat33@2@AEAV42@@Z 0000000180041da0 f i PhysX3ExtensionsDEBUG:ExtRigidBodyExt.obj
 0001:000415d0       ?translateInertia@PxMassProperties@physx@@SA?AVPxMat33@2@AEBV32@MAEBVPxVec3@2@@Z 00000001800425d0 f i PhysX3ExtensionsDEBUG:ExtRigidBodyExt.obj
 0001:000419c0       ?volume@Ext@physx@@YAMAEBVPxVec3@2@@Z 00000001800429c0 f i PhysX3ExtensionsDEBUG:ExtRigidBodyExt.obj
 0001:00041a70       ?zero@InertiaTensorComputer@Ext@physx@@QEAAXXZ 0000000180042a70 f i PhysX3ExtensionsDEBUG:ExtRigidBodyExt.obj
 0001:00041ad6       ?PxGetAssertHandler@physx@@YAAEAVPxAssertHandler@1@XZ 0000000180042ad6 f   PxFoundationDEBUG_x64:PxFoundationDEBUG_x64.dll
 0001:00041adc       ?getAllocator@shdfnd@physx@@YAAEAVPxAllocatorCallback@2@XZ 0000000180042adc f   PxFoundationDEBUG_x64:PxFoundationDEBUG_x64.dll
 0001:00041ae2       ??0NamedAllocator@shdfnd@physx@@QEAA@PEBD@Z 0000000180042ae2 f   PxFoundationDEBUG_x64:PxFoundationDEBUG_x64.dll
 0001:00041ae8       ?lock@MutexImpl@shdfnd@physx@@QEAAXXZ 0000000180042ae8 f   PxFoundationDEBUG_x64:PxFoundationDEBUG_x64.dll
 0001:00041aee       ?unlock@MutexImpl@shdfnd@physx@@QEAAXXZ 0000000180042aee f   PxFoundationDEBUG_x64:PxFoundationDEBUG_x64.dll
 0001:00041af4       PxGetProfilerCallback      0000000180042af4 f   PxFoundationDEBUG_x64:PxFoundationDEBUG_x64.dll
 0001:00041afa       ??0NamedAllocator@shdfnd@physx@@QEAA@AEBV012@@Z 0000000180042afa f   PxFoundationDEBUG_x64:PxFoundationDEBUG_x64.dll
 0001:00041b00       ??1NamedAllocator@shdfnd@physx@@QEAA@XZ 0000000180042b00 f   PxFoundationDEBUG_x64:PxFoundationDEBUG_x64.dll
 0001:00041b06       ?allocate@NamedAllocator@shdfnd@physx@@QEAAPEAX_KPEBDH@Z 0000000180042b06 f   PxFoundationDEBUG_x64:PxFoundationDEBUG_x64.dll
 0001:00041b0c       ?deallocate@NamedAllocator@shdfnd@physx@@QEAAXPEAX@Z 0000000180042b0c f   PxFoundationDEBUG_x64:PxFoundationDEBUG_x64.dll
 0001:00041b12       PxGetFoundation            0000000180042b12 f   PxFoundationDEBUG_x64:PxFoundationDEBUG_x64.dll
 0001:00041b18       ??0MutexImpl@shdfnd@physx@@QEAA@XZ 0000000180042b18 f   PxFoundationDEBUG_x64:PxFoundationDEBUG_x64.dll
 0001:00041b1e       ??1MutexImpl@shdfnd@physx@@QEAA@XZ 0000000180042b1e f   PxFoundationDEBUG_x64:PxFoundationDEBUG_x64.dll
 0001:00041b24       ?getSize@MutexImpl@shdfnd@physx@@SAIXZ 0000000180042b24 f   PxFoundationDEBUG_x64:PxFoundationDEBUG_x64.dll
 0001:00041b2a       ?getInstance@Foundation@shdfnd@physx@@SAAEAV123@XZ 0000000180042b2a f   PxFoundationDEBUG_x64:PxFoundationDEBUG_x64.dll
 0001:00041b30       ?incRefCount@Foundation@shdfnd@physx@@SAXXZ 0000000180042b30 f   PxFoundationDEBUG_x64:PxFoundationDEBUG_x64.dll
 0001:00041b36       ?decRefCount@Foundation@shdfnd@physx@@SAXXZ 0000000180042b36 f   PxFoundationDEBUG_x64:PxFoundationDEBUG_x64.dll
 0001:00041b3c       ?error@Foundation@shdfnd@physx@@QEAAXW4Enum@PxErrorCode@3@PEBDH1ZZ 0000000180042b3c f   PxFoundationDEBUG_x64:PxFoundationDEBUG_x64.dll
 0001:00041b42       ?PxShortestRotation@physx@@YA?AVPxQuat@1@AEBVPxVec3@1@0@Z 0000000180042b42 f   PxFoundationDEBUG_x64:PxFoundationDEBUG_x64.dll
 0001:00041b48       ?PxDiagonalize@physx@@YA?AVPxVec3@1@AEBVPxMat33@1@AEAVPxQuat@1@@Z 0000000180042b48 f   PxFoundationDEBUG_x64:PxFoundationDEBUG_x64.dll
 0001:00041b4e       ?sweep@PxMeshQuery@physx@@SA_NAEBVPxVec3@2@MAEBVPxGeometry@2@AEBVPxTransform@2@IPEBVPxTriangle@2@AEAUPxSweepHit@2@V?$PxFlags@W4Enum@PxHitFlag@physx@@G@2@PEBIM_N@Z 0000000180042b4e f   PhysX3CommonDEBUG_x64:PhysX3CommonDEBUG_x64.dll
 0001:00041b54       ??0RenderOutput@Cm@physx@@QEAA@AEAVRenderBuffer@12@@Z 0000000180042b54 f   PhysX3CommonDEBUG_x64:PhysX3CommonDEBUG_x64.dll
 0001:00041b5a       ??6RenderOutput@Cm@physx@@QEAAAEAV012@I@Z 0000000180042b5a f   PhysX3CommonDEBUG_x64:PhysX3CommonDEBUG_x64.dll
 0001:00041b60       ??6RenderOutput@Cm@physx@@QEAAAEAV012@AEBVPxTransform@2@@Z 0000000180042b60 f   PhysX3CommonDEBUG_x64:PhysX3CommonDEBUG_x64.dll
 0001:00041b66       ?outputCapsule@RenderOutput@Cm@physx@@QEAAAEAV123@MMAEBVPxMat44@3@@Z 0000000180042b66 f   PhysX3CommonDEBUG_x64:PhysX3CommonDEBUG_x64.dll
 0001:00041b6c       ??6Cm@physx@@YAAEAVRenderOutput@01@AEAV201@AEBUDebugBox@01@@Z 0000000180042b6c f   PhysX3CommonDEBUG_x64:PhysX3CommonDEBUG_x64.dll
 0001:00041b72       ?PxTransformFromSegment@physx@@YA?AVPxTransform@1@AEBVPxVec3@1@0PEAM@Z 0000000180042b72 f   PhysX3CommonDEBUG_x64:PhysX3CommonDEBUG_x64.dll
 0001:00041b78       ?sweep@PxGeometryQuery@physx@@SA_NAEBVPxVec3@2@MAEBVPxGeometry@2@AEBVPxTransform@2@12AEAUPxSweepHit@2@V?$PxFlags@W4Enum@PxHitFlag@physx@@G@2@M@Z 0000000180042b78 f   PhysX3CommonDEBUG_x64:PhysX3CommonDEBUG_x64.dll
 0001:00041b7e       ?computePenetration@PxGeometryQuery@physx@@SA_NAEAVPxVec3@2@AEAMAEBVPxGeometry@2@AEBVPxTransform@2@23@Z 0000000180042b7e f   PhysX3CommonDEBUG_x64:PhysX3CommonDEBUG_x64.dll
 0001:00041b84       ??0Box@Gu@physx@@QEAA@AEBVPxVec3@2@0AEBVPxMat33@2@@Z 0000000180042b84 f   PhysX3CommonDEBUG_x64:PhysX3CommonDEBUG_x64.dll
 0001:00041b8a       ??1Box@Gu@physx@@QEAA@XZ   0000000180042b8a f   PhysX3CommonDEBUG_x64:PhysX3CommonDEBUG_x64.dll
 0001:00041b90       ?intersectOBBOBB@Gu@physx@@YA_NAEBVPxVec3@2@0AEBVPxMat33@2@001_N@Z 0000000180042b90 f   PhysX3CommonDEBUG_x64:PhysX3CommonDEBUG_x64.dll
 0001:00041b96       ?distanceSegmentBoxSquared@Gu@physx@@YAMAEBVPxVec3@2@000AEBVPxMat33@2@PEAMPEAV32@@Z 0000000180042b96 f   PhysX3CommonDEBUG_x64:PhysX3CommonDEBUG_x64.dll
 0001:00041b9c       ?getTriangle@PxMeshQuery@physx@@SAXAEBVPxTriangleMeshGeometry@2@AEBVPxTransform@2@IAEAVPxTriangle@2@PEAI3@Z 0000000180042b9c f   PhysX3CommonDEBUG_x64:PhysX3CommonDEBUG_x64.dll
 0001:00041ba2       ?getTriangle@PxMeshQuery@physx@@SAXAEBVPxHeightFieldGeometry@2@AEBVPxTransform@2@IAEAVPxTriangle@2@PEAI3@Z 0000000180042ba2 f   PhysX3CommonDEBUG_x64:PhysX3CommonDEBUG_x64.dll
 0001:00041ba8       ??6RenderOutput@Cm@physx@@QEAAAEAV012@W4Primitive@012@@Z 0000000180042ba8 f   PhysX3CommonDEBUG_x64:PhysX3CommonDEBUG_x64.dll
 0001:00041bae       ??6RenderOutput@Cm@physx@@QEAAAEAV012@VPxVec3@2@@Z 0000000180042bae f   PhysX3CommonDEBUG_x64:PhysX3CommonDEBUG_x64.dll
 0001:00041bb4       ?intersectTriangleBox_Unsafe@Gu@physx@@YAHAEBVPxVec3@2@0000@Z 0000000180042bb4 f   PhysX3CommonDEBUG_x64:PhysX3CommonDEBUG_x64.dll
 0001:00041bba       ?CompleteBoxPruning@Cm@physx@@YA_NPEBVPxBounds3@2@IAEAV?$Array@IVNamedAllocator@shdfnd@physx@@@shdfnd@2@AEBVAxes@Gu@2@@Z 0000000180042bba f   PhysX3CommonDEBUG_x64:PhysX3CommonDEBUG_x64.dll
 0001:00041bc0       ?distanceSegmentSegmentSquared@Gu@physx@@YAMAEBVPxVec3@2@000PEAM1@Z 0000000180042bc0 f   PhysX3CommonDEBUG_x64:PhysX3CommonDEBUG_x64.dll
 0001:00041bc6       ?getRaycastFuncTable@Gu@physx@@YAAEAY06Q6AIAEBVPxGeometry@2@AEBVPxTransform@2@AEBVPxVec3@2@2MV?$PxFlags@W4Enum@PxHitFlag@physx@@G@2@IPEIAUPxRaycastHit@2@@ZXZ 0000000180042bc6 f   PhysX3CommonDEBUG_x64:PhysX3CommonDEBUG_x64.dll
 0001:00041bcc       ?findOverlapTriangleMesh@PxMeshQuery@physx@@SAIAEBVPxGeometry@2@AEBVPxTransform@2@AEBVPxTriangleMeshGeometry@2@1PEAIIIAEA_N@Z 0000000180042bcc f   PhysX3CommonDEBUG_x64:PhysX3CommonDEBUG_x64.dll
 0001:00041bd2       ?findOverlapHeightField@PxMeshQuery@physx@@SAIAEBVPxGeometry@2@AEBVPxTransform@2@AEBVPxHeightFieldGeometry@2@1PEAIIIAEA_N@Z 0000000180042bd2 f   PhysX3CommonDEBUG_x64:PhysX3CommonDEBUG_x64.dll
 0001:00041be0       ??3@YAXPEAX_K@Z            0000000180042be0 f   MSVCRTD:delete_scalar_size.obj
 0001:00041c10       ??_V@YAXPEAX_K@Z           0000000180042c10 f   MSVCRTD:delete_array_size.obj
 0001:00041c40       _CRT_RTC_INIT              0000000180042c40 f   MSVCRTD:_init_.obj
 0001:00041c50       _CRT_RTC_INITW             0000000180042c50 f   MSVCRTD:_init_.obj
 0001:00041c60       _RTC_InitBase              0000000180042c60 f   MSVCRTD:_init_.obj
 0001:00041cb0       _RTC_Shutdown              0000000180042cb0 f   MSVCRTD:_init_.obj
 0001:00041cf0       __chkstk                   0000000180042cf0 f   MSVCRTD:_chkstk_.obj
 0001:00041cf0       _alloca_probe              0000000180042cf0 f   MSVCRTD:_chkstk_.obj
 0001:00041d60       ?__scrt_initialize_type_info@@YAXXZ 0000000180042d60 f   MSVCRTD:tncleanup.obj
 0001:00041d80       ?__scrt_uninitialize_type_info@@YAXXZ 0000000180042d80 f   MSVCRTD:tncleanup.obj
 0001:00041da0       ??1type_info@@UEAA@XZ      0000000180042da0 f   MSVCRTD:std_type_info_static.obj
 0001:00041dc0       ??_Etype_info@@UEAAPEAXI@Z 0000000180042dc0 f i MSVCRTD:std_type_info_static.obj
 0001:00041dc0       ??_Gtype_info@@UEAAPEAXI@Z 0000000180042dc0 f i MSVCRTD:std_type_info_static.obj
 0001:00042300       _CRT_INIT                  0000000180043300 f   MSVCRTD:dll_dllmain.obj
 0001:00042340       _DllMainCRTStartup         0000000180043340 f   MSVCRTD:dll_dllmain.obj
 0001:00042390       ??3@YAXPEAX@Z              0000000180043390 f   MSVCRTD:delete_scalar.obj
 0001:000423c0       ??_V@YAXPEAX@Z             00000001800433c0 f   MSVCRTD:delete_array.obj
 0001:000423e0       ?_RTC_GetErrorFunc@@YAP6AHHPEBDH00ZZPEBX@Z 00000001800433e0 f   MSVCRTD:_userapi_.obj
 0001:000423f0       ?_RTC_GetErrorFuncW@@YAP6AHHPEB_WH00ZZPEBX@Z 00000001800433f0 f   MSVCRTD:_userapi_.obj
 0001:00042400       _RTC_GetErrDesc            0000000180043400 f   MSVCRTD:_userapi_.obj
 0001:00042420       _RTC_NumErrors             0000000180043420 f   MSVCRTD:_userapi_.obj
 0001:00042430       _RTC_SetErrorFunc          0000000180043430 f   MSVCRTD:_userapi_.obj
 0001:00042450       _RTC_SetErrorFuncW         0000000180043450 f   MSVCRTD:_userapi_.obj
 0001:00042470       _RTC_SetErrorType          0000000180043470 f   MSVCRTD:_userapi_.obj
 0001:000424a0       ??$__crt_fast_decode_pointer@PEAP6AXXZ@@YAPEAP6AXXZQEAP6AXXZ@Z 00000001800434a0 f i MSVCRTD:utility.obj
 0001:000424f0       ??$__crt_fast_encode_pointer@PEAP6AXXZ@@YAPEAP6AXXZQEAP6AXXZ@Z 00000001800434f0 f i MSVCRTD:utility.obj
 0001:00042540       ?__crt_rotate_pointer_value@@YA_K_KH@Z 0000000180043540 f i MSVCRTD:utility.obj
 0001:00042560       ?configure_argv@__scrt_narrow_argv_policy@@SAHXZ 0000000180043560 f i MSVCRTD:utility.obj
 0001:00042730       NtCurrentTeb               0000000180043730 f i MSVCRTD:utility.obj
 0001:00042740       __scrt_acquire_startup_lock 0000000180043740 f   MSVCRTD:utility.obj
 0001:000427c0       __scrt_dllmain_after_initialize_c 00000001800437c0 f   MSVCRTD:utility.obj
 0001:00042800       __scrt_dllmain_before_initialize_c 0000000180043800 f   MSVCRTD:utility.obj
 0001:00042830       __scrt_dllmain_crt_thread_attach 0000000180043830 f   MSVCRTD:utility.obj
 0001:00042870       __scrt_dllmain_crt_thread_detach 0000000180043870 f   MSVCRTD:utility.obj
 0001:00042890       __scrt_dllmain_exception_filter 0000000180043890 f   MSVCRTD:utility.obj
 0001:00042910       __scrt_dllmain_uninitialize_c 0000000180043910 f   MSVCRTD:utility.obj
 0001:00042950       __scrt_dllmain_uninitialize_critical 0000000180043950 f   MSVCRTD:utility.obj
 0001:00042970       __scrt_initialize_crt      0000000180043970 f   MSVCRTD:utility.obj
 0001:000429d0       __scrt_initialize_onexit_tables 00000001800439d0 f   MSVCRTD:utility.obj
 0001:00042b10       __scrt_is_nonwritable_in_current_image 0000000180043b10 f   MSVCRTD:utility.obj
 0001:00042bc0       __scrt_release_startup_lock 0000000180043bc0 f   MSVCRTD:utility.obj
 0001:00042c00       __scrt_uninitialize_crt    0000000180043c00 f   MSVCRTD:utility.obj
 0001:00042c50       _onexit                    0000000180043c50 f   MSVCRTD:utility.obj
 0001:00042d00       at_quick_exit              0000000180043d00 f   MSVCRTD:utility.obj
 0001:00042d70       atexit                     0000000180043d70 f   MSVCRTD:utility.obj
 0001:00042db0       __security_init_cookie     0000000180043db0 f   MSVCRTD:gs_support.obj
 0001:00042f10       DllMain                    0000000180043f10 f   MSVCRTD:dll_dllmain_stub.obj
 0001:00042f60       __local_stdio_printf_options 0000000180043f60 f i MSVCRTD:default_local_stdio_options.obj
 0001:00042f70       __local_stdio_scanf_options 0000000180043f70 f i MSVCRTD:default_local_stdio_options.obj
 0001:00042f80       __scrt_initialize_default_local_stdio_options 0000000180043f80 f   MSVCRTD:default_local_stdio_options.obj
 0001:00042fe0       __scrt_get_dyn_tls_init_callback 0000000180043fe0 f   MSVCRTD:dyn_tls_init.obj
 0001:00042ff0       __crt_debugger_hook        0000000180043ff0 f   MSVCRTD:utility_desktop.obj
 0001:00043010       __scrt_fastfail            0000000180044010 f   MSVCRTD:utility_desktop.obj
 0001:00043210       __scrt_get_show_window_mode 0000000180044210 f   MSVCRTD:utility_desktop.obj
 0001:00043280       __scrt_initialize_winrt    0000000180044280 f   MSVCRTD:utility_desktop.obj
 0001:00043290       __scrt_is_managed_app      0000000180044290 f   MSVCRTD:utility_desktop.obj
 0001:00043360       __scrt_set_unhandled_exception_filter 0000000180044360 f   MSVCRTD:utility_desktop.obj
 0001:00043380       __scrt_unhandled_exception_filter 0000000180044380 f   MSVCRTD:utility_desktop.obj
 0001:00043410       _RTC_Initialize            0000000180044410 f   MSVCRTD:_initsect_.obj
 0001:00043470       _RTC_Terminate             0000000180044470 f   MSVCRTD:_initsect_.obj
 0001:000434d0       _guard_check_icall         00000001800444d0 f i MSVCRTD:checkcfg.obj
 0001:000434f0       ??$__vcrt_va_start_verify_argument_type@QEBD@@YAXXZ 00000001800444f0 f i MSVCRTD:_error_.obj
 0001:000435d0       ?_RTC_AllocaFailure@@YAXPEAXPEAU_RTC_ALLOCA_NODE@@H@Z 00000001800445d0 f   MSVCRTD:_error_.obj
 0001:000437c0       ?_RTC_Failure@@YAXPEAXH@Z  00000001800447c0 f   MSVCRTD:_error_.obj
 0001:00043830       ?_RTC_StackFailure@@YAXPEAXPEBD@Z 0000000180044830 f   MSVCRTD:_error_.obj
 0001:00043dc0       _RTC_UninitUse             0000000180044dc0 f   MSVCRTD:_error_.obj
 0001:00043f30       _vsprintf_s_l              0000000180044f30 f i MSVCRTD:_error_.obj
 0001:00043fb0       sprintf_s                  0000000180044fb0 f i MSVCRTD:_error_.obj
 0001:00044000       __isa_available_init       0000000180045000 f   MSVCRTD:_cpu_disp_.obj
 0001:00044460       _get_startup_argv_mode     0000000180045460 f   MSVCRTD:argv_mode.obj
 0001:00044470       __scrt_is_ucrt_dll_in_use  0000000180045470 f   MSVCRTD:ucrt_detection.obj
 0001:000444a0       _guard_check_icall_nop     00000001800454a0 f i MSVCRTD:guard_support.obj
 0001:000444b0       _guard_icall_checks_enforced 00000001800454b0 f i MSVCRTD:guard_support.obj
 0001:00044b10       ?_RTC_GetSrcLine@@YAHPEAEPEA_WKPEAH1K@Z 0000000180045b10 f   MSVCRTD:_pdblkup_.obj
 0001:000450a0       __GSHandlerCheck           00000001800460a0 f   MSVCRTD:_gshandler_.obj
 0001:000450f0       __GSHandlerCheckCommon     00000001800460f0 f   MSVCRTD:_gshandler_.obj
 0001:00045240       __security_check_cookie    0000000180046240 f   MSVCRTD:_amdsecgs_.obj
 0001:00045270       __raise_securityfailure    0000000180046270 f   MSVCRTD:gs_report.obj
 0001:000452c0       __report_gsfailure         00000001800462c0 f   MSVCRTD:gs_report.obj
 0001:000453d0       __report_rangecheckfailure 00000001800463d0 f   MSVCRTD:gs_report.obj
 0001:000453f0       __report_securityfailure   00000001800463f0 f   MSVCRTD:gs_report.obj
 0001:000454c0       __report_securityfailureEx 00000001800464c0 f   MSVCRTD:gs_report.obj
 0001:000457be       _purecall                  00000001800467be f   vcruntimed:VCRUNTIME140D.dll
 0001:000457c4       memcpy                     00000001800467c4 f   vcruntimed:VCRUNTIME140D.dll
 0001:000457ca       memset                     00000001800467ca f   vcruntimed:VCRUNTIME140D.dll
 0001:000457d0       __std_type_info_name       00000001800467d0 f   vcruntimed:VCRUNTIME140D.dll
 0001:000457d6       __std_type_info_destroy_list 00000001800467d6 f   vcruntimed:VCRUNTIME140D.dll
 0001:000457dc       __C_specific_handler       00000001800467dc f   vcruntimed:VCRUNTIME140D.dll
 0001:000457e2       __vcrt_GetModuleFileNameW  00000001800467e2 f   vcruntimed:VCRUNTIME140D.dll
 0001:000457e8       __vcrt_GetModuleHandleW    00000001800467e8 f   vcruntimed:VCRUNTIME140D.dll
 0001:000457ee       __vcrt_LoadLibraryExW      00000001800467ee f   vcruntimed:VCRUNTIME140D.dll
 0001:000457f4       fabs                       00000001800467f4 f   ucrtd:ucrtbased.dll
 0001:000457fa       sqrtf                      00000001800467fa f   ucrtd:ucrtbased.dll
 0001:00045800       _fpclass                   0000000180046800 f   ucrtd:ucrtbased.dll
 0001:00045806       _CrtDbgReport              0000000180046806 f   ucrtd:ucrtbased.dll
 0001:0004580c       _CrtDbgReportW             000000018004680c f   ucrtd:ucrtbased.dll
 0001:00045812       _initterm                  0000000180046812 f   ucrtd:ucrtbased.dll
 0001:00045818       _initterm_e                0000000180046818 f   ucrtd:ucrtbased.dll
 0001:0004581e       _free_dbg                  000000018004681e f   ucrtd:ucrtbased.dll
 0001:00045824       _seh_filter_dll            0000000180046824 f   ucrtd:ucrtbased.dll
 0001:0004582a       _configure_narrow_argv     000000018004682a f   ucrtd:ucrtbased.dll
 0001:00045830       _initialize_narrow_environment 0000000180046830 f   ucrtd:ucrtbased.dll
 0001:00045836       _initialize_onexit_table   0000000180046836 f   ucrtd:ucrtbased.dll
 0001:0004583c       _register_onexit_function  000000018004683c f   ucrtd:ucrtbased.dll
 0001:00045842       _execute_onexit_table      0000000180046842 f   ucrtd:ucrtbased.dll
 0001:00045848       _crt_atexit                0000000180046848 f   ucrtd:ucrtbased.dll
 0001:0004584e       _crt_at_quick_exit         000000018004684e f   ucrtd:ucrtbased.dll
 0001:00045854       _cexit                     0000000180046854 f   ucrtd:ucrtbased.dll
 0001:0004585a       terminate                  000000018004685a f   ucrtd:ucrtbased.dll
 0001:00045860       __stdio_common_vsprintf_s  0000000180046860 f   ucrtd:ucrtbased.dll
 0001:00045866       _wmakepath_s               0000000180046866 f   ucrtd:ucrtbased.dll
 0001:0004586c       _wsplitpath_s              000000018004686c f   ucrtd:ucrtbased.dll
 0001:00045872       wcscpy_s                   0000000180046872 f   ucrtd:ucrtbased.dll
 0001:00045878       InitializeSListHead        0000000180046878 f   kernel32:KERNEL32.dll
 0001:0004587e       QueryPerformanceCounter    000000018004687e f   kernel32:KERNEL32.dll
 0001:00045884       GetCurrentProcessId        0000000180046884 f   kernel32:KERNEL32.dll
 0001:0004588a       GetCurrentThreadId         000000018004688a f   kernel32:KERNEL32.dll
 0001:00045890       GetSystemTimeAsFileTime    0000000180046890 f   kernel32:KERNEL32.dll
 0001:00045896       DisableThreadLibraryCalls  0000000180046896 f   kernel32:KERNEL32.dll
 0001:0004589c       RtlCaptureContext          000000018004689c f   kernel32:KERNEL32.dll
 0001:000458a2       RtlLookupFunctionEntry     00000001800468a2 f   kernel32:KERNEL32.dll
 0001:000458a8       RtlVirtualUnwind           00000001800468a8 f   kernel32:KERNEL32.dll
 0001:000458ae       IsDebuggerPresent          00000001800468ae f   kernel32:KERNEL32.dll
 0001:000458b4       UnhandledExceptionFilter   00000001800468b4 f   kernel32:KERNEL32.dll
 0001:000458ba       SetUnhandledExceptionFilter 00000001800468ba f   kernel32:KERNEL32.dll
 0001:000458c0       GetStartupInfoW            00000001800468c0 f   kernel32:KERNEL32.dll
 0001:000458c6       IsProcessorFeaturePresent  00000001800468c6 f   kernel32:KERNEL32.dll
 0001:000458cc       GetModuleHandleW           00000001800468cc f   kernel32:KERNEL32.dll
 0001:000458d2       RaiseException             00000001800468d2 f   kernel32:KERNEL32.dll
 0001:000458d8       MultiByteToWideChar        00000001800468d8 f   kernel32:KERNEL32.dll
 0001:000458de       WideCharToMultiByte        00000001800468de f   kernel32:KERNEL32.dll
 0001:000458e4       GetLastError               00000001800468e4 f   kernel32:KERNEL32.dll
 0001:000458ea       HeapAlloc                  00000001800468ea f   kernel32:KERNEL32.dll
 0001:000458f0       HeapFree                   00000001800468f0 f   kernel32:KERNEL32.dll
 0001:000458f6       GetProcessHeap             00000001800468f6 f   kernel32:KERNEL32.dll
 0001:000458fc       VirtualQuery               00000001800468fc f   kernel32:KERNEL32.dll
 0001:00045902       FreeLibrary                0000000180046902 f   kernel32:KERNEL32.dll
 0001:00045908       GetProcAddress             0000000180046908 f   kernel32:KERNEL32.dll
 0001:0004590e       GetCurrentProcess          000000018004690e f   kernel32:KERNEL32.dll
 0001:00045914       TerminateProcess           0000000180046914 f   kernel32:KERNEL32.dll
 0001:00045920       __acrt_initialize          0000000180046920 f   MSVCRTD:ucrt_stubs.obj
 0001:00045920       __vcrt_initialize          0000000180046920 f   MSVCRTD:ucrt_stubs.obj
 0001:00045920       __scrt_stub_for_acrt_initialize 0000000180046920 f   MSVCRTD:ucrt_stubs.obj
 0001:00045930       __scrt_stub_for_acrt_thread_attach 0000000180046930 f   MSVCRTD:ucrt_stubs.obj
 0001:00045930       __vcrt_thread_attach       0000000180046930 f   MSVCRTD:ucrt_stubs.obj
 0001:00045930       __acrt_thread_attach       0000000180046930 f   MSVCRTD:ucrt_stubs.obj
 0001:00045940       __acrt_thread_detach       0000000180046940 f   MSVCRTD:ucrt_stubs.obj
 0001:00045940       __scrt_stub_for_acrt_thread_detach 0000000180046940 f   MSVCRTD:ucrt_stubs.obj
 0001:00045940       __vcrt_thread_detach       0000000180046940 f   MSVCRTD:ucrt_stubs.obj
 0001:00045950       __vcrt_uninitialize        0000000180046950 f   MSVCRTD:ucrt_stubs.obj
 0001:00045950       __acrt_uninitialize        0000000180046950 f   MSVCRTD:ucrt_stubs.obj
 0001:00045950       __scrt_stub_for_acrt_uninitialize 0000000180046950 f   MSVCRTD:ucrt_stubs.obj
 0001:00045960       __acrt_uninitialize_critical 0000000180046960 f   MSVCRTD:ucrt_stubs.obj
 0001:00045960       __scrt_stub_for_acrt_uninitialize_critical 0000000180046960 f   MSVCRTD:ucrt_stubs.obj
 0001:00045960       __vcrt_uninitialize_critical 0000000180046960 f   MSVCRTD:ucrt_stubs.obj
 0001:00045970       __scrt_stub_for_is_c_termination_complete 0000000180046970 f   MSVCRTD:ucrt_stubs.obj
 0001:00045970       _is_c_termination_complete 0000000180046970 f   MSVCRTD:ucrt_stubs.obj
 0001:00047410       _guard_dispatch_icall_nop  0000000180048410 f   MSVCRTD:_guard_dispatch_.obj
 0002:00000000       __xc_a                     000000018004b000     MSVCRTD:initializers.obj
 0002:00000250       __xc_z                     000000018004b250     MSVCRTD:initializers.obj
 0002:00000360       __xi_a                     000000018004b360     MSVCRTD:initializers.obj
 0002:00000470       __xi_z                     000000018004b470     MSVCRTD:initializers.obj
 0002:00000580       __xp_a                     000000018004b580     MSVCRTD:initializers.obj
 0002:00000690       __xp_z                     000000018004b690     MSVCRTD:initializers.obj
 0002:000007a0       __xt_a                     000000018004b7a0     MSVCRTD:initializers.obj
 0002:000008b0       __xt_z                     000000018004b8b0     MSVCRTD:initializers.obj
 0002:000009c0       ??_7PxController@physx@@6B@ 000000018004b9c0     CctBoxController.obj
 0002:00000ac0       ??_7PxControllerManager@physx@@6B@ 000000018004bac0     CctBoxController.obj
 0002:00000b70       ??_7PxFoundation@physx@@6B@ 000000018004bb70     CctBoxController.obj
 0002:00000bc0       ??_7PxBoxController@physx@@6B@ 000000018004bbc0     CctBoxController.obj
 0002:00000cf8       ??_7BoxController@Cct@physx@@6BPxBoxController@2@@ 000000018004bcf8     CctBoxController.obj
 0002:00000e30       ??_7BoxController@Cct@physx@@6BController@12@@ 000000018004be30     CctBoxController.obj
 0002:00000e58       ??_C@_0DH@ONIDOKIM@?4?4?2?4?4?2PhysXCharacterKinematic?2sr@ 000000018004be58     CctBoxController.obj
 0002:00000ea0       ??_C@_0DB@EHPECLAO@shape?9?$DOgetGeometryType?$CI?$CJ?5?$DN?$DN?5PxGe@ 000000018004bea0     CctBoxController.obj
 0002:00000edc       __real@00000000            000000018004bedc     CctBoxController.obj
 0002:00000ee0       __real@3f000000            000000018004bee0     CctBoxController.obj
 0002:00000ee8       ??_7PxCapsuleController@physx@@6B@ 000000018004bee8     CctCapsuleController.obj
 0002:00001020       ??_7CapsuleController@Cct@physx@@6BPxCapsuleController@2@@ 000000018004c020     CctCapsuleController.obj
 0002:00001158       ??_7CapsuleController@Cct@physx@@6BController@12@@ 000000018004c158     CctCapsuleController.obj
 0002:00001180       ??_C@_0DL@DGAPCADK@?4?4?2?4?4?2PhysXCharacterKinematic?2sr@ 000000018004c180     CctCapsuleController.obj
 0002:000011c8       ??_C@_0DF@ELIHFCHJ@shape?9?$DOgetGeometryType?$CI?$CJ?5?$DN?$DN?5PxGe@ 000000018004c1c8     CctCapsuleController.obj
 0002:00001230       ??_C@_0EO@BIHBNCGC@D?3?2FING?2pgraf?2cga?9oblig2?2cga_obl@ 000000018004c230     CctCharacterController.obj
 0002:00001290       ??_C@_0M@BJFDEEID@q0?4isSane?$CI?$CJ?$AA@ 000000018004c290     CctCharacterController.obj
 0002:000012a0       ??_C@_0L@NKGFAGDB@x?4isSane?$CI?$CJ?$AA@ 000000018004c2a0     CctCharacterController.obj
 0002:000012b0       ??_C@_0L@EGHDLJIP@isFinite?$CI?$CJ?$AA@ 000000018004c2b0     CctCharacterController.obj
 0002:000012c0       ??_C@_0N@PMAOLNPB@src?4isSane?$CI?$CJ?$AA@ 000000018004c2c0     CctCharacterController.obj
 0002:000012d0       ??_C@_08ECJOCDKG@isSane?$CI?$CJ?$AA@ 000000018004c2d0     CctCharacterController.obj
 0002:000012e0       ??_7?$PxHitCallback@UPxRaycastHit@physx@@@physx@@6B@ 000000018004c2e0     CctCharacterController.obj
 0002:00001300       ??_7?$PxHitBuffer@UPxRaycastHit@physx@@@physx@@6B@ 000000018004c300     CctCharacterController.obj
 0002:00001320       ??_7PxQueryFilterCallback@physx@@6B@ 000000018004c320     CctCharacterController.obj
 0002:00001340       ??_C@_0EM@OFANLKJP@D?3?2FING?2pgraf?2cga?9oblig2?2cga_obl@ 000000018004c340     CctCharacterController.obj
 0002:000013a0       ??_C@_09GLGJMIMJ@isValid?$CI?$CJ?$AA@ 000000018004c3a0     CctCharacterController.obj
 0002:000013ac       ??_C@_01GBGANLPD@0?$AA@    000000018004c3ac     CctCharacterController.obj
 0002:000013b0       ??_C@_0GG@GBCNKIIH@d?3?2fing?2pgraf?2cga?9oblig2?2cga_obl@ 000000018004c3b0     CctCharacterController.obj
 0002:00001430       ??_C@_0O@PJIOIGML@index?$DM?$DN0xffff?$AA@ 000000018004c430     CctCharacterController.obj
 0002:00001440       ??_C@_0BE@OJANCLEE@PxU32?$CItype?$CJ?$DM?$DN0xffff?$AA@ 000000018004c440     CctCharacterController.obj
 0002:00001458       ??_C@_0DN@CCDLNKB@?4?4?2?4?4?2PhysXCharacterKinematic?2sr@ 000000018004c458     CctCharacterController.obj
 0002:000014a8       ??_C@_0CJ@IKHMJDFI@volume?9?$DOgetType?$CI?$CJ?$DN?$DNSweptVolumeTy@ 000000018004c4a8     CctCharacterController.obj
 0002:000014e0       ??_C@_0CI@GAJNEGBI@geom?9?$DOmType?$DN?$DNTouchedGeomType?3?3eU@ 000000018004c4e0     CctCharacterController.obj
 0002:00001510       ??_C@_0CM@GPMPGHMM@geom?9?$DOmType?$DN?$DNTouchedGeomType?3?3eU@ 000000018004c510     CctCharacterController.obj
 0002:00001548       ??_C@_0BM@PIBPPICD@sweepHit?4faceIndex?5?$DM?5nbTris?$AA@ 000000018004c548     CctCharacterController.obj
 0002:00001570       ??_C@_0CE@HELNLPHM@geom?9?$DOmType?$DN?$DNTouchedGeomType?3?3eM@ 000000018004c570     CctCharacterController.obj
 0002:000015a0       ??_C@_0CN@HICDABOB@volume?9?$DOgetType?$CI?$CJ?$DN?$DNSweptVolumeTy@ 000000018004c5a0     CctCharacterController.obj
 0002:000015d8       ??_C@_0CD@MCGKGDGK@geom?9?$DOmType?$DN?$DNTouchedGeomType?3?3eB@ 000000018004c5d8     CctCharacterController.obj
 0002:00001608       ??_C@_0CG@LLMCKHDB@geom?9?$DOmType?$DN?$DNTouchedGeomType?3?3eS@ 000000018004c608     CctCharacterController.obj
 0002:00001638       ??_C@_0CH@PDFKDOGO@geom?9?$DOmType?$DN?$DNTouchedGeomType?3?3eC@ 000000018004c638     CctCharacterController.obj
 0002:00001668       ??_C@_0N@MFKFIMLH@touchedActor?$AA@ 000000018004c668     CctCharacterController.obj
 0002:00001678       ??_C@_0N@IJFFNJEA@touchedShape?$AA@ 000000018004c678     CctCharacterController.obj
 0002:00001688       ??_C@_0CI@PHBIPOMN@volume?4getType?$CI?$CJ?$DN?$DNSweptVolumeTyp@ 000000018004c688     CctCharacterController.obj
 0002:000016b8       ??_C@_0M@GAENHLJE@depth?$DO?$DN0?40f?$AA@ 000000018004c6b8     CctCharacterController.obj
 0002:000016c8       ??_C@_0P@IIJOLIBL@mtd?4isFinite?$CI?$CJ?$AA@ 000000018004c6c8     CctCharacterController.obj
 0002:000016e0       ??_C@_0BC@ELKFBCAO@PxIsFinite?$CIdepth?$CJ?$AA@ 000000018004c6e0     CctCharacterController.obj
 0002:000016f8       ??_C@_0BJ@ONMIBLA@sweepTestTriangleIndices?$AA@ 000000018004c6f8     CctCharacterController.obj
 0002:00001718       ??_C@_0BA@MNOANCHM@sweepTestStream?$AA@ 000000018004c718     CctCharacterController.obj
 0002:00001730       ??_C@_0CB@PCJHOHAI@startIndex?5?$DM?$DN?5mGeomStream?4size?$CI?$CJ@ 000000018004c730     CctCharacterController.obj
 0002:00001758       ??_C@_0BP@HPNLMLEJ@obstacleHit?4distance?$DM?$DNdistance?$AA@ 000000018004c758     CctCharacterController.obj
 0002:00001780       ??_C@_0CI@GHLNKOJE@worldTemporalBox?4isInside?$CImCache@ 000000018004c780     CctCharacterController.obj
 0002:000017b0       ??_C@_0CE@KHMGPOAO@mTriangleIndices?4size?$CI?$CJ?$DN?$DNmNbCach@ 000000018004c7b0     CctCharacterController.obj
 0002:000017e0       ??_C@_0CA@CFKKDOLG@CharacterController?4doSweepTest?$AA@ 000000018004c7e0     CctCharacterController.obj
 0002:00001808       ??_C@_07GDNEKBEC@C?4mGeom?$AA@ 000000018004c808     CctCharacterController.obj
 0002:00001818       ??_C@_0CC@KMLEHBGF@CharacterController?4moveCharacte@ 000000018004c818     CctCharacterController.obj
 0002:00001840       ??_7ControllerFilter@@6B@  000000018004c840     CctCharacterController.obj
 0002:00001860       ??_C@_0FM@ODFOFIFF@?$CBmCctModule?4mTouchedShape?5?$CG?$CG?5?$CImC@ 000000018004c860     CctCharacterController.obj
 0002:000018d0       ??_C@_0BA@PFLCEBBK@hit?4block?4shape?$AA@ 000000018004c8d0     CctCharacterController.obj
 0002:000018e8       ??_C@_0BA@LJECBEON@hit?4block?4actor?$AA@ 000000018004c8e8     CctCharacterController.obj
 0002:00001900       ??_C@_0CG@GNJEGHJI@hit?4block?4distance?$DM?$DNprobeLength?$CL@ 000000018004c900     CctCharacterController.obj
 0002:00001930       ??_C@_0CI@KOAHEKEJ@obstacleHit?4distance?$DM?$DNprobeLengt@ 000000018004c930     CctCharacterController.obj
 0002:00001960       ??_C@_0FL@CLNJAPLP@mCctModule?4mTouchedShape?5?$HM?$HM?5?$CImCc@ 000000018004c960     CctCharacterController.obj
 0002:000019d0       ??_C@_0BA@ONBGHLD@touchedObstacle?$AA@ 000000018004c9d0     CctCharacterController.obj
 0002:000019e8       ??_C@_0BE@LBOOBFNF@?$CBboxUserData?4size?$CI?$CJ?$AA@ 000000018004c9e8     CctCharacterController.obj
 0002:00001a00       ??_C@_0O@CDECJDME@?$CBboxes?4size?$CI?$CJ?$AA@ 000000018004ca00     CctCharacterController.obj
 0002:00001a10       ??_C@_0BI@MHBCHGEC@?$CBcapsuleUserData?4size?$CI?$CJ?$AA@ 000000018004ca10     CctCharacterController.obj
 0002:00001a30       ??_C@_0BB@FCMKKCBJ@?$CBcapsules?4size?$CI?$CJ?$AA@ 000000018004ca30     CctCharacterController.obj
 0002:00001a48       ??_C@_0CP@PMDHKMKE@CharacterController?4filterCandid@ 000000018004ca48     CctCharacterController.obj
 0002:00001a80       ??_C@_0BJ@FHANBDIB@CharacterController?4move?$AA@ 000000018004ca80     CctCharacterController.obj
 0002:00001aa0       ??_C@_0EO@DNCJKIDL@D?3?2FING?2pgraf?2cga?9oblig2?2cga_obl@ 000000018004caa0     CctCharacterController.obj
 0002:00001b00       ??_C@_09GCLCCGEM@i?5?$DM?5mSize?$AA@ 000000018004cb00     CctCharacterController.obj
 0002:00001b10       ??_C@_0BC@GKLGGHPD@size?5?$DM?$DN?5mCapacity?$AA@ 000000018004cb10     CctCharacterController.obj
 0002:00001b30       ??_C@_0EG@HBKMDKKL@d?3?2fing?2pgraf?2cga?9oblig2?2cga_obl@ 000000018004cb30     CctCharacterController.obj
 0002:00001b88       ??_C@_0CP@NAHMKKEN@index?5?$DM?5getNbTouches?$CI?$CJ?5?$CL?5PxU32?$CIt@ 000000018004cb88     CctCharacterController.obj
 0002:00001bc0       ??_C@_0BM@BMFMDKFG@this?9?$DOcapacity?$CI?$CJ?5?$DM?5capacity?$AA@ 000000018004cbc0     CctCharacterController.obj
 0002:00001be8       ??_C@_0CP@CPGGIPKL@?$CI?$CBcapacity?$CJ?5?$HM?$HM?5?$CInewData?5?$CG?$CG?5?$CInewD@ 000000018004cbe8     CctCharacterController.obj
 0002:00001c20       __real@34000000            000000018004cc20     CctCharacterController.obj
 0002:00001c24       __real@358637bd            000000018004cc24     CctCharacterController.obj
 0002:00001c28       __real@3c23d70a            000000018004cc28     CctCharacterController.obj
 0002:00001c2c       __real@3ee66666            000000018004cc2c     CctCharacterController.obj
 0002:00001c30       __real@3f800000            000000018004cc30     CctCharacterController.obj
 0002:00001c34       __real@3fc00000            000000018004cc34     CctCharacterController.obj
 0002:00001c38       __real@40000000            000000018004cc38     CctCharacterController.obj
 0002:00001c3c       __real@41200000            000000018004cc3c     CctCharacterController.obj
 0002:00001c40       __real@7e7fffff            000000018004cc40     CctCharacterController.obj
 0002:00001c44       __real@7f7fffff            000000018004cc44     CctCharacterController.obj
 0002:00001c48       __real@7fefffffffffffff    000000018004cc48     CctCharacterController.obj
 0002:00001c54       __real@fe7fffff            000000018004cc54     CctCharacterController.obj
 0002:00001c58       __real@ffefffffffffffff    000000018004cc58     CctCharacterController.obj
 0002:00001c70       __xmm@80000000800000008000000080000000 000000018004cc70     CctCharacterController.obj
 0002:00001cc0       ?g_PXSinCoefficients0@aos@shdfnd@physx@@3UPX_VECTORF32@123@B 000000018004ccc0     CctCharacterControllerCallbacks.obj
 0002:00001ce0       ?g_PXSinCoefficients1@aos@shdfnd@physx@@3UPX_VECTORF32@123@B 000000018004cce0     CctCharacterControllerCallbacks.obj
 0002:00001d00       ?g_PXSinCoefficients2@aos@shdfnd@physx@@3UPX_VECTORF32@123@B 000000018004cd00     CctCharacterControllerCallbacks.obj
 0002:00001d20       ?g_PXCosCoefficients0@aos@shdfnd@physx@@3UPX_VECTORF32@123@B 000000018004cd20     CctCharacterControllerCallbacks.obj
 0002:00001d40       ?g_PXCosCoefficients1@aos@shdfnd@physx@@3UPX_VECTORF32@123@B 000000018004cd40     CctCharacterControllerCallbacks.obj
 0002:00001d60       ?g_PXCosCoefficients2@aos@shdfnd@physx@@3UPX_VECTORF32@123@B 000000018004cd60     CctCharacterControllerCallbacks.obj
 0002:00001d80       ?g_PXTanCoefficients0@aos@shdfnd@physx@@3UPX_VECTORF32@123@B 000000018004cd80     CctCharacterControllerCallbacks.obj
 0002:00001da0       ?g_PXTanCoefficients1@aos@shdfnd@physx@@3UPX_VECTORF32@123@B 000000018004cda0     CctCharacterControllerCallbacks.obj
 0002:00001dc0       ?g_PXTanCoefficients2@aos@shdfnd@physx@@3UPX_VECTORF32@123@B 000000018004cdc0     CctCharacterControllerCallbacks.obj
 0002:00001de0       ?g_PXASinCoefficients0@aos@shdfnd@physx@@3UPX_VECTORF32@123@B 000000018004cde0     CctCharacterControllerCallbacks.obj
 0002:00001e00       ?g_PXASinCoefficients1@aos@shdfnd@physx@@3UPX_VECTORF32@123@B 000000018004ce00     CctCharacterControllerCallbacks.obj
 0002:00001e20       ?g_PXASinCoefficients2@aos@shdfnd@physx@@3UPX_VECTORF32@123@B 000000018004ce20     CctCharacterControllerCallbacks.obj
 0002:00001e40       ?g_PXATanCoefficients0@aos@shdfnd@physx@@3UPX_VECTORF32@123@B 000000018004ce40     CctCharacterControllerCallbacks.obj
 0002:00001e60       ?g_PXATanCoefficients1@aos@shdfnd@physx@@3UPX_VECTORF32@123@B 000000018004ce60     CctCharacterControllerCallbacks.obj
 0002:00001e80       ?g_PXATanCoefficients2@aos@shdfnd@physx@@3UPX_VECTORF32@123@B 000000018004ce80     CctCharacterControllerCallbacks.obj
 0002:00001ea0       ?g_PXSinEstCoefficients@aos@shdfnd@physx@@3UPX_VECTORF32@123@B 000000018004cea0     CctCharacterControllerCallbacks.obj
 0002:00001ec0       ?g_PXCosEstCoefficients@aos@shdfnd@physx@@3UPX_VECTORF32@123@B 000000018004cec0     CctCharacterControllerCallbacks.obj
 0002:00001ee0       ?g_PXTanEstCoefficients@aos@shdfnd@physx@@3UPX_VECTORF32@123@B 000000018004cee0     CctCharacterControllerCallbacks.obj
 0002:00001f00       ?g_PXATanEstCoefficients@aos@shdfnd@physx@@3UPX_VECTORF32@123@B 000000018004cf00     CctCharacterControllerCallbacks.obj
 0002:00001f20       ?g_PXASinEstCoefficients@aos@shdfnd@physx@@3UPX_VECTORF32@123@B 000000018004cf20     CctCharacterControllerCallbacks.obj
 0002:00001f40       ?g_PXASinEstConstants@aos@shdfnd@physx@@3UPX_VECTORF32@123@B 000000018004cf40     CctCharacterControllerCallbacks.obj
 0002:00001f60       ?g_PXPiConstants0@aos@shdfnd@physx@@3UPX_VECTORF32@123@B 000000018004cf60     CctCharacterControllerCallbacks.obj
 0002:00001f80       ?g_PXReciprocalTwoPi@aos@shdfnd@physx@@3UPX_VECTORF32@123@B 000000018004cf80     CctCharacterControllerCallbacks.obj
 0002:00001fa0       ?g_PXTwoPi@aos@shdfnd@physx@@3UPX_VECTORF32@123@B 000000018004cfa0     CctCharacterControllerCallbacks.obj
 0002:00001fc0       ??_C@_0EJ@IAHNGHFO@D?3?2FING?2pgraf?2cga?9oblig2?2cga_obl@ 000000018004cfc0     CctCharacterControllerCallbacks.obj
 0002:00002018       ??_C@_0L@ICMNFAAK@index?5?$DM?$DN?52?$AA@ 000000018004d018     CctCharacterControllerCallbacks.obj
 0002:00002028       ??_7?$PxHitCallback@UPxOverlapHit@physx@@@physx@@6B@ 000000018004d028     CctCharacterControllerCallbacks.obj
 0002:00002048       ??_7?$PxHitBuffer@UPxOverlapHit@physx@@@physx@@6B@ 000000018004d048     CctCharacterControllerCallbacks.obj
 0002:00002070       ??_C@_0EG@BDPBDCDH@?4?4?2?4?4?2PhysXCharacterKinematic?2sr@ 000000018004d070     CctCharacterControllerCallbacks.obj
 0002:000020c8       ??_C@_0DI@JEIEIFFC@planeShape?9?$DOgetGeometryType?$CI?$CJ?5?$DN?$DN@ 000000018004d0c8     CctCharacterControllerCallbacks.obj
 0002:00002110       ??_C@_0DK@DKFHFJAH@sphereShape?9?$DOgetGeometryType?$CI?$CJ?5?$DN@ 000000018004d110     CctCharacterControllerCallbacks.obj
 0002:00002158       ??_C@_0DM@CFAOBFIC@capsuleShape?9?$DOgetGeometryType?$CI?$CJ?5@ 000000018004d158     CctCharacterControllerCallbacks.obj
 0002:000021a0       ??_C@_0DE@KNPLDBPE@boxShape?9?$DOgetGeometryType?$CI?$CJ?5?$DN?$DN?5P@ 000000018004d1a0     CctCharacterControllerCallbacks.obj
 0002:000021e0       ??_C@_0DO@NNKEOCBE@meshShape?9?$DOgetGeometryType?$CI?$CJ?5?$DN?$DN?5@ 000000018004d1e0     CctCharacterControllerCallbacks.obj
 0002:00002230       ??_C@_0DL@CCMNBOHE@hfShape?9?$DOgetGeometryType?$CI?$CJ?5?$DN?$DN?5Px@ 000000018004d230     CctCharacterControllerCallbacks.obj
 0002:00002278       ??_C@_0DO@HGDLFPJM@convexShape?9?$DOgetGeometryType?$CI?$CJ?5?$DN@ 000000018004d278     CctCharacterControllerCallbacks.obj
 0002:000022c8       ??_C@_0O@CCMLNFEO@cg?4convexMesh?$AA@ 000000018004d2c8     CctCharacterControllerCallbacks.obj
 0002:000022d8       ??_C@_08BPIOMALF@userData?$AA@ 000000018004d2d8     CctCharacterControllerCallbacks.obj
 0002:000022e8       ??_C@_0CI@EALPEGI@CharacterController?4findTouchedG@ 000000018004d2e8     CctCharacterControllerCallbacks.obj
 0002:00002318       ??_C@_0DG@PFAIDLKM@index?$DMcontroller?9?$DOgetCctManager?$CI@ 000000018004d318     CctCharacterControllerCallbacks.obj
 0002:00002358       ??_C@_0BI@ODLPKEII@internalData?9?$DOobstacles?$AA@ 000000018004d358     CctCharacterControllerCallbacks.obj
 0002:00002378       ??_C@_0DE@DDAKFDEF@index?$DMinternalData?9?$DOobstacles?9?$DOm@ 000000018004d378     CctCharacterControllerCallbacks.obj
 0002:000023b8       ??_C@_0DI@GFNCLEGH@index?$DMinternalData?9?$DOobstacles?9?$DOm@ 000000018004d3b8     CctCharacterControllerCallbacks.obj
 0002:000023fc       __real@3a83126f            000000018004d3fc     CctCharacterControllerCallbacks.obj
 0002:00002400       __real@3f7ff972            000000018004d400     CctCharacterControllerCallbacks.obj
 0002:00002404       __real@7f7fc99e            000000018004d404     CctCharacterControllerCallbacks.obj
 0002:00002408       __real@ba83126f            000000018004d408     CctCharacterControllerCallbacks.obj
 0002:00002410       __xmm@80000000000000008000000000000000 000000018004d410     CctCharacterControllerCallbacks.obj
 0002:00002428       ??_7PxRenderBuffer@physx@@6B@ 000000018004d428     CctCharacterControllerManager.obj
 0002:00002498       ??_7PxDeletionListener@physx@@6B@ 000000018004d498     CctCharacterControllerManager.obj
 0002:000024b0       ??_C@_0BA@DLCJDKDM@NonTrackedAlloc?$AA@ 000000018004d4b0     CctCharacterControllerManager.obj
 0002:000024c8       ??_7RenderBuffer@Cm@physx@@6B@ 000000018004d4c8     CctCharacterControllerManager.obj
 0002:00002538       ??_C@_0BD@LANCFJDL@renderBufferPoints?$AA@ 000000018004d538     CctCharacterControllerManager.obj
 0002:00002550       ??_C@_0BC@OOFKEPCD@renderBufferLines?$AA@ 000000018004d550     CctCharacterControllerManager.obj
 0002:00002568       ??_C@_0BG@IFGFFBGL@renderBufferTriangles?$AA@ 000000018004d568     CctCharacterControllerManager.obj
 0002:00002588       ??_C@_0BC@KMLJODNA@renderBufferTexts?$AA@ 000000018004d588     CctCharacterControllerManager.obj
 0002:000025a0       ??_C@_0BE@CNABNMDL@renderBufferCharBuf?$AA@ 000000018004d5a0     CctCharacterControllerManager.obj
 0002:000025b8       ??_7CharacterControllerManager@Cct@physx@@6BPxControllerManager@2@@ 000000018004d5b8     CctCharacterControllerManager.obj
 0002:00002668       ??_7CharacterControllerManager@Cct@physx@@6BPxDeletionListener@2@@ 000000018004d668     CctCharacterControllerManager.obj
 0002:00002680       ??_C@_0EE@IHHKBLHK@?4?4?2?4?4?2PhysXCharacterKinematic?2sr@ 000000018004d680     CctCharacterControllerManager.obj
 0002:000026d8       ??_C@_0DJ@FJGFFNLM@PxControllerManager?3?3getControll@ 000000018004d6d8     CctCharacterControllerManager.obj
 0002:00002720       ??_C@_0BE@GJLBACLN@mControllers?$FLindex?$FN?$AA@ 000000018004d720     CctCharacterControllerManager.obj
 0002:00002740       ??_C@_0EJ@KDOFHNEM@INTERNAL?5ERROR?5?9?5invalid?5CCT?5typ@ 000000018004d740     CctCharacterControllerManager.obj
 0002:00002798       ??_C@_05HHJOEFFG@nb?$DN?$DN1?$AA@ 000000018004d798     CctCharacterControllerManager.obj
 0002:000027a0       ??_C@_0DE@PHNAMEOL@deletionEvent?5?$DN?$DN?5PxDeletionEvent@ 000000018004d7a0     CctCharacterControllerManager.obj
 0002:000027e0       ??_C@_0BE@NGHGDLPG@refCounter?4refCount?$AA@ 000000018004d7e0     CctCharacterControllerManager.obj
 0002:000027f8       ??_C@_0DO@NLBEEDJJ@PxControllerManager?3?3getObstacle@ 000000018004d7f8     CctCharacterControllerManager.obj
 0002:00002848       ??_C@_0BJ@KJGCJBBH@mObstacleContexts?$FLindex?$FN?$AA@ 000000018004d848     CctCharacterControllerManager.obj
 0002:00002868       ??_C@_0DH@IABGKCMP@mObstacleContexts?4find?$CI?$CGoc?$CJ?5?$CB?$DN?5m@ 000000018004d868     CctCharacterControllerManager.obj
 0002:000028b0       ??_C@_0P@MMCGCBLL@?$CBmBoxes?4size?$CI?$CJ?$AA@ 000000018004d8b0     CctCharacterControllerManager.obj
 0002:000028c8       ??_C@_0BC@JBELOEOA@?$CBmCapsules?4size?$CI?$CJ?$AA@ 000000018004d8c8     CctCharacterControllerManager.obj
 0002:000028e0       ??_C@_07LNPFLBPN@entity0?$AA@ 000000018004d8e0     CctCharacterControllerManager.obj
 0002:000028f0       ??_C@_07KEOOIALM@entity1?$AA@ 000000018004d8f0     CctCharacterControllerManager.obj
 0002:00002900       ??_C@_0CM@LDNMFPKK@entity0?9?$DOmType?$DN?$DNPxControllerShap@ 000000018004d900     CctCharacterControllerManager.obj
 0002:00002938       ??_C@_0CM@DOFEKCEI@entity1?9?$DOmType?$DN?$DNPxControllerShap@ 000000018004d938     CctCharacterControllerManager.obj
 0002:00002970       ??_C@_0DA@EMJKANDJ@CharacterControllerManager?3?3comp@ 000000018004d970     CctCharacterControllerManager.obj
 0002:000029b0       ??_C@_0EO@DEEEKBEC@D?3?2FING?2pgraf?2cga?9oblig2?2cga_obl@ 000000018004d9b0     CctCharacterControllerManager.obj
 0002:00002a10       ??_C@_0FG@DHOOGHHC@d?3?2fing?2pgraf?2cga?9oblig2?2cga_obl@ 000000018004da10     CctCharacterControllerManager.obj
 0002:00002a80       ??_C@_0EK@CFJIEPPJ@?$CImFreeList?5?$DN?$DN?5EOL?$CJ?5?$HM?$HM?5?$CIcompactin@ 000000018004da80     CctCharacterControllerManager.obj
 0002:00002ad8       ??_C@_0BB@GDPMDOF@?$CBfreeListEmpty?$CI?$CJ?$AA@ 000000018004dad8     CctCharacterControllerManager.obj
 0002:00002af0       ??_C@_0BL@DHJNKJLG@mFreeList?5?$DN?$DN?5mEntriesCount?$AA@ 000000018004daf0     CctCharacterControllerManager.obj
 0002:00002b10       ??_C@_08DELPPNON@hashBase?$AA@ 000000018004db10     CctCharacterControllerManager.obj
 0002:00002b20       ??_C@_0BM@OIFKLHDN@?$DMallocation?5names?5disabled?$DO?$AA@ 000000018004db20     CctCharacterControllerManager.obj
 0002:00002b48       ??_C@_0M@MLKAJPLJ@?$CKptr?5?$CB?$DN?5EOL?$AA@ 000000018004db48     CctCharacterControllerManager.obj
 0002:00002b58       ??_C@_0BF@MJIJMGPN@?$CB?$CIsize?5?$CG?5?$CIsize?5?9?51?$CJ?$CJ?$AA@ 000000018004db58     CctCharacterControllerManager.obj
 0002:00002b78       ??_C@_09LAGLDPIH@newBuffer?$AA@ 000000018004db78     CctCharacterControllerManager.obj
 0002:00002b88       ??_C@_0BE@JIMKLMPE@index?5?$CB?$DN?5newHash?$FLh?$FN?$AA@ 000000018004db88     CctCharacterControllerManager.obj
 0002:00002ba0       ??_C@_0BP@CPGKEPEI@compacting?5?$HM?$HM?5mFreeList?5?$DN?$DN?5EOL?$AA@ 000000018004dba0     CctCharacterControllerManager.obj
 0002:00002bc8       ??_C@_0BF@OADKGOFH@mFreeList?5?$CB?$DN?5end?5?9?51?$AA@ 000000018004dbc8     CctCharacterControllerManager.obj
 0002:00002be4       __real@3f400000            000000018004dbe4     CctCharacterControllerManager.obj
 0002:00002be8       __real@40800000            000000018004dbe8     CctCharacterControllerManager.obj
 0002:00002bf0       ??_7Controller@Cct@physx@@6B@ 000000018004dbf0     CctController.obj
 0002:00002c18       ??_C@_0CF@LJAGPAMD@CCT?3?5up?5direction?5must?5be?5normal@ 000000018004dc18     CctController.obj
 0002:00002c48       ??_C@_0DE@LBFOOJJE@?4?4?2?4?4?2PhysXCharacterKinematic?2sr@ 000000018004dc48     CctController.obj
 0002:00002c88       __real@38d1b717            000000018004dc88     CctController.obj
 0002:00002c90       ??_7PxObstacleContext@physx@@6B@ 000000018004dc90     CctObstacleContext.obj
 0002:00002ce8       ??_7ObstacleContext@Cct@physx@@6B@ 000000018004dce8     CctObstacleContext.obj
 0002:00002d40       ??_C@_0FC@KCCIAIHH@D?3?2FING?2pgraf?2cga?9oblig2?2cga_obl@ 000000018004dd40     CctObstacleContext.obj
 0002:00002da8       ??_C@_0BA@DPPPOJBK@value?5?$DM?$DN?50xffff?$AA@ 000000018004dda8     CctObstacleContext.obj
 0002:00002dc0       ??_C@_0O@IPJBGLCC@HandleManager?$AA@ 000000018004ddc0     CctObstacleContext.obj
 0002:00002dd0       ??_C@_0DJ@FPEJDNHL@?4?4?2?4?4?2PhysXCharacterKinematic?2sr@ 000000018004ddd0     CctObstacleContext.obj
 0002:00002e18       ??_C@_0CP@CDNCDJDD@Internal?5error?5?9?564K?5objects?5in?5@ 000000018004de18     CctObstacleContext.obj
 0002:00002e50       ??_C@_0L@PMMEKFHC@index?$DMsize?$AA@ 000000018004de50     CctObstacleContext.obj
 0002:00002e60       ??_C@_0BJ@BENGNNK@type?$DN?$DNobstacle?4getType?$CI?$CJ?$AA@ 000000018004de60     CctObstacleContext.obj
 0002:00002e80       ??_C@_0CF@CEPGALDL@mBoxObstacles?$FLindex?$FN?4mHandle?$DN?$DNha@ 000000018004de80     CctObstacleContext.obj
 0002:00002eb0       ??_C@_0CJ@OHPLBPIL@mCapsuleObstacles?$FLindex?$FN?4mHandle@ 000000018004deb0     CctObstacleContext.obj
 0002:00002ee8       ??_C@_0M@GEAKHKHN@raycastFunc?$AA@ 000000018004dee8     CctObstacleContext.obj
 0002:00002ef8       ??_C@_0CF@GBMJOHHH@geomType?5?$DN?$DN?5PxGeometryType?3?3eCAP@ 000000018004def8     CctObstacleContext.obj
 0002:00002f24       ??_C@_06DJIHEMFI@status?$AA@ 000000018004df24     CctObstacleContext.obj
 0002:00002f30       ??_7SweptBox@Cct@physx@@6B@ 000000018004df30     CctSweptBox.obj
 0002:00002f48       ??_7SweptCapsule@Cct@physx@@6B@ 000000018004df48     CctSweptCapsule.obj
 0002:00002f60       ??_7SweptVolume@Cct@physx@@6B@ 000000018004df60     CctSweptVolume.obj
 0002:00002f78       ??_C@_0BP@LLBHALBD@PxMeshOverlapUtil?3?3findOverlap?$AA@ 000000018004df78     PhysX3ExtensionsDEBUG:ExtTriangleMeshExt.obj
 0002:00002fa0       ??_C@_0DB@HFONPIBD@?4?4?2?4?4?2PhysXExtensions?2src?2ExtTri@ 000000018004dfa0     PhysX3ExtensionsDEBUG:ExtTriangleMeshExt.obj
 0002:00002fe0       ??_C@_0O@IICGINDC@nbTouchedTris?$AA@ 000000018004dfe0     PhysX3ExtensionsDEBUG:ExtTriangleMeshExt.obj
 0002:00002ff0       ??_C@_09IOBMEPPH@?$CBoverflow?$AA@ 000000018004dff0     PhysX3ExtensionsDEBUG:ExtTriangleMeshExt.obj
 0002:00003000       ??_C@_0BB@GKJHIFOF@bounds?4isValid?$CI?$CJ?$AA@ 000000018004e000     PhysX3ExtensionsDEBUG:ExtRigidBodyExt.obj
 0002:00003018       ??_7?$PxHitCallback@UPxSweepHit@physx@@@physx@@6B@ 000000018004e018     PhysX3ExtensionsDEBUG:ExtRigidBodyExt.obj
 0002:00003038       ??_7?$PxHitBuffer@UPxSweepHit@physx@@@physx@@6B@ 000000018004e038     PhysX3ExtensionsDEBUG:ExtRigidBodyExt.obj
 0002:00003060       ??_C@_0FE@CNDNGKLL@D?3?2FING?2pgraf?2cga?9oblig2?2cga_obl@ 000000018004e060     PhysX3ExtensionsDEBUG:ExtRigidBodyExt.obj
 0002:000030d0       ??_C@_0GJ@LPFDPNEH@inertiaTensor?4column0?4isFinite?$CI?$CJ@ 000000018004e0d0     PhysX3ExtensionsDEBUG:ExtRigidBodyExt.obj
 0002:00003150       ??_C@_0BI@NGAJFOA@centerOfMass?4isFinite?$CI?$CJ?$AA@ 000000018004e150     PhysX3ExtensionsDEBUG:ExtRigidBodyExt.obj
 0002:00003170       ??_C@_0BB@MPGDOBGO@PxIsFinite?$CImass?$CJ?$AA@ 000000018004e170     PhysX3ExtensionsDEBUG:ExtRigidBodyExt.obj
 0002:00003188       ??_C@_0N@KJMNFABF@t?4isFinite?$CI?$CJ?$AA@ 000000018004e188     PhysX3ExtensionsDEBUG:ExtRigidBodyExt.obj
 0002:000031a0       ??_C@_0FH@EMBABLBB@inertia?4column0?4isFinite?$CI?$CJ?5?$CG?$CG?5in@ 000000018004e1a0     PhysX3ExtensionsDEBUG:ExtRigidBodyExt.obj
 0002:00003210       ??_C@_0GG@EEGHGHDM@translatedIT?4column0?4isFinite?$CI?$CJ?5@ 000000018004e210     PhysX3ExtensionsDEBUG:ExtRigidBodyExt.obj
 0002:00003290       ??_C@_0L@GJCLFDLB@q?4isUnit?$CI?$CJ?$AA@ 000000018004e290     PhysX3ExtensionsDEBUG:ExtRigidBodyExt.obj
 0002:000032a0       ??_C@_0FN@LMOLFFGE@rotatedIT?4column0?4isFinite?$CI?$CJ?5?$CG?$CG?5@ 000000018004e2a0     PhysX3ExtensionsDEBUG:ExtRigidBodyExt.obj
 0002:00003310       ??_C@_0BH@OHLICMGK@scaleRotation?4isUnit?$CI?$CJ?$AA@ 000000018004e310     PhysX3ExtensionsDEBUG:ExtRigidBodyExt.obj
 0002:00003330       ??_C@_0BB@HMINLEPI@scale?4isFinite?$CI?$CJ?$AA@ 000000018004e330     PhysX3ExtensionsDEBUG:ExtRigidBodyExt.obj
 0002:00003350       ??_C@_0FK@PLENNKDH@scaledIT?4column0?4isFinite?$CI?$CJ?5?$CG?$CG?5s@ 000000018004e350     PhysX3ExtensionsDEBUG:ExtRigidBodyExt.obj
 0002:000033c0       ??_C@_0IE@FENODHFK@props?$FLi?$FN?4inertiaTensor?4column0?4i@ 000000018004e3c0     PhysX3ExtensionsDEBUG:ExtRigidBodyExt.obj
 0002:00003460       ??_C@_0CB@EJMPDHPE@props?$FLi?$FN?4centerOfMass?4isFinite?$CI?$CJ@ 000000018004e460     PhysX3ExtensionsDEBUG:ExtRigidBodyExt.obj
 0002:00003488       ??_C@_0BK@HLGANDCK@PxIsFinite?$CIprops?$FLi?$FN?4mass?$CJ?$AA@ 000000018004e488     PhysX3ExtensionsDEBUG:ExtRigidBodyExt.obj
 0002:000034b0       ??_C@_0HC@LGMCFEBD@combinedInertiaT?4column0?4isFinit@ 000000018004e4b0     PhysX3ExtensionsDEBUG:ExtRigidBodyExt.obj
 0002:00003538       ??_C@_0BH@LFJLLNEP@combinedCoM?4isFinite?$CI?$CJ?$AA@ 000000018004e538     PhysX3ExtensionsDEBUG:ExtRigidBodyExt.obj
 0002:00003558       ??_C@_0BJ@KPLJPLGN@PxIsFinite?$CIcombinedMass?$CJ?$AA@ 000000018004e558     PhysX3ExtensionsDEBUG:ExtRigidBodyExt.obj
 0002:00003580       ??_C@_0FM@HBPELBOM@d?3?2fing?2pgraf?2cga?9oblig2?2cga_obl@ 000000018004e580     PhysX3ExtensionsDEBUG:ExtRigidBodyExt.obj
 0002:000035f0       ??_C@_0BC@CPDMLBPM@inertia?4x?5?$CB?$DN?50?40f?$AA@ 000000018004e5f0     PhysX3ExtensionsDEBUG:ExtRigidBodyExt.obj
 0002:00003608       ??_C@_0BC@MAPONKMC@inertia?4y?5?$CB?$DN?50?40f?$AA@ 000000018004e608     PhysX3ExtensionsDEBUG:ExtRigidBodyExt.obj
 0002:00003620       ??_C@_0BC@CLMJGBMB@inertia?4z?5?$CB?$DN?50?40f?$AA@ 000000018004e620     PhysX3ExtensionsDEBUG:ExtRigidBodyExt.obj
 0002:00003638       ??_C@_0BD@OPJGPFFH@inertia?4isFinite?$CI?$CJ?$AA@ 000000018004e638     PhysX3ExtensionsDEBUG:ExtRigidBodyExt.obj
 0002:00003650       ??_C@_0EI@EJLALNOJ@mI?4column0?4isFinite?$CI?$CJ?5?$CG?$CG?5mI?4colu@ 000000018004e650     PhysX3ExtensionsDEBUG:ExtRigidBodyExt.obj
 0002:000036a8       ??_C@_0BC@OFOGBKJM@PxIsFinite?$CImMass?$CJ?$AA@ 000000018004e6a8     PhysX3ExtensionsDEBUG:ExtRigidBodyExt.obj
 0002:000036c0       ??_C@_0O@PGJGBBMD@mG?4isFinite?$CI?$CJ?$AA@ 000000018004e6c0     PhysX3ExtensionsDEBUG:ExtRigidBodyExt.obj
 0002:000036d0       ??_C@_0IE@PMLMABKM@?$CFs?3?5inertia?5tensor?5has?5negative?5@ 000000018004e6d0     PhysX3ExtensionsDEBUG:ExtRigidBodyExt.obj
 0002:00003770       ??_C@_0CO@PEEEKJKP@?4?4?2?4?4?2PhysXExtensions?2src?2ExtRig@ 000000018004e770     PhysX3ExtensionsDEBUG:ExtRigidBodyExt.obj
 0002:000037a8       ??_C@_0BG@FAEGGHDL@?$CBdensities?5?$HM?$HM?5?$CBmasses?$AA@ 000000018004e7a8     PhysX3ExtensionsDEBUG:ExtRigidBodyExt.obj
 0002:000037c8       ??_C@_0DC@HOEEJLOF@?$CIdensities?5?$HM?$HM?5masses?$CJ?5?$CG?$CG?5?$CIdensit@ 000000018004e7c8     PhysX3ExtensionsDEBUG:ExtRigidBodyExt.obj
 0002:00003808       ??_C@_08MJBGFJN@PxShape?$CK?$AA@ 000000018004e808     PhysX3ExtensionsDEBUG:ExtRigidBodyExt.obj
 0002:00003820       ??_C@_0ED@GFJAKEFC@computeMassAndInertia?3?5Provided?5@ 000000018004e820     PhysX3ExtensionsDEBUG:ExtRigidBodyExt.obj
 0002:00003870       ??_C@_0FL@MGPHIFPL@computeMassAndInertia?3?5Not?5enoug@ 000000018004e870     PhysX3ExtensionsDEBUG:ExtRigidBodyExt.obj
 0002:000038e0       ??_C@_02MFDMBIJM@ok?$AA@   000000018004e8e0     PhysX3ExtensionsDEBUG:ExtRigidBodyExt.obj
 0002:000038f0       ??_C@_0ED@IINBLCPB@computeMassAndInertia?3?5Dynamic?5a@ 000000018004e8f0     PhysX3ExtensionsDEBUG:ExtRigidBodyExt.obj
 0002:00003940       ??_C@_0CF@NFENOJIA@PxRigidBodyExt?3?3updateMassAndIne@ 000000018004e940     PhysX3ExtensionsDEBUG:ExtRigidBodyExt.obj
 0002:00003970       ??_C@_0FC@JIKFFKAL@?$CFs?3?5Mass?5and?5inertia?5computation@ 000000018004e970     PhysX3ExtensionsDEBUG:ExtRigidBodyExt.obj
 0002:000039e0       ??_C@_0ED@BHIJHOEP@?$CFs?3?5No?5density?5specified?0?5settin@ 000000018004e9e0     PhysX3ExtensionsDEBUG:ExtRigidBodyExt.obj
 0002:00003a30       ??_C@_0BC@LCFLEJMO@orient?4isFinite?$CI?$CJ?$AA@ 000000018004ea30     PhysX3ExtensionsDEBUG:ExtRigidBodyExt.obj
 0002:00003a48       ??_C@_0BG@MOLDNCJJ@diagTensor?4isFinite?$CI?$CJ?$AA@ 000000018004ea48     PhysX3ExtensionsDEBUG:ExtRigidBodyExt.obj
 0002:00003a68       ??_C@_0BE@IMLKJJIO@PxIsFinite?$CImassOut?$CJ?$AA@ 000000018004ea68     PhysX3ExtensionsDEBUG:ExtRigidBodyExt.obj
 0002:00003a80       ??_C@_0CI@NNBNKKJG@PxRigidBodyExt?3?3setMassAndUpdate@ 000000018004ea80     PhysX3ExtensionsDEBUG:ExtRigidBodyExt.obj
 0002:00003ab0       ??_C@_0EA@JNKKHEHF@?$CFs?3?5No?5mass?5specified?0?5setting?5m@ 000000018004eab0     PhysX3ExtensionsDEBUG:ExtRigidBodyExt.obj
 0002:00003b00       ??_C@_0FI@DKLFOMEB@PxRigidBodyExt?3?3addForce?5methods@ 000000018004eb00     PhysX3ExtensionsDEBUG:ExtRigidBodyExt.obj
 0002:00003b70       ??_C@_0O@NBMIOIOP@shape?5?$CB?$DN?5NULL?$AA@ 000000018004eb70     PhysX3ExtensionsDEBUG:ExtRigidBodyExt.obj
 0002:00003b80       ??_C@_0BB@BDAMNKLN@sourceIndex?5?$DO?$DN?5j?$AA@ 000000018004eb80     PhysX3ExtensionsDEBUG:ExtRigidBodyExt.obj
 0002:00003b98       ??_C@_0DK@HKHACFOF@sumNbResults?5?$DO?$DN?50?5?$CG?$CG?5sumNbResult@ 000000018004eb98     PhysX3ExtensionsDEBUG:ExtRigidBodyExt.obj
 0002:00003be0       ??_C@_0EO@HAODNHOE@d?3?2fing?2pgraf?2cga?9oblig2?2cga_obl@ 000000018004ebe0     PhysX3ExtensionsDEBUG:ExtRigidBodyExt.obj
 0002:00003c40       __real@3eaaaaab            000000018004ec40     PhysX3ExtensionsDEBUG:ExtRigidBodyExt.obj
 0002:00003c44       __real@3ecccccd            000000018004ec44     PhysX3ExtensionsDEBUG:ExtRigidBodyExt.obj
 0002:00003c48       __real@3f088889            000000018004ec48     PhysX3ExtensionsDEBUG:ExtRigidBodyExt.obj
 0002:00003c4c       __real@3f2aaaab            000000018004ec4c     PhysX3ExtensionsDEBUG:ExtRigidBodyExt.obj
 0002:00003c50       __real@3f8147ae            000000018004ec50     PhysX3ExtensionsDEBUG:ExtRigidBodyExt.obj
 0002:00003c54       __real@3faaaaab            000000018004ec54     PhysX3ExtensionsDEBUG:ExtRigidBodyExt.obj
 0002:00003c58       __real@40400000            000000018004ec58     PhysX3ExtensionsDEBUG:ExtRigidBodyExt.obj
 0002:00003c5c       __real@40490fdb            000000018004ec5c     PhysX3ExtensionsDEBUG:ExtRigidBodyExt.obj
 0002:00003c60       __real@40860a92            000000018004ec60     PhysX3ExtensionsDEBUG:ExtRigidBodyExt.obj
 0002:00003c64       __real@41000000            000000018004ec64     PhysX3ExtensionsDEBUG:ExtRigidBodyExt.obj
 0002:00003c68       __real@41400000            000000018004ec68     PhysX3ExtensionsDEBUG:ExtRigidBodyExt.obj
 0002:00003c6c       __real@41700000            000000018004ec6c     PhysX3ExtensionsDEBUG:ExtRigidBodyExt.obj
 0002:00003c78       ??_7type_info@@6B@         000000018004ec78     MSVCRTD:std_type_info_static.obj
 0002:00003c88       _pRawDllMain               000000018004ec88     MSVCRTD:dll_dllmain.obj
 0002:00003c88       _pDefaultRawDllMain        000000018004ec88     MSVCRTD:dll_dllmain.obj
 0002:00003cc8       ??_C@_0BJ@HEGAHDFO@Stack?5pointer?5corruption?$AA@ 000000018004ecc8     MSVCRTD:_userapi_.obj
 0002:00003ce8       ??_C@_0CK@FEGOIOPB@Cast?5to?5smaller?5type?5causing?5los@ 000000018004ece8     MSVCRTD:_userapi_.obj
 0002:00003d20       ??_C@_0BI@CIGMDCBH@Stack?5memory?5corruption?$AA@ 000000018004ed20     MSVCRTD:_userapi_.obj
 0002:00003d40       ??_C@_0CK@CNLNOEPB@Local?5variable?5used?5before?5initi@ 000000018004ed40     MSVCRTD:_userapi_.obj
 0002:00003d78       ??_C@_0BP@OGBCLIBO@Stack?5around?5_alloca?5corrupted?$AA@ 000000018004ed78     MSVCRTD:_userapi_.obj
 0002:00003e90       ??_C@_0NN@NGPKDKPD@The?5value?5of?5ESP?5was?5not?5properl@ 000000018004ee90     MSVCRTD:_error_.obj
 0002:00003fa0       ??_C@_0BBN@GPMLNJCF@A?5cast?5to?5a?5smaller?5data?5type?5ha@ 000000018004efa0     MSVCRTD:_error_.obj
 0002:000040f8       ??_C@_0BN@FFOINMNJ@Stack?5memory?5was?5corrupted?6?$AN?$AA@ 000000018004f0f8     MSVCRTD:_error_.obj
 0002:00004120       ??_C@_0DG@HKJMLLLP@A?5local?5variable?5was?5used?5before@ 000000018004f120     MSVCRTD:_error_.obj
 0002:00004160       ??_C@_0CM@NGINOKPC@Stack?5memory?5around?5_alloca?5was?5@ 000000018004f160     MSVCRTD:_error_.obj
 0002:00004198       ??_C@_0BO@GNIAFIKK@Unknown?5Runtime?5Check?5Error?6?$AN?$AA@ 000000018004f198     MSVCRTD:_error_.obj
 0002:000041c0       ??_C@_1GM@OLMCBDMB@?$AAR?$AAu?$AAn?$AAt?$AAi?$AAm?$AAe?$AA?5?$AAC?$AAh?$AAe?$AAc?$AAk?$AA?5?$AAE?$AAr?$AAr?$AAo?$AAr?$AA?4?$AA?6?$AA?$AN?$AA?5?$AAU?$AAn?$AAa?$AAb?$AAl?$AAe?$AA?5?$AAt?$AAo@ 000000018004f1c0     MSVCRTD:_error_.obj
 0002:00004250       ??_C@_1EA@NFKNIFJP@?$AAR?$AAu?$AAn?$AA?9?$AAT?$AAi?$AAm?$AAe?$AA?5?$AAC?$AAh?$AAe?$AAc?$AAk?$AA?5?$AAF?$AAa?$AAi?$AAl?$AAu?$AAr?$AAe?$AA?5?$AA?$CD?$AA?$CF?$AAd?$AA?5?$AA?9?$AA?5?$AA?$CF?$AAs?$AA?$AA@ 000000018004f250     MSVCRTD:_error_.obj
 0002:000042a0       ??_C@_0BB@PFFGGCJP@Unknown?5Filename?$AA@ 000000018004f2a0     MSVCRTD:_error_.obj
 0002:000042b8       ??_C@_0BE@GNBOBNCK@Unknown?5Module?5Name?$AA@ 000000018004f2b8     MSVCRTD:_error_.obj
 0002:000042d0       ??_C@_0CA@IODNCDPG@Run?9Time?5Check?5Failure?5?$CD?$CFd?5?9?5?$CFs?$AA@ 000000018004f2d0     MSVCRTD:_error_.obj
 0002:000042f8       ??_C@_0CG@IAFNJNEE@Stack?5corrupted?5near?5unknown?5var@ 000000018004f2f8     MSVCRTD:_error_.obj
 0002:00004328       ??_C@_05MKKEDADM@?$CF?42X?5?$AA@ 000000018004f328     MSVCRTD:_error_.obj
 0002:00004330       ??_C@_0EJ@LJKNEOLN@Stack?5area?5around?5_alloca?5memory@ 000000018004f330     MSVCRTD:_error_.obj
 0002:00004388       ??_C@_08OMAHNMHJ@?6Data?3?5?$DM?$AA@ 000000018004f388     MSVCRTD:_error_.obj
 0002:00004398       ??_C@_0CK@DKGBICFE@?6Allocation?5number?5within?5this?5f@ 000000018004f398     MSVCRTD:_error_.obj
 0002:000043d0       ??_C@_07DFDJCKFN@?6Size?3?5?$AA@ 000000018004f3d0     MSVCRTD:_error_.obj
 0002:000043e0       ??_C@_0N@MHFFIMFG@?6Address?3?50x?$AA@ 000000018004f3e0     MSVCRTD:_error_.obj
 0002:000043f0       ??_C@_0EI@CLEPFNGI@Stack?5area?5around?5_alloca?5memory@ 000000018004f3f0     MSVCRTD:_error_.obj
 0002:00004448       ??_C@_0BC@HHMKLAND@?$CFs?$CFs?$CFp?$CFs?$CFzd?$CFs?$CFd?$CFs?$AA@ 000000018004f448     MSVCRTD:_error_.obj
 0002:00004460       ??_C@_01EEMJAFIK@?6?$AA@   000000018004f460     MSVCRTD:_error_.obj
 0002:00004464       ??_C@_02LLMPMKNF@?$DO?5?$AA@ 000000018004f464     MSVCRTD:_error_.obj
 0002:00004468       ??_C@_08KJEDNCKC@?$CFs?$CFs?$CFs?$CFs?$AA@ 000000018004f468     MSVCRTD:_error_.obj
 0002:00004478       ??_C@_0DE@OHJBPMBP@A?5variable?5is?5being?5used?5without@ 000000018004f478     MSVCRTD:_error_.obj
 0002:00004520       ??_C@_1EI@MLPKHBGE@?$AAa?$AAp?$AAi?$AA?9?$AAm?$AAs?$AA?9?$AAw?$AAi?$AAn?$AA?9?$AAc?$AAo?$AAr?$AAe?$AA?9?$AAr?$AAe?$AAg?$AAi?$AAs?$AAt?$AAr?$AAy?$AA?9?$AAl?$AA1?$AA?9?$AA1?$AA?9?$AA0?$AA?4@ 000000018004f520     MSVCRTD:_pdblkup_.obj
 0002:00004578       ??_C@_1BK@JHLNAEJL@?$AAa?$AAd?$AAv?$AAa?$AAp?$AAi?$AA3?$AA2?$AA?4?$AAd?$AAl?$AAl?$AA?$AA@ 000000018004f578     MSVCRTD:_pdblkup_.obj
 0002:00004598       ??_C@_0O@COHOBMLB@RegOpenKeyExW?$AA@ 000000018004f598     MSVCRTD:_pdblkup_.obj
 0002:000045a8       ??_C@_0BB@GLNAEDBD@RegQueryValueExW?$AA@ 000000018004f5a8     MSVCRTD:_pdblkup_.obj
 0002:000045c0       ??_C@_0M@HLOHPNFA@RegCloseKey?$AA@ 000000018004f5c0     MSVCRTD:_pdblkup_.obj
 0002:000045d0       ??_C@_1HE@EBEAGLFB@?$AAS?$AAO?$AAF?$AAT?$AAW?$AAA?$AAR?$AAE?$AA?2?$AAW?$AAo?$AAw?$AA6?$AA4?$AA3?$AA2?$AAN?$AAo?$AAd?$AAe?$AA?2?$AAM?$AAi?$AAc?$AAr?$AAo?$AAs?$AAo?$AAf?$AAt?$AA?2?$AAV@ 000000018004f5d0     MSVCRTD:_pdblkup_.obj
 0002:00004660       ??_C@_1BG@EABPBLLF@?$AAP?$AAr?$AAo?$AAd?$AAu?$AAc?$AAt?$AAD?$AAi?$AAr?$AA?$AA@ 000000018004f660     MSVCRTD:_pdblkup_.obj
 0002:000046a8       ??_C@_1BC@JINFINNJ@?$AAM?$AAS?$AAP?$AAD?$AAB?$AA1?$AA4?$AA0?$AA?$AA@ 000000018004f6a8     MSVCRTD:_pdblkup_.obj
 0002:000046c0       ??_C@_0BB@KCIACLNC@PDBOpenValidate5?$AA@ 000000018004f6c0     MSVCRTD:_pdblkup_.obj
 0002:000046d4       ??_C@_01KDCPPGHE@r?$AA@    000000018004f6d4     MSVCRTD:_pdblkup_.obj
 0002:00004730       _load_config_used          000000018004f730     MSVCRTD:loadcfg.obj
 0002:00004a88       ??_R4type_info@@6B@        000000018004fa88     MSVCRTD:std_type_info_static.obj
 0002:00004ab8       ??_R3type_info@@8          000000018004fab8     MSVCRTD:std_type_info_static.obj
 0002:00004ad0       ??_R2type_info@@8          000000018004fad0     MSVCRTD:std_type_info_static.obj
 0002:00004ae0       ??_R1A@?0A@EA@type_info@@8 000000018004fae0     MSVCRTD:std_type_info_static.obj
 0002:00004dc0       __rtc_iaa                  000000018004fdc0     MSVCRTD:_initsect_.obj
 0002:000050a0       __rtc_izz                  00000001800500a0     MSVCRTD:_initsect_.obj
 0002:000051b0       __rtc_taa                  00000001800501b0     MSVCRTD:_initsect_.obj
 0002:00005490       __rtc_tzz                  0000000180050490     MSVCRTD:_initsect_.obj
 0003:00000074       _fltused                   0000000180054074     MSVCRTD:dllsupp.obj
 0003:00000080       __scrt_native_dllmain_reason 0000000180054080     MSVCRTD:utility.obj
 0003:00000088       ?_RTC_ErrorLevels@@3PAHA   0000000180054088     MSVCRTD:_error_.obj
 0003:000000a0       __isa_available            00000001800540a0     MSVCRTD:_cpu_disp_.obj
 0003:000000a4       __isa_enabled              00000001800540a4     MSVCRTD:_cpu_disp_.obj
 0003:000000a8       __memcpy_nt_iters          00000001800540a8     MSVCRTD:_cpu_disp_.obj
 0003:000000b8       __security_cookie          00000001800540b8     MSVCRTD:gs_cookie.obj
 0003:000000c0       __security_cookie_complement 00000001800540c0     MSVCRTD:gs_cookie.obj
 0003:000000d0       __scrt_ucrt_dll_is_in_use  00000001800540d0     MSVCRTD:ucrt_stubs.obj
 0003:000001e0       ??_R0?AVMutexImpl@shdfnd@physx@@@8 00000001800541e0     CctCharacterControllerManager.obj
 0003:00000218       ??_R0?AVCharacterControllerManager@Cct@physx@@@8 0000000180054218     CctCharacterControllerManager.obj
 0003:00000260       ??_R0?AVObstacleContext@Cct@physx@@@8 0000000180054260     CctCharacterControllerManager.obj
 0003:000002a0       ??_R0?AVCapsuleController@Cct@physx@@@8 00000001800542a0     CctCharacterControllerManager.obj
 0003:000002e0       ??_R0?AVBoxController@Cct@physx@@@8 00000001800542e0     CctCharacterControllerManager.obj
 0003:00000318       ??_R0?AVRenderBuffer@Cm@physx@@@8 0000000180054318     CctCharacterControllerManager.obj
 0003:00000350       ??_R0?AVtype_info@@@8      0000000180054350     MSVCRTD:std_type_info_static.obj
 0003:00000483       ?_ignore@?2???0PxTransform@physx@@QEAA@AEBVPxVec3@2@AEBVPxQuat@2@@Z@4_NA 0000000180054483     CctCharacterController.obj
 0003:00000484       ?_ignore@?2???DPxTransform@physx@@QEBA?AV12@AEBV12@@Z@4_NA 0000000180054484     CctCharacterController.obj
 0003:00000485       ?_ignore@?2??transform@PxTransform@physx@@QEBA?AVPxVec3@3@AEBV43@@Z@4_NA 0000000180054485     CctCharacterController.obj
 0003:00000486       ?_ignore@?2??transformInv@PxTransform@physx@@QEBA?AVPxVec3@3@AEBV43@@Z@4_NA 0000000180054486     CctCharacterController.obj
 0003:00000487       ?_ignore@?2??transform@PxTransform@physx@@QEBA?AV23@AEBV23@@Z@4_NA 0000000180054487     CctCharacterController.obj
 0003:00000488       ?_ignore@?3??transform@PxTransform@physx@@QEBA?AV23@AEBV23@@Z@4_NA 0000000180054488     CctCharacterController.obj
 0003:00000489       ?_ignore@?2??getCenter@PxBounds3@physx@@QEBA?AVPxVec3@3@XZ@4_NA 0000000180054489     CctCharacterController.obj
 0003:0000048a       ?_ignore@?2??getDimensions@PxBounds3@physx@@QEBA?AVPxVec3@3@XZ@4_NA 000000018005448a     CctCharacterController.obj
 0003:0000048b       ?_ignore@?2??getExtents@PxBounds3@physx@@QEBA?AVPxVec3@3@XZ@4_NA 000000018005448b     CctCharacterController.obj
 0003:0000048c       ?_ignore@?2??encodeUserObject@Cct@physx@@YAIIW4UserObjectType@23@@Z@4_NA 000000018005448c     CctCharacterController.obj
 0003:0000048d       ?_ignore@?3??encodeUserObject@Cct@physx@@YAIIW4UserObjectType@23@@Z@4_NA 000000018005448d     CctCharacterController.obj
 0003:000004b6       ?_ignore@?4??postFilter@ControllerFilter@@UEAA?AW4Enum@PxQueryHitType@physx@@AEBUPxFilterData@5@AEBUPxQueryHit@5@@Z@4_NA 00000001800544b6     CctCharacterController.obj
 0003:000004c3       ?_ignore@?2???A?$Array@UInternalCapsuleObstacle@ObstacleContext@Cct@physx@@VNamedAllocator@shdfnd@4@@shdfnd@physx@@QEBAAEBUInternalCapsuleObstacle@ObstacleContext@Cct@3@I@Z@4_NA 00000001800544c3     CctCharacterController.obj
 0003:000004c4       ?_ignore@?2???A?$Array@UInternalBoxObstacle@ObstacleContext@Cct@physx@@VNamedAllocator@shdfnd@4@@shdfnd@physx@@QEBAAEBUInternalBoxObstacle@ObstacleContext@Cct@3@I@Z@4_NA 00000001800544c4     CctCharacterController.obj
 0003:000004c5       ?_ignore@?2??forceSize_Unsafe@?$Array@VPxTriangle@physx@@VNamedAllocator@shdfnd@2@@shdfnd@physx@@QEAAXI@Z@4_NA 00000001800544c5     CctCharacterController.obj
 0003:000004c6       ?_ignore@?2???A?$Array@VPxTriangle@physx@@VNamedAllocator@shdfnd@2@@shdfnd@physx@@QEBAAEBVPxTriangle@3@I@Z@4_NA 00000001800544c6     CctCharacterController.obj
 0003:000004c7       ?_ignore@?2??forceSize_Unsafe@?$Array@IVNamedAllocator@shdfnd@physx@@@shdfnd@physx@@QEAAXI@Z@4_NA 00000001800544c7     CctCharacterController.obj
 0003:000004c8       ?_ignore@?2???A?$Array@IVNamedAllocator@shdfnd@physx@@@shdfnd@physx@@QEAAAEAII@Z@4_NA 00000001800544c8     CctCharacterController.obj
 0003:000004c9       ?_ignore@?2???A?$Array@IVNamedAllocator@shdfnd@physx@@@shdfnd@physx@@QEBAAEBII@Z@4_NA 00000001800544c9     CctCharacterController.obj
 0003:000004ca       ?_ignore@?2??getAnyHit@?$PxHitBuffer@UPxRaycastHit@physx@@@physx@@QEBAAEBUPxRaycastHit@3@I@Z@4_NA 00000001800544ca     CctCharacterController.obj
 0003:000004cb       ?_ignore@?2??growAndPushBack@?$Array@PEBXVNamedAllocator@shdfnd@physx@@@shdfnd@physx@@IEAAAEAPEBXAEBQEBX@Z@4_NA 00000001800544cb     CctCharacterController.obj
 0003:000004cc       ?_ignore@?2??growAndPushBack@?$Array@VPxExtendedBox@physx@@VNamedAllocator@shdfnd@2@@shdfnd@physx@@IEAAAEAVPxExtendedBox@4@AEBV54@@Z@4_NA 00000001800544cc     CctCharacterController.obj
 0003:000004cd       ?_ignore@?2??growAndPushBack@?$Array@UPxExtendedCapsule@physx@@VNamedAllocator@shdfnd@2@@shdfnd@physx@@IEAAAEAUPxExtendedCapsule@4@AEBU54@@Z@4_NA 00000001800544cd     CctCharacterController.obj
 0003:000004ce       ?_ignore@?2??grow@?$Array@IVNamedAllocator@shdfnd@physx@@@shdfnd@physx@@IEAAXI@Z@4_NA 00000001800544ce     CctCharacterController.obj
 0003:000004cf       ?_ignore@?2??recreate@?$Array@IVNamedAllocator@shdfnd@physx@@@shdfnd@physx@@IEAAXI@Z@4_NA 00000001800544cf     CctCharacterController.obj
 0003:000004d0       ?_ignore@?2???APxVec3@physx@@QEBAAEBMI@Z@4_NA 00000001800544d0     CctCharacterControllerCallbacks.obj
 0003:000004d1       ?_ignore@?2??rotate@PxTransform@physx@@QEBA?AVPxVec3@3@AEBV43@@Z@4_NA 00000001800544d1     CctCharacterControllerCallbacks.obj
 0003:00000563       ?_ignore@?2??getAnyHit@?$PxHitBuffer@UPxOverlapHit@physx@@@physx@@QEBAAEBUPxOverlapHit@3@I@Z@4_NA 0000000180054563     CctCharacterControllerCallbacks.obj
 0003:00000564       ?_ignore@?2??grow@?$Array@VPxTriangle@physx@@VNamedAllocator@shdfnd@2@@shdfnd@physx@@IEAAXI@Z@4_NA 0000000180054564     CctCharacterControllerCallbacks.obj
 0003:00000565       ?_ignore@?2??growAndPushBack@?$Array@IVNamedAllocator@shdfnd@physx@@@shdfnd@physx@@IEAAAEAIAEBI@Z@4_NA 0000000180054565     CctCharacterControllerCallbacks.obj
 0003:00000566       ?_ignore@?2??recreate@?$Array@VPxTriangle@physx@@VNamedAllocator@shdfnd@2@@shdfnd@physx@@IEAAXI@Z@4_NA 0000000180054566     CctCharacterControllerCallbacks.obj
 0003:00000577       ?_ignore@?2???A?$Array@PEAVObstacleContext@Cct@physx@@VNamedAllocator@shdfnd@3@@shdfnd@physx@@QEAAAEAPEAVObstacleContext@Cct@3@I@Z@4_NA 0000000180054577     CctCharacterControllerManager.obj
 0003:00000578       ?_ignore@?2??replaceWithLast@?$Array@PEAVController@Cct@physx@@VNamedAllocator@shdfnd@3@@shdfnd@physx@@QEAAXI@Z@4_NA 0000000180054578     CctCharacterControllerManager.obj
 0003:00000579       ?_ignore@?2???A?$Array@PEAVController@Cct@physx@@VNamedAllocator@shdfnd@3@@shdfnd@physx@@QEAAAEAPEAVController@Cct@3@I@Z@4_NA 0000000180054579     CctCharacterControllerManager.obj
 0003:0000057a       ?_ignore@?2???A?$Array@PEAVController@Cct@physx@@VNamedAllocator@shdfnd@3@@shdfnd@physx@@QEBAAEBQEAVController@Cct@3@I@Z@4_NA 000000018005457a     CctCharacterControllerManager.obj
 0003:0000057b       ?_ignore@?2???A?$Array@UPxDebugText@physx@@VNamedAllocator@shdfnd@2@@shdfnd@physx@@QEAAAEAUPxDebugText@3@I@Z@4_NA 000000018005457b     CctCharacterControllerManager.obj
 0003:0000057c       ?_ignore@?2???A?$Array@UPxDebugTriangle@physx@@VNamedAllocator@shdfnd@2@@shdfnd@physx@@QEAAAEAUPxDebugTriangle@3@I@Z@4_NA 000000018005457c     CctCharacterControllerManager.obj
 0003:0000057d       ?_ignore@?2???A?$Array@UPxDebugLine@physx@@VNamedAllocator@shdfnd@2@@shdfnd@physx@@QEAAAEAUPxDebugLine@3@I@Z@4_NA 000000018005457d     CctCharacterControllerManager.obj
 0003:0000057e       ?_ignore@?2???A?$Array@UPxDebugPoint@physx@@VNamedAllocator@shdfnd@2@@shdfnd@physx@@QEAAAEAUPxDebugPoint@3@I@Z@4_NA 000000018005457e     CctCharacterControllerManager.obj
 0003:0000057f       ?_ignore@?2??replaceWithLast@?$Array@PEAVObstacleContext@Cct@physx@@VNamedAllocator@shdfnd@3@@shdfnd@physx@@QEAAXI@Z@4_NA 000000018005457f     CctCharacterControllerManager.obj
 0003:00000580       ?_ignore@?2??grow@?$HashBase@V?$Pair@QEBVPxBase@physx@@UObservedRefCounter@Cct@2@@shdfnd@physx@@PEBVPxBase@3@U?$Hash@PEBVPxBase@physx@@@23@UGetKey@?$HashMapBase@PEBVPxBase@physx@@UObservedRefCounter@Cct@2@U?$Hash@PEBVPxBase@physx@@@shdfnd@2@VNonTrackingAllocator@62@@internal@23@VNonTrackingAllocator@23@$00@internal@shdfnd@physx@@AEAAXXZ@4_NA 0000000180054580     CctCharacterControllerManager.obj
 0003:00000581       ?_ignore@?2??freeListGetNext@?$HashBase@V?$Pair@QEBVPxBase@physx@@UObservedRefCounter@Cct@2@@shdfnd@physx@@PEBVPxBase@3@U?$Hash@PEBVPxBase@physx@@@23@UGetKey@?$HashMapBase@PEBVPxBase@physx@@UObservedRefCounter@Cct@2@U?$Hash@PEBVPxBase@physx@@@shdfnd@2@VNonTrackingAllocator@62@@internal@23@VNonTrackingAllocator@23@$00@internal@shdfnd@physx@@AEAAIXZ@4_NA 0000000180054581     CctCharacterControllerManager.obj
 0003:00000582       ?_ignore@?6??freeListGetNext@?$HashBase@V?$Pair@QEBVPxBase@physx@@UObservedRefCounter@Cct@2@@shdfnd@physx@@PEBVPxBase@3@U?$Hash@PEBVPxBase@physx@@@23@UGetKey@?$HashMapBase@PEBVPxBase@physx@@UObservedRefCounter@Cct@2@U?$Hash@PEBVPxBase@physx@@@shdfnd@2@VNonTrackingAllocator@62@@internal@23@VNonTrackingAllocator@23@$00@internal@shdfnd@physx@@AEAAIXZ@4_NA 0000000180054582     CctCharacterControllerManager.obj
 0003:00000583       ?_ignore@?2??grow@?$HashBase@PEAVPxShape@physx@@PEAV12@U?$Hash@PEAVPxShape@physx@@@shdfnd@2@UGetKey@?$HashSetBase@PEAVPxShape@physx@@U?$Hash@PEAVPxShape@physx@@@shdfnd@2@VNonTrackingAllocator@42@$0A@@internal@42@VNonTrackingAllocator@42@$0A@@internal@shdfnd@physx@@AEAAXXZ@4_NA 0000000180054583     CctCharacterControllerManager.obj
 0003:00000584       ?_ignore@?2??freeListGetNext@?$HashBase@PEAVPxShape@physx@@PEAV12@U?$Hash@PEAVPxShape@physx@@@shdfnd@2@UGetKey@?$HashSetBase@PEAVPxShape@physx@@U?$Hash@PEAVPxShape@physx@@@shdfnd@2@VNonTrackingAllocator@42@$0A@@internal@42@VNonTrackingAllocator@42@$0A@@internal@shdfnd@physx@@AEAAIXZ@4_NA 0000000180054584     CctCharacterControllerManager.obj
 0003:00000585       ?_ignore@?6??freeListGetNext@?$HashBase@PEAVPxShape@physx@@PEAV12@U?$Hash@PEAVPxShape@physx@@@shdfnd@2@UGetKey@?$HashSetBase@PEAVPxShape@physx@@U?$Hash@PEAVPxShape@physx@@@shdfnd@2@VNonTrackingAllocator@42@$0A@@internal@42@VNonTrackingAllocator@42@$0A@@internal@shdfnd@physx@@AEAAIXZ@4_NA 0000000180054585     CctCharacterControllerManager.obj
 0003:00000586       ?_ignore@?3??replaceWithLast@?$HashBase@V?$Pair@QEBVPxBase@physx@@UObservedRefCounter@Cct@2@@shdfnd@physx@@PEBVPxBase@3@U?$Hash@PEBVPxBase@physx@@@23@UGetKey@?$HashMapBase@PEBVPxBase@physx@@UObservedRefCounter@Cct@2@U?$Hash@PEBVPxBase@physx@@@shdfnd@2@VNonTrackingAllocator@62@@internal@23@VNonTrackingAllocator@23@$00@internal@shdfnd@physx@@AEAAXI@Z@4_NA 0000000180054586     CctCharacterControllerManager.obj
 0003:00000587       ?_ignore@?5??freeListAdd@?$HashBase@V?$Pair@QEBVPxBase@physx@@UObservedRefCounter@Cct@2@@shdfnd@physx@@PEBVPxBase@3@U?$Hash@PEBVPxBase@physx@@@23@UGetKey@?$HashMapBase@PEBVPxBase@physx@@UObservedRefCounter@Cct@2@U?$Hash@PEBVPxBase@physx@@@shdfnd@2@VNonTrackingAllocator@62@@internal@23@VNonTrackingAllocator@23@$00@internal@shdfnd@physx@@AEAAXI@Z@4_NA 0000000180054587     CctCharacterControllerManager.obj
 0003:00000588       ?_ignore@?3??replaceWithLast@?$HashBase@PEAVPxShape@physx@@PEAV12@U?$Hash@PEAVPxShape@physx@@@shdfnd@2@UGetKey@?$HashSetBase@PEAVPxShape@physx@@U?$Hash@PEAVPxShape@physx@@@shdfnd@2@VNonTrackingAllocator@42@$0A@@internal@42@VNonTrackingAllocator@42@$0A@@internal@shdfnd@physx@@AEAAXI@Z@4_NA 0000000180054588     CctCharacterControllerManager.obj
 0003:00000589       ?_ignore@?5??freeListAdd@?$HashBase@PEAVPxShape@physx@@PEAV12@U?$Hash@PEAVPxShape@physx@@@shdfnd@2@UGetKey@?$HashSetBase@PEAVPxShape@physx@@U?$Hash@PEAVPxShape@physx@@@shdfnd@2@VNonTrackingAllocator@42@$0A@@internal@42@VNonTrackingAllocator@42@$0A@@internal@shdfnd@physx@@AEAAXI@Z@4_NA 0000000180054589     CctCharacterControllerManager.obj
 0003:0000058a       ?_ignore@?4??reserveInternal@?$HashBase@V?$Pair@QEBVPxBase@physx@@UObservedRefCounter@Cct@2@@shdfnd@physx@@PEBVPxBase@3@U?$Hash@PEBVPxBase@physx@@@23@UGetKey@?$HashMapBase@PEBVPxBase@physx@@UObservedRefCounter@Cct@2@U?$Hash@PEBVPxBase@physx@@@shdfnd@2@VNonTrackingAllocator@62@@internal@23@VNonTrackingAllocator@23@$00@internal@shdfnd@physx@@AEAAXI@Z@4_NA 000000018005458a     CctCharacterControllerManager.obj
 0003:0000058b       ?_ignore@?6??reserveInternal@?$HashBase@V?$Pair@QEBVPxBase@physx@@UObservedRefCounter@Cct@2@@shdfnd@physx@@PEBVPxBase@3@U?$Hash@PEBVPxBase@physx@@@23@UGetKey@?$HashMapBase@PEBVPxBase@physx@@UObservedRefCounter@Cct@2@U?$Hash@PEBVPxBase@physx@@@shdfnd@2@VNonTrackingAllocator@62@@internal@23@VNonTrackingAllocator@23@$00@internal@shdfnd@physx@@AEAAXI@Z@4_NA 000000018005458b     CctCharacterControllerManager.obj
 0003:0000058c       ?_ignore@?BE@??reserveInternal@?$HashBase@V?$Pair@QEBVPxBase@physx@@UObservedRefCounter@Cct@2@@shdfnd@physx@@PEBVPxBase@3@U?$Hash@PEBVPxBase@physx@@@23@UGetKey@?$HashMapBase@PEBVPxBase@physx@@UObservedRefCounter@Cct@2@U?$Hash@PEBVPxBase@physx@@@shdfnd@2@VNonTrackingAllocator@62@@internal@23@VNonTrackingAllocator@23@$00@internal@shdfnd@physx@@AEAAXI@Z@4_NA 000000018005458c     CctCharacterControllerManager.obj
 0003:0000058d       ?_ignore@?4??reserveInternal@?$HashBase@PEAVPxShape@physx@@PEAV12@U?$Hash@PEAVPxShape@physx@@@shdfnd@2@UGetKey@?$HashSetBase@PEAVPxShape@physx@@U?$Hash@PEAVPxShape@physx@@@shdfnd@2@VNonTrackingAllocator@42@$0A@@internal@42@VNonTrackingAllocator@42@$0A@@internal@shdfnd@physx@@AEAAXI@Z@4_NA 000000018005458d     CctCharacterControllerManager.obj
 0003:0000058e       ?_ignore@?6??reserveInternal@?$HashBase@PEAVPxShape@physx@@PEAV12@U?$Hash@PEAVPxShape@physx@@@shdfnd@2@UGetKey@?$HashSetBase@PEAVPxShape@physx@@U?$Hash@PEAVPxShape@physx@@@shdfnd@2@VNonTrackingAllocator@42@$0A@@internal@42@VNonTrackingAllocator@42@$0A@@internal@shdfnd@physx@@AEAAXI@Z@4_NA 000000018005458e     CctCharacterControllerManager.obj
 0003:0000058f       ?_ignore@?L@??reserveInternal@?$HashBase@PEAVPxShape@physx@@PEAV12@U?$Hash@PEAVPxShape@physx@@@shdfnd@2@UGetKey@?$HashSetBase@PEAVPxShape@physx@@U?$Hash@PEAVPxShape@physx@@@shdfnd@2@VNonTrackingAllocator@42@$0A@@internal@42@VNonTrackingAllocator@42@$0A@@internal@shdfnd@physx@@AEAAXI@Z@4_NA 000000018005458f     CctCharacterControllerManager.obj
 0003:00000590       ?_ignore@?BE@??reserveInternal@?$HashBase@PEAVPxShape@physx@@PEAV12@U?$Hash@PEAVPxShape@physx@@@shdfnd@2@UGetKey@?$HashSetBase@PEAVPxShape@physx@@U?$Hash@PEAVPxShape@physx@@@shdfnd@2@VNonTrackingAllocator@42@$0A@@internal@42@VNonTrackingAllocator@42@$0A@@internal@shdfnd@physx@@AEAAXI@Z@4_NA 0000000180054590     CctCharacterControllerManager.obj
 0003:00000591       ?_ignore@?6??freeListAdd@?$HashBase@V?$Pair@QEBVPxBase@physx@@UObservedRefCounter@Cct@2@@shdfnd@physx@@PEBVPxBase@3@U?$Hash@PEBVPxBase@physx@@@23@UGetKey@?$HashMapBase@PEBVPxBase@physx@@UObservedRefCounter@Cct@2@U?$Hash@PEBVPxBase@physx@@@shdfnd@2@VNonTrackingAllocator@62@@internal@23@VNonTrackingAllocator@23@$00@internal@shdfnd@physx@@AEAAXII@Z@4_NA 0000000180054591     CctCharacterControllerManager.obj
 0003:00000592       ?_ignore@?6??freeListAdd@?$HashBase@PEAVPxShape@physx@@PEAV12@U?$Hash@PEAVPxShape@physx@@@shdfnd@2@UGetKey@?$HashSetBase@PEAVPxShape@physx@@U?$Hash@PEAVPxShape@physx@@@shdfnd@2@VNonTrackingAllocator@42@$0A@@internal@42@VNonTrackingAllocator@42@$0A@@internal@shdfnd@physx@@AEAAXII@Z@4_NA 0000000180054592     CctCharacterControllerManager.obj
 0003:00000593       ?_ignore@?2??growAndPushBack@?$Array@PEAVController@Cct@physx@@VNamedAllocator@shdfnd@3@@shdfnd@physx@@IEAAAEAPEAVController@Cct@4@AEBQEAV564@@Z@4_NA 0000000180054593     CctCharacterControllerManager.obj
 0003:00000594       ?_ignore@?2??growAndPushBack@?$Array@PEAVObstacleContext@Cct@physx@@VNamedAllocator@shdfnd@3@@shdfnd@physx@@IEAAAEAPEAVObstacleContext@Cct@4@AEBQEAV564@@Z@4_NA 0000000180054594     CctCharacterControllerManager.obj
 0003:00000595       ?_ignore@?2??grow@?$Array@UPxDebugText@physx@@VNamedAllocator@shdfnd@2@@shdfnd@physx@@IEAAXI@Z@4_NA 0000000180054595     CctCharacterControllerManager.obj
 0003:00000596       ?_ignore@?2??grow@?$Array@UPxDebugTriangle@physx@@VNamedAllocator@shdfnd@2@@shdfnd@physx@@IEAAXI@Z@4_NA 0000000180054596     CctCharacterControllerManager.obj
 0003:00000597       ?_ignore@?2??grow@?$Array@UPxDebugLine@physx@@VNamedAllocator@shdfnd@2@@shdfnd@physx@@IEAAXI@Z@4_NA 0000000180054597     CctCharacterControllerManager.obj
 0003:00000598       ?_ignore@?2??grow@?$Array@UPxDebugPoint@physx@@VNamedAllocator@shdfnd@2@@shdfnd@physx@@IEAAXI@Z@4_NA 0000000180054598     CctCharacterControllerManager.obj
 0003:00000599       ?_ignore@?2??growAndPushBack@?$Array@UPxDebugPoint@physx@@VNamedAllocator@shdfnd@2@@shdfnd@physx@@IEAAAEAUPxDebugPoint@4@AEBU54@@Z@4_NA 0000000180054599     CctCharacterControllerManager.obj
 0003:0000059a       ?_ignore@?2??recreate@?$Array@UPxDebugPoint@physx@@VNamedAllocator@shdfnd@2@@shdfnd@physx@@IEAAXI@Z@4_NA 000000018005459a     CctCharacterControllerManager.obj
 0003:0000059b       ?_ignore@?2??growAndPushBack@?$Array@UPxDebugLine@physx@@VNamedAllocator@shdfnd@2@@shdfnd@physx@@IEAAAEAUPxDebugLine@4@AEBU54@@Z@4_NA 000000018005459b     CctCharacterControllerManager.obj
 0003:0000059c       ?_ignore@?2??recreate@?$Array@UPxDebugLine@physx@@VNamedAllocator@shdfnd@2@@shdfnd@physx@@IEAAXI@Z@4_NA 000000018005459c     CctCharacterControllerManager.obj
 0003:0000059d       ?_ignore@?2??growAndPushBack@?$Array@UPxDebugTriangle@physx@@VNamedAllocator@shdfnd@2@@shdfnd@physx@@IEAAAEAUPxDebugTriangle@4@AEBU54@@Z@4_NA 000000018005459d     CctCharacterControllerManager.obj
 0003:0000059e       ?_ignore@?2??recreate@?$Array@UPxDebugTriangle@physx@@VNamedAllocator@shdfnd@2@@shdfnd@physx@@IEAAXI@Z@4_NA 000000018005459e     CctCharacterControllerManager.obj
 0003:0000059f       ?_ignore@?2??growAndPushBack@?$Array@UPxDebugText@physx@@VNamedAllocator@shdfnd@2@@shdfnd@physx@@IEAAAEAUPxDebugText@4@AEBU54@@Z@4_NA 000000018005459f     CctCharacterControllerManager.obj
 0003:000005a0       ?_ignore@?2??recreate@?$Array@UPxDebugText@physx@@VNamedAllocator@shdfnd@2@@shdfnd@physx@@IEAAXI@Z@4_NA 00000001800545a0     CctCharacterControllerManager.obj
 0003:000005a1       ?_ignore@?2??recreate@?$Array@PEBXVNamedAllocator@shdfnd@physx@@@shdfnd@physx@@IEAAXI@Z@4_NA 00000001800545a1     CctCharacterControllerManager.obj
 0003:000005a2       ?_ignore@?2??recreate@?$Array@VPxExtendedBox@physx@@VNamedAllocator@shdfnd@2@@shdfnd@physx@@IEAAXI@Z@4_NA 00000001800545a2     CctCharacterControllerManager.obj
 0003:000005a3       ?_ignore@?2??recreate@?$Array@UPxExtendedCapsule@physx@@VNamedAllocator@shdfnd@2@@shdfnd@physx@@IEAAXI@Z@4_NA 00000001800545a3     CctCharacterControllerManager.obj
 0003:000005a4       ?_ignore@?2??grow@?$Array@UPxExtendedCapsule@physx@@VNamedAllocator@shdfnd@2@@shdfnd@physx@@IEAAXI@Z@4_NA 00000001800545a4     CctCharacterControllerManager.obj
 0003:000005a5       ?_ignore@?2??grow@?$Array@VPxExtendedBox@physx@@VNamedAllocator@shdfnd@2@@shdfnd@physx@@IEAAXI@Z@4_NA 00000001800545a5     CctCharacterControllerManager.obj
 0003:000005a6       ?_ignore@?2??grow@?$Array@PEBXVNamedAllocator@shdfnd@physx@@@shdfnd@physx@@IEAAXI@Z@4_NA 00000001800545a6     CctCharacterControllerManager.obj
 0003:000005a8       ?_ignore@?2??to16@shdfnd@physx@@YAGI@Z@4_NA 00000001800545a8     CctObstacleContext.obj
 0003:000005b6       ?_ignore@?2??replaceWithLast@?$Array@UInternalCapsuleObstacle@ObstacleContext@Cct@physx@@VNamedAllocator@shdfnd@4@@shdfnd@physx@@QEAAXI@Z@4_NA 00000001800545b6     CctObstacleContext.obj
 0003:000005b7       ?_ignore@?2???A?$Array@UInternalCapsuleObstacle@ObstacleContext@Cct@physx@@VNamedAllocator@shdfnd@4@@shdfnd@physx@@QEAAAEAUInternalCapsuleObstacle@ObstacleContext@Cct@3@I@Z@4_NA 00000001800545b7     CctObstacleContext.obj
 0003:000005b8       ?_ignore@?2??replaceWithLast@?$Array@UInternalBoxObstacle@ObstacleContext@Cct@physx@@VNamedAllocator@shdfnd@4@@shdfnd@physx@@QEAAXI@Z@4_NA 00000001800545b8     CctObstacleContext.obj
 0003:000005b9       ?_ignore@?2???A?$Array@UInternalBoxObstacle@ObstacleContext@Cct@physx@@VNamedAllocator@shdfnd@4@@shdfnd@physx@@QEAAAEAUInternalBoxObstacle@ObstacleContext@Cct@3@I@Z@4_NA 00000001800545b9     CctObstacleContext.obj
 0003:000005ba       ?_ignore@?2??growAndPushBack@?$Array@UInternalBoxObstacle@ObstacleContext@Cct@physx@@VNamedAllocator@shdfnd@4@@shdfnd@physx@@IEAAAEAUInternalBoxObstacle@ObstacleContext@Cct@4@AEBU5674@@Z@4_NA 00000001800545ba     CctObstacleContext.obj
 0003:000005bb       ?_ignore@?2??growAndPushBack@?$Array@UInternalCapsuleObstacle@ObstacleContext@Cct@physx@@VNamedAllocator@shdfnd@4@@shdfnd@physx@@IEAAAEAUInternalCapsuleObstacle@ObstacleContext@Cct@4@AEBU5674@@Z@4_NA 00000001800545bb     CctObstacleContext.obj
 0003:000005c0       ?_ignore@?2???APxVec3@physx@@QEAAAEAMI@Z@4_NA 00000001800545c0     PhysX3ExtensionsDEBUG:ExtRigidBodyExt.obj
 0003:000005c1       ?_ignore@?2??getInverse@PxTransform@physx@@QEBA?AV23@XZ@4_NA 00000001800545c1     PhysX3ExtensionsDEBUG:ExtRigidBodyExt.obj
 0003:000005c2       ?_ignore@?2??transformFast@PxBounds3@physx@@SA?AV23@AEBVPxTransform@3@AEBV23@@Z@4_NA 00000001800545c2     PhysX3ExtensionsDEBUG:ExtRigidBodyExt.obj
 0003:000005c3       ?_ignore@?9???0PxMassProperties@physx@@QEAA@AEBVPxGeometry@2@@Z@4_NA 00000001800545c3     PhysX3ExtensionsDEBUG:ExtRigidBodyExt.obj
 0003:000005c4       ?_ignore@?L@???0PxMassProperties@physx@@QEAA@AEBVPxGeometry@2@@Z@4_NA 00000001800545c4     PhysX3ExtensionsDEBUG:ExtRigidBodyExt.obj
 0003:000005c5       ?_ignore@?M@???0PxMassProperties@physx@@QEAA@AEBVPxGeometry@2@@Z@4_NA 00000001800545c5     PhysX3ExtensionsDEBUG:ExtRigidBodyExt.obj
 0003:000005c6       ?_ignore@?2??translateInertia@PxMassProperties@physx@@SA?AVPxMat33@3@AEBV43@MAEBVPxVec3@3@@Z@4_NA 00000001800545c6     PhysX3ExtensionsDEBUG:ExtRigidBodyExt.obj
 0003:000005c7       ?_ignore@?3??translateInertia@PxMassProperties@physx@@SA?AVPxMat33@3@AEBV43@MAEBVPxVec3@3@@Z@4_NA 00000001800545c7     PhysX3ExtensionsDEBUG:ExtRigidBodyExt.obj
 0003:000005c8       ?_ignore@?4??translateInertia@PxMassProperties@physx@@SA?AVPxMat33@3@AEBV43@MAEBVPxVec3@3@@Z@4_NA 00000001800545c8     PhysX3ExtensionsDEBUG:ExtRigidBodyExt.obj
 0003:000005c9       ?_ignore@?5??translateInertia@PxMassProperties@physx@@SA?AVPxMat33@3@AEBV43@MAEBVPxVec3@3@@Z@4_NA 00000001800545c9     PhysX3ExtensionsDEBUG:ExtRigidBodyExt.obj
 0003:000005ca       ?_ignore@?2??rotateInertia@PxMassProperties@physx@@SA?AVPxMat33@3@AEBV43@AEBVPxQuat@3@@Z@4_NA 00000001800545ca     PhysX3ExtensionsDEBUG:ExtRigidBodyExt.obj
 0003:000005cb       ?_ignore@?3??rotateInertia@PxMassProperties@physx@@SA?AVPxMat33@3@AEBV43@AEBVPxQuat@3@@Z@4_NA 00000001800545cb     PhysX3ExtensionsDEBUG:ExtRigidBodyExt.obj
 0003:000005cc       ?_ignore@?4??rotateInertia@PxMassProperties@physx@@SA?AVPxMat33@3@AEBV43@AEBVPxQuat@3@@Z@4_NA 00000001800545cc     PhysX3ExtensionsDEBUG:ExtRigidBodyExt.obj
 0003:000005cd       ?_ignore@?2??scaleInertia@PxMassProperties@physx@@SA?AVPxMat33@3@AEBV43@AEBVPxQuat@3@AEBVPxVec3@3@@Z@4_NA 00000001800545cd     PhysX3ExtensionsDEBUG:ExtRigidBodyExt.obj
 0003:000005ce       ?_ignore@?3??scaleInertia@PxMassProperties@physx@@SA?AVPxMat33@3@AEBV43@AEBVPxQuat@3@AEBVPxVec3@3@@Z@4_NA 00000001800545ce     PhysX3ExtensionsDEBUG:ExtRigidBodyExt.obj
 0003:000005cf       ?_ignore@?4??scaleInertia@PxMassProperties@physx@@SA?AVPxMat33@3@AEBV43@AEBVPxQuat@3@AEBVPxVec3@3@@Z@4_NA 00000001800545cf     PhysX3ExtensionsDEBUG:ExtRigidBodyExt.obj
 0003:000005d0       ?_ignore@?5??scaleInertia@PxMassProperties@physx@@SA?AVPxMat33@3@AEBV43@AEBVPxQuat@3@AEBVPxVec3@3@@Z@4_NA 00000001800545d0     PhysX3ExtensionsDEBUG:ExtRigidBodyExt.obj
 0003:000005d1       ?_ignore@?4??sum@PxMassProperties@physx@@SA?AV23@PEBV23@PEBVPxTransform@3@I@Z@4_NA 00000001800545d1     PhysX3ExtensionsDEBUG:ExtRigidBodyExt.obj
 0003:000005d2       ?_ignore@?5??sum@PxMassProperties@physx@@SA?AV23@PEBV23@PEBVPxTransform@3@I@Z@4_NA 00000001800545d2     PhysX3ExtensionsDEBUG:ExtRigidBodyExt.obj
 0003:000005d3       ?_ignore@?6??sum@PxMassProperties@physx@@SA?AV23@PEBV23@PEBVPxTransform@3@I@Z@4_NA 00000001800545d3     PhysX3ExtensionsDEBUG:ExtRigidBodyExt.obj
 0003:000005d4       ?_ignore@?9??sum@PxMassProperties@physx@@SA?AV23@PEBV23@PEBVPxTransform@3@I@Z@4_NA 00000001800545d4     PhysX3ExtensionsDEBUG:ExtRigidBodyExt.obj
 0003:000005d5       ?_ignore@?L@??sum@PxMassProperties@physx@@SA?AV23@PEBV23@PEBVPxTransform@3@I@Z@4_NA 00000001800545d5     PhysX3ExtensionsDEBUG:ExtRigidBodyExt.obj
 0003:000005d6       ?_ignore@?M@??sum@PxMassProperties@physx@@SA?AV23@PEBV23@PEBVPxTransform@3@I@Z@4_NA 00000001800545d6     PhysX3ExtensionsDEBUG:ExtRigidBodyExt.obj
 0003:000005dc       ?_ignore@?2??setDiagonal@InertiaTensorComputer@Ext@physx@@QEAAXMAEBVPxVec3@4@@Z@4_NA 00000001800545dc     PhysX3ExtensionsDEBUG:ExtRigidBodyExt.obj
 0003:000005dd       ?_ignore@?3??setDiagonal@InertiaTensorComputer@Ext@physx@@QEAAXMAEBVPxVec3@4@@Z@4_NA 00000001800545dd     PhysX3ExtensionsDEBUG:ExtRigidBodyExt.obj
 0003:000005de       ?_ignore@?2??rotate@InertiaTensorComputer@Ext@physx@@QEAAXAEBVPxMat33@4@@Z@4_NA 00000001800545de     PhysX3ExtensionsDEBUG:ExtRigidBodyExt.obj
 0003:000005df       ?_ignore@?3??rotate@InertiaTensorComputer@Ext@physx@@QEAAXAEBVPxMat33@4@@Z@4_NA 00000001800545df     PhysX3ExtensionsDEBUG:ExtRigidBodyExt.obj
 0003:000005e2       ?_ignore@?2??scaleDensity@InertiaTensorComputer@Ext@physx@@QEAAXM@Z@4_NA 00000001800545e2     PhysX3ExtensionsDEBUG:ExtRigidBodyExt.obj
 0003:000005e3       ?_ignore@?3??scaleDensity@InertiaTensorComputer@Ext@physx@@QEAAXM@Z@4_NA 00000001800545e3     PhysX3ExtensionsDEBUG:ExtRigidBodyExt.obj
 0003:000005e4       ?_ignore@?2??add@InertiaTensorComputer@Ext@physx@@QEAAXAEBV234@@Z@4_NA 00000001800545e4     PhysX3ExtensionsDEBUG:ExtRigidBodyExt.obj
 0003:000005e5       ?_ignore@?3??add@InertiaTensorComputer@Ext@physx@@QEAAXAEBV234@@Z@4_NA 00000001800545e5     PhysX3ExtensionsDEBUG:ExtRigidBodyExt.obj
 0003:000005e6       ?_ignore@?4??add@InertiaTensorComputer@Ext@physx@@QEAAXAEBV234@@Z@4_NA 00000001800545e6     PhysX3ExtensionsDEBUG:ExtRigidBodyExt.obj
 0003:000005f6       ?_ignore@?2???A?$Array@PEAVPxShape@physx@@V?$InlineAllocator@$0IA@VNamedAllocator@shdfnd@physx@@@shdfnd@2@@shdfnd@physx@@QEAAAEAPEAVPxShape@3@I@Z@4_NA 00000001800545f6     PhysX3ExtensionsDEBUG:ExtRigidBodyExt.obj
 0003:000005f7       ?_ignore@?2??grow@?$Array@VPxTransform@physx@@V?$InlineAllocator@$0BMA@VNamedAllocator@shdfnd@physx@@@shdfnd@2@@shdfnd@physx@@IEAAXI@Z@4_NA 00000001800545f7     PhysX3ExtensionsDEBUG:ExtRigidBodyExt.obj
 0003:000005f8       ?_ignore@?2??grow@?$Array@VPxMassProperties@physx@@V?$InlineAllocator@$0DEA@VNamedAllocator@shdfnd@physx@@@shdfnd@2@@shdfnd@physx@@IEAAXI@Z@4_NA 00000001800545f8     PhysX3ExtensionsDEBUG:ExtRigidBodyExt.obj
 0003:000005f9       ?_ignore@?2??growAndPushBack@?$Array@VPxMassProperties@physx@@V?$InlineAllocator@$0DEA@VNamedAllocator@shdfnd@physx@@@shdfnd@2@@shdfnd@physx@@IEAAAEAVPxMassProperties@4@AEBV54@@Z@4_NA 00000001800545f9     PhysX3ExtensionsDEBUG:ExtRigidBodyExt.obj
 0003:000005fa       ?_ignore@?2??recreate@?$Array@VPxMassProperties@physx@@V?$InlineAllocator@$0DEA@VNamedAllocator@shdfnd@physx@@@shdfnd@2@@shdfnd@physx@@IEAAXI@Z@4_NA 00000001800545fa     PhysX3ExtensionsDEBUG:ExtRigidBodyExt.obj
 0003:000005fb       ?_ignore@?2??growAndPushBack@?$Array@VPxTransform@physx@@V?$InlineAllocator@$0BMA@VNamedAllocator@shdfnd@physx@@@shdfnd@2@@shdfnd@physx@@IEAAAEAVPxTransform@4@AEBV54@@Z@4_NA 00000001800545fb     PhysX3ExtensionsDEBUG:ExtRigidBodyExt.obj
 0003:000005fc       ?_ignore@?2??recreate@?$Array@VPxTransform@physx@@V?$InlineAllocator@$0BMA@VNamedAllocator@shdfnd@physx@@@shdfnd@2@@shdfnd@physx@@IEAAXI@Z@4_NA 00000001800545fc     PhysX3ExtensionsDEBUG:ExtRigidBodyExt.obj
 0003:000005fd       ?_ignore@?2??grow@?$Array@PEAVPxShape@physx@@V?$InlineAllocator@$0IA@VNamedAllocator@shdfnd@physx@@@shdfnd@2@@shdfnd@physx@@IEAAXI@Z@4_NA 00000001800545fd     PhysX3ExtensionsDEBUG:ExtRigidBodyExt.obj
 0003:000005fe       ?_ignore@?2??recreate@?$Array@PEAVPxShape@physx@@V?$InlineAllocator@$0IA@VNamedAllocator@shdfnd@physx@@@shdfnd@2@@shdfnd@physx@@IEAAXI@Z@4_NA 00000001800545fe     PhysX3ExtensionsDEBUG:ExtRigidBodyExt.obj
 0003:00000600       ?__type_info_root_node@@3U__type_info_node@@A 0000000180054600     MSVCRTD:tncleanup.obj
 0003:00000630       __scrt_current_native_startup_state 0000000180054630     MSVCRTD:utility.obj
 0003:00000638       __scrt_native_startup_lock 0000000180054638     MSVCRTD:utility.obj
 0003:00000680       ?_OptionsStorage@?1??__local_stdio_printf_options@@9@4_KA 0000000180054680     MSVCRTD:default_local_stdio_options.obj
 0003:00000690       ?_OptionsStorage@?1??__local_stdio_scanf_options@@9@4_KA 0000000180054690     MSVCRTD:default_local_stdio_options.obj
 0003:0000069c       __scrt_debugger_hook_flag  000000018005469c     MSVCRTD:utility_desktop.obj
 0003:000006a0       __favor                    00000001800546a0     MSVCRTD:_cpu_disp_.obj
 0003:00000d48       __dyn_tls_init_callback    0000000180054d48     <common>
 0005:00000000       __imp_QueryPerformanceCounter 0000000180059000     kernel32:KERNEL32.dll
 0005:00000008       __imp_GetCurrentProcessId  0000000180059008     kernel32:KERNEL32.dll
 0005:00000010       __imp_GetCurrentThreadId   0000000180059010     kernel32:KERNEL32.dll
 0005:00000018       __imp_GetSystemTimeAsFileTime 0000000180059018     kernel32:KERNEL32.dll
 0005:00000020       __imp_DisableThreadLibraryCalls 0000000180059020     kernel32:KERNEL32.dll
 0005:00000028       __imp_RtlCaptureContext    0000000180059028     kernel32:KERNEL32.dll
 0005:00000030       __imp_RtlLookupFunctionEntry 0000000180059030     kernel32:KERNEL32.dll
 0005:00000038       __imp_RtlVirtualUnwind     0000000180059038     kernel32:KERNEL32.dll
 0005:00000040       __imp_IsDebuggerPresent    0000000180059040     kernel32:KERNEL32.dll
 0005:00000048       __imp_UnhandledExceptionFilter 0000000180059048     kernel32:KERNEL32.dll
 0005:00000050       __imp_SetUnhandledExceptionFilter 0000000180059050     kernel32:KERNEL32.dll
 0005:00000058       __imp_GetStartupInfoW      0000000180059058     kernel32:KERNEL32.dll
 0005:00000060       __imp_IsProcessorFeaturePresent 0000000180059060     kernel32:KERNEL32.dll
 0005:00000068       __imp_GetModuleHandleW     0000000180059068     kernel32:KERNEL32.dll
 0005:00000070       __imp_RaiseException       0000000180059070     kernel32:KERNEL32.dll
 0005:00000078       __imp_MultiByteToWideChar  0000000180059078     kernel32:KERNEL32.dll
 0005:00000080       __imp_WideCharToMultiByte  0000000180059080     kernel32:KERNEL32.dll
 0005:00000088       __imp_GetLastError         0000000180059088     kernel32:KERNEL32.dll
 0005:00000090       __imp_HeapAlloc            0000000180059090     kernel32:KERNEL32.dll
 0005:00000098       __imp_HeapFree             0000000180059098     kernel32:KERNEL32.dll
 0005:000000a0       __imp_GetProcessHeap       00000001800590a0     kernel32:KERNEL32.dll
 0005:000000a8       __imp_VirtualQuery         00000001800590a8     kernel32:KERNEL32.dll
 0005:000000b0       __imp_FreeLibrary          00000001800590b0     kernel32:KERNEL32.dll
 0005:000000b8       __imp_GetProcAddress       00000001800590b8     kernel32:KERNEL32.dll
 0005:000000c0       __imp_GetCurrentProcess    00000001800590c0     kernel32:KERNEL32.dll
 0005:000000c8       __imp_TerminateProcess     00000001800590c8     kernel32:KERNEL32.dll
 0005:000000d0       __imp_InitializeSListHead  00000001800590d0     kernel32:KERNEL32.dll
 0005:000000d8       \177KERNEL32_NULL_THUNK_DATA 00000001800590d8     kernel32:KERNEL32.dll
 0005:00000158       __imp_?sweep@PxGeometryQuery@physx@@SA_NAEBVPxVec3@2@MAEBVPxGeometry@2@AEBVPxTransform@2@12AEAUPxSweepHit@2@V?$PxFlags@W4Enum@PxHitFlag@physx@@G@2@M@Z 0000000180059158     PhysX3CommonDEBUG_x64:PhysX3CommonDEBUG_x64.dll
 0005:00000160       __imp_?computePenetration@PxGeometryQuery@physx@@SA_NAEAVPxVec3@2@AEAMAEBVPxGeometry@2@AEBVPxTransform@2@23@Z 0000000180059160     PhysX3CommonDEBUG_x64:PhysX3CommonDEBUG_x64.dll
 0005:00000168       __imp_??0Box@Gu@physx@@QEAA@AEBVPxVec3@2@0AEBVPxMat33@2@@Z 0000000180059168     PhysX3CommonDEBUG_x64:PhysX3CommonDEBUG_x64.dll
 0005:00000170       __imp_??1Box@Gu@physx@@QEAA@XZ 0000000180059170     PhysX3CommonDEBUG_x64:PhysX3CommonDEBUG_x64.dll
 0005:00000178       __imp_?intersectOBBOBB@Gu@physx@@YA_NAEBVPxVec3@2@0AEBVPxMat33@2@001_N@Z 0000000180059178     PhysX3CommonDEBUG_x64:PhysX3CommonDEBUG_x64.dll
 0005:00000180       __imp_?distanceSegmentBoxSquared@Gu@physx@@YAMAEBVPxVec3@2@000AEBVPxMat33@2@PEAMPEAV32@@Z 0000000180059180     PhysX3CommonDEBUG_x64:PhysX3CommonDEBUG_x64.dll
 0005:00000188       __imp_?getTriangle@PxMeshQuery@physx@@SAXAEBVPxTriangleMeshGeometry@2@AEBVPxTransform@2@IAEAVPxTriangle@2@PEAI3@Z 0000000180059188     PhysX3CommonDEBUG_x64:PhysX3CommonDEBUG_x64.dll
 0005:00000190       __imp_?getTriangle@PxMeshQuery@physx@@SAXAEBVPxHeightFieldGeometry@2@AEBVPxTransform@2@IAEAVPxTriangle@2@PEAI3@Z 0000000180059190     PhysX3CommonDEBUG_x64:PhysX3CommonDEBUG_x64.dll
 0005:00000198       __imp_?PxTransformFromSegment@physx@@YA?AVPxTransform@1@AEBVPxVec3@1@0PEAM@Z 0000000180059198     PhysX3CommonDEBUG_x64:PhysX3CommonDEBUG_x64.dll
 0005:000001a0       __imp_??6RenderOutput@Cm@physx@@QEAAAEAV012@VPxVec3@2@@Z 00000001800591a0     PhysX3CommonDEBUG_x64:PhysX3CommonDEBUG_x64.dll
 0005:000001a8       __imp_?intersectTriangleBox_Unsafe@Gu@physx@@YAHAEBVPxVec3@2@0000@Z 00000001800591a8     PhysX3CommonDEBUG_x64:PhysX3CommonDEBUG_x64.dll
 0005:000001b0       __imp_?CompleteBoxPruning@Cm@physx@@YA_NPEBVPxBounds3@2@IAEAV?$Array@IVNamedAllocator@shdfnd@physx@@@shdfnd@2@AEBVAxes@Gu@2@@Z 00000001800591b0     PhysX3CommonDEBUG_x64:PhysX3CommonDEBUG_x64.dll
 0005:000001b8       __imp_?distanceSegmentSegmentSquared@Gu@physx@@YAMAEBVPxVec3@2@000PEAM1@Z 00000001800591b8     PhysX3CommonDEBUG_x64:PhysX3CommonDEBUG_x64.dll
 0005:000001c0       __imp_?getRaycastFuncTable@Gu@physx@@YAAEAY06Q6AIAEBVPxGeometry@2@AEBVPxTransform@2@AEBVPxVec3@2@2MV?$PxFlags@W4Enum@PxHitFlag@physx@@G@2@IPEIAUPxRaycastHit@2@@ZXZ 00000001800591c0     PhysX3CommonDEBUG_x64:PhysX3CommonDEBUG_x64.dll
 0005:000001c8       __imp_?findOverlapTriangleMesh@PxMeshQuery@physx@@SAIAEBVPxGeometry@2@AEBVPxTransform@2@AEBVPxTriangleMeshGeometry@2@1PEAIIIAEA_N@Z 00000001800591c8     PhysX3CommonDEBUG_x64:PhysX3CommonDEBUG_x64.dll
 0005:000001d0       __imp_?findOverlapHeightField@PxMeshQuery@physx@@SAIAEBVPxGeometry@2@AEBVPxTransform@2@AEBVPxHeightFieldGeometry@2@1PEAIIIAEA_N@Z 00000001800591d0     PhysX3CommonDEBUG_x64:PhysX3CommonDEBUG_x64.dll
 0005:000001d8       __imp_??6Cm@physx@@YAAEAVRenderOutput@01@AEAV201@AEBUDebugBox@01@@Z 00000001800591d8     PhysX3CommonDEBUG_x64:PhysX3CommonDEBUG_x64.dll
 0005:000001e0       __imp_?outputCapsule@RenderOutput@Cm@physx@@QEAAAEAV123@MMAEBVPxMat44@3@@Z 00000001800591e0     PhysX3CommonDEBUG_x64:PhysX3CommonDEBUG_x64.dll
 0005:000001e8       __imp_??6RenderOutput@Cm@physx@@QEAAAEAV012@AEBVPxTransform@2@@Z 00000001800591e8     PhysX3CommonDEBUG_x64:PhysX3CommonDEBUG_x64.dll
 0005:000001f0       __imp_??6RenderOutput@Cm@physx@@QEAAAEAV012@I@Z 00000001800591f0     PhysX3CommonDEBUG_x64:PhysX3CommonDEBUG_x64.dll
 0005:000001f8       __imp_??0RenderOutput@Cm@physx@@QEAA@AEAVRenderBuffer@12@@Z 00000001800591f8     PhysX3CommonDEBUG_x64:PhysX3CommonDEBUG_x64.dll
 0005:00000200       __imp_?sweep@PxMeshQuery@physx@@SA_NAEBVPxVec3@2@MAEBVPxGeometry@2@AEBVPxTransform@2@IPEBVPxTriangle@2@AEAUPxSweepHit@2@V?$PxFlags@W4Enum@PxHitFlag@physx@@G@2@PEBIM_N@Z 0000000180059200     PhysX3CommonDEBUG_x64:PhysX3CommonDEBUG_x64.dll
 0005:00000208       __imp_??6RenderOutput@Cm@physx@@QEAAAEAV012@W4Primitive@012@@Z 0000000180059208     PhysX3CommonDEBUG_x64:PhysX3CommonDEBUG_x64.dll
 0005:00000210       \177PhysX3CommonDEBUG_x64_NULL_THUNK_DATA 0000000180059210     PhysX3CommonDEBUG_x64:PhysX3CommonDEBUG_x64.dll
 0005:00000288       __imp_?PxDiagonalize@physx@@YA?AVPxVec3@1@AEBVPxMat33@1@AEAVPxQuat@1@@Z 0000000180059288     PxFoundationDEBUG_x64:PxFoundationDEBUG_x64.dll
 0005:00000290       __imp_?PxGetAssertHandler@physx@@YAAEAVPxAssertHandler@1@XZ 0000000180059290     PxFoundationDEBUG_x64:PxFoundationDEBUG_x64.dll
 0005:00000298       __imp_?PxShortestRotation@physx@@YA?AVPxQuat@1@AEBVPxVec3@1@0@Z 0000000180059298     PxFoundationDEBUG_x64:PxFoundationDEBUG_x64.dll
 0005:000002a0       __imp_?error@Foundation@shdfnd@physx@@QEAAXW4Enum@PxErrorCode@3@PEBDH1ZZ 00000001800592a0     PxFoundationDEBUG_x64:PxFoundationDEBUG_x64.dll
 0005:000002a8       __imp_?decRefCount@Foundation@shdfnd@physx@@SAXXZ 00000001800592a8     PxFoundationDEBUG_x64:PxFoundationDEBUG_x64.dll
 0005:000002b0       __imp_?incRefCount@Foundation@shdfnd@physx@@SAXXZ 00000001800592b0     PxFoundationDEBUG_x64:PxFoundationDEBUG_x64.dll
 0005:000002b8       __imp_?getInstance@Foundation@shdfnd@physx@@SAAEAV123@XZ 00000001800592b8     PxFoundationDEBUG_x64:PxFoundationDEBUG_x64.dll
 0005:000002c0       __imp_?getSize@MutexImpl@shdfnd@physx@@SAIXZ 00000001800592c0     PxFoundationDEBUG_x64:PxFoundationDEBUG_x64.dll
 0005:000002c8       __imp_??1MutexImpl@shdfnd@physx@@QEAA@XZ 00000001800592c8     PxFoundationDEBUG_x64:PxFoundationDEBUG_x64.dll
 0005:000002d0       __imp_??0MutexImpl@shdfnd@physx@@QEAA@XZ 00000001800592d0     PxFoundationDEBUG_x64:PxFoundationDEBUG_x64.dll
 0005:000002d8       __imp_PxGetFoundation      00000001800592d8     PxFoundationDEBUG_x64:PxFoundationDEBUG_x64.dll
 0005:000002e0       __imp_?deallocate@NamedAllocator@shdfnd@physx@@QEAAXPEAX@Z 00000001800592e0     PxFoundationDEBUG_x64:PxFoundationDEBUG_x64.dll
 0005:000002e8       __imp_?allocate@NamedAllocator@shdfnd@physx@@QEAAPEAX_KPEBDH@Z 00000001800592e8     PxFoundationDEBUG_x64:PxFoundationDEBUG_x64.dll
 0005:000002f0       __imp_??1NamedAllocator@shdfnd@physx@@QEAA@XZ 00000001800592f0     PxFoundationDEBUG_x64:PxFoundationDEBUG_x64.dll
 0005:000002f8       __imp_??0NamedAllocator@shdfnd@physx@@QEAA@AEBV012@@Z 00000001800592f8     PxFoundationDEBUG_x64:PxFoundationDEBUG_x64.dll
 0005:00000300       __imp_PxGetProfilerCallback 0000000180059300     PxFoundationDEBUG_x64:PxFoundationDEBUG_x64.dll
 0005:00000308       __imp_?unlock@MutexImpl@shdfnd@physx@@QEAAXXZ 0000000180059308     PxFoundationDEBUG_x64:PxFoundationDEBUG_x64.dll
 0005:00000310       __imp_?lock@MutexImpl@shdfnd@physx@@QEAAXXZ 0000000180059310     PxFoundationDEBUG_x64:PxFoundationDEBUG_x64.dll
 0005:00000318       __imp_??0NamedAllocator@shdfnd@physx@@QEAA@PEBD@Z 0000000180059318     PxFoundationDEBUG_x64:PxFoundationDEBUG_x64.dll
 0005:00000320       __imp_?getAllocator@shdfnd@physx@@YAAEAVPxAllocatorCallback@2@XZ 0000000180059320     PxFoundationDEBUG_x64:PxFoundationDEBUG_x64.dll
 0005:00000328       \177PxFoundationDEBUG_x64_NULL_THUNK_DATA 0000000180059328     PxFoundationDEBUG_x64:PxFoundationDEBUG_x64.dll
 0005:000003a0       __imp___vcrt_LoadLibraryExW 00000001800593a0     vcruntimed:VCRUNTIME140D.dll
 0005:000003a8       __imp_memcpy               00000001800593a8     vcruntimed:VCRUNTIME140D.dll
 0005:000003b0       __imp_memset               00000001800593b0     vcruntimed:VCRUNTIME140D.dll
 0005:000003b8       __imp___std_type_info_name 00000001800593b8     vcruntimed:VCRUNTIME140D.dll
 0005:000003c0       __imp___std_type_info_destroy_list 00000001800593c0     vcruntimed:VCRUNTIME140D.dll
 0005:000003c8       __imp___C_specific_handler 00000001800593c8     vcruntimed:VCRUNTIME140D.dll
 0005:000003d0       __imp___vcrt_GetModuleFileNameW 00000001800593d0     vcruntimed:VCRUNTIME140D.dll
 0005:000003d8       __imp___vcrt_GetModuleHandleW 00000001800593d8     vcruntimed:VCRUNTIME140D.dll
 0005:000003e0       __imp__purecall            00000001800593e0     vcruntimed:VCRUNTIME140D.dll
 0005:000003e8       \177VCRUNTIME140D_NULL_THUNK_DATA 00000001800593e8     vcruntimed:VCRUNTIME140D.dll
 0005:00000448       __imp__register_onexit_function 0000000180059448     ucrtd:ucrtbased.dll
 0005:00000450       __imp__initialize_onexit_table 0000000180059450     ucrtd:ucrtbased.dll
 0005:00000458       __imp__initialize_narrow_environment 0000000180059458     ucrtd:ucrtbased.dll
 0005:00000460       __imp__configure_narrow_argv 0000000180059460     ucrtd:ucrtbased.dll
 0005:00000468       __imp__seh_filter_dll      0000000180059468     ucrtd:ucrtbased.dll
 0005:00000470       __imp__free_dbg            0000000180059470     ucrtd:ucrtbased.dll
 0005:00000478       __imp__execute_onexit_table 0000000180059478     ucrtd:ucrtbased.dll
 0005:00000480       __imp__initterm            0000000180059480     ucrtd:ucrtbased.dll
 0005:00000488       __imp__CrtDbgReportW       0000000180059488     ucrtd:ucrtbased.dll
 0005:00000490       __imp__CrtDbgReport        0000000180059490     ucrtd:ucrtbased.dll
 0005:00000498       __imp__fpclass             0000000180059498     ucrtd:ucrtbased.dll
 0005:000004a0       __imp_sqrtf                00000001800594a0     ucrtd:ucrtbased.dll
 0005:000004a8       __imp_fabs                 00000001800594a8     ucrtd:ucrtbased.dll
 0005:000004b0       __imp__crt_atexit          00000001800594b0     ucrtd:ucrtbased.dll
 0005:000004b8       __imp__crt_at_quick_exit   00000001800594b8     ucrtd:ucrtbased.dll
 0005:000004c0       __imp__cexit               00000001800594c0     ucrtd:ucrtbased.dll
 0005:000004c8       __imp_terminate            00000001800594c8     ucrtd:ucrtbased.dll
 0005:000004d0       __imp_wcscpy_s             00000001800594d0     ucrtd:ucrtbased.dll
 0005:000004d8       __imp__wsplitpath_s        00000001800594d8     ucrtd:ucrtbased.dll
 0005:000004e0       __imp__wmakepath_s         00000001800594e0     ucrtd:ucrtbased.dll
 0005:000004e8       __imp__initterm_e          00000001800594e8     ucrtd:ucrtbased.dll
 0005:000004f0       __imp___stdio_common_vsprintf_s 00000001800594f0     ucrtd:ucrtbased.dll
 0005:000004f8       \177ucrtbased_NULL_THUNK_DATA 00000001800594f8     ucrtd:ucrtbased.dll
 0005:00000570       __IMPORT_DESCRIPTOR_PxFoundationDEBUG_x64 0000000180059570     PxFoundationDEBUG_x64:PxFoundationDEBUG_x64.dll
 0005:00000584       __IMPORT_DESCRIPTOR_PhysX3CommonDEBUG_x64 0000000180059584     PhysX3CommonDEBUG_x64:PhysX3CommonDEBUG_x64.dll
 0005:00000598       __IMPORT_DESCRIPTOR_VCRUNTIME140D 0000000180059598     vcruntimed:VCRUNTIME140D.dll
 0005:000005ac       __IMPORT_DESCRIPTOR_ucrtbased 00000001800595ac     ucrtd:ucrtbased.dll
 0005:000005c0       __IMPORT_DESCRIPTOR_KERNEL32 00000001800595c0     kernel32:KERNEL32.dll
 0005:000005d4       __NULL_IMPORT_DESCRIPTOR   00000001800595d4     PxFoundationDEBUG_x64:PxFoundationDEBUG_x64.dll
 0007:00000000       __guard_check_icall_fptr   000000018005c000     MSVCRTD:guard_support.obj
 0007:00000010       __guard_dispatch_icall_fptr 000000018005c010     MSVCRTD:guard_support.obj
