 PhysX3CharacterKinematic_x64

 Timestamp is 5c00a624 (Thu Nov 29 23:53:24 2018)

 Preferred load address is 0000000180000000

 Start         Length     Name                   Class
 0001:00000000 000000a0H .text$di                CODE
 0001:000000a0 00020ab0H .text$mn                CODE
 0001:00020b50 00000012H .text$mn$00             CODE
 0001:00020b62 00000081H .text$x                 CODE
 0002:00000000 00000260H .idata$5                DATA
 0002:00000260 00000010H .00cfg                  DATA
 0002:00000270 00000008H .CRT$XCA                DATA
 0002:00000278 00000030H .CRT$XCU                DATA
 0002:000002a8 00000008H .CRT$XCZ                DATA
 0002:000002b0 00000008H .CRT$XIA                DATA
 0002:000002b8 00000008H .CRT$XIZ                DATA
 0002:000002c0 00000008H .CRT$XPA                DATA
 0002:000002c8 00000008H .CRT$XPZ                DATA
 0002:000002d0 00000008H .CRT$XTA                DATA
 0002:000002d8 00000008H .CRT$XTZ                DATA
 0002:000002e0 00001348H .rdata                  DATA
 0002:00001628 00000074H .rdata$r                DATA
 0002:0000169c 0000032cH .rdata$zzzdbg           DATA
 0002:000019c8 00000008H .rtc$IAA                DATA
 0002:000019d0 00000008H .rtc$IZZ                DATA
 0002:000019d8 00000008H .rtc$TAA                DATA
 0002:000019e0 00000008H .rtc$TZZ                DATA
 0002:000019e8 00002458H .xdata                  DATA
 0002:00003e40 0000082cH .edata                  DATA
 0002:0000466c 0000008cH .idata$2                DATA
 0002:000046f8 00000018H .idata$3                DATA
 0002:00004710 00000260H .idata$4                DATA
 0002:00004970 00000da2H .idata$6                DATA
 0003:00000000 000000b0H .data                   DATA
 0003:000000b0 00000450H .data$r                 DATA
 0003:00000500 000000e0H .bss                    DATA
 0004:00000000 0000159cH .pdata                  DATA
 0005:00000000 0000001cH .gfids$y                DATA
 0006:00000000 000000a0H .rsrc$01                DATA
 0006:000000a0 00000500H .rsrc$02                DATA

  Address         Publics by Value              Rva+Base               Lib:Object

 0000:00000000       __guard_fids_count         0000000000000000     <absolute>
 0000:00000000       ___safe_se_handler_count   0000000000000000     <absolute>
 0000:00000000       __guard_fids_table         0000000000000000     <absolute>
 0000:00000000       __guard_longjmp_table      0000000000000000     <absolute>
 0000:00000000       __guard_longjmp_count      0000000000000000     <absolute>
 0000:00000000       __guard_iat_count          0000000000000000     <absolute>
 0000:00000000       ___safe_se_handler_table   0000000000000000     <absolute>
 0000:00000000       __guard_iat_table          0000000000000000     <absolute>
 0000:00000000       __dynamic_value_reloc_table 0000000000000000     <absolute>
 0000:00000100       __guard_flags              0000000000000100     <absolute>
 0000:00000000       __ImageBase                0000000180000000     <linker-defined>
 0001:000000a0       ??0BoxController@Cct@physx@@QEAA@AEBVPxControllerDesc@2@AEAVPxPhysics@2@PEAVPxScene@2@@Z 00000001800010a0 f   CctBoxController.obj
 0001:00000190       ??1BoxController@Cct@physx@@UEAA@XZ 0000000180001190 f   CctBoxController.obj
 0001:000001d0       ?getWorldBox@BoxController@Cct@physx@@UEBA_NAEAUPxExtendedBounds3@3@@Z 00000001800011d0 f   CctBoxController.obj
 0001:00000280       ?setFootPosition@BoxController@Cct@physx@@UEAA_NAEBUPxExtendedVec3@3@@Z 0000000180001280 f   CctBoxController.obj
 0001:00000300       ?getFootPosition@BoxController@Cct@physx@@UEBA?AUPxExtendedVec3@3@XZ 0000000180001300 f   CctBoxController.obj
 0001:00000380       ?invalidateCache@BoxController@Cct@physx@@UEAAXXZ 0000000180001380 f   CctBoxController.obj
 0001:000003e0       ?resize@BoxController@Cct@physx@@UEAAXM@Z 00000001800013e0 f   CctBoxController.obj
 0001:000004b0       ?getHalfHeight@BoxController@Cct@physx@@UEBAMXZ 00000001800014b0 f   CctBoxController.obj
 0001:000004c0       ?getHalfSideExtent@BoxController@Cct@physx@@UEBAMXZ 00000001800014c0 f   CctBoxController.obj
 0001:000004d0       ?getHalfForwardExtent@BoxController@Cct@physx@@UEBAMXZ 00000001800014d0 f   CctBoxController.obj
 0001:000004e0       ?setHalfHeight@BoxController@Cct@physx@@UEAA_NM@Z 00000001800014e0 f   CctBoxController.obj
 0001:00000500       ?setHalfSideExtent@BoxController@Cct@physx@@UEAA_NM@Z 0000000180001500 f   CctBoxController.obj
 0001:00000520       ?setHalfForwardExtent@BoxController@Cct@physx@@UEAA_NM@Z 0000000180001520 f   CctBoxController.obj
 0001:00000540       ?updateKinematicProxy@BoxController@Cct@physx@@QEAA_NXZ 0000000180001540 f   CctBoxController.obj
 0001:000005e0       ?getOBB@BoxController@Cct@physx@@QEBAXAEAVPxExtendedBox@3@@Z 00000001800015e0 f   CctBoxController.obj
 0001:000006f0       ??0Allocator@shdfnd@physx@@QEAA@PEBD@Z 00000001800016f0 f i CctBoxController.obj
 0001:00000700       ??0PxControllerManager@physx@@IEAA@XZ 0000000180001700 f i CctBoxController.obj
 0001:00000710       ??0PxControllerManager@physx@@QEAA@AEBV01@@Z 0000000180001710 f i CctBoxController.obj
 0001:00000720       ??0PxFoundation@physx@@QEAA@AEBV01@@Z 0000000180001720 f i CctBoxController.obj
 0001:00000730       ??0PxFoundation@physx@@QEAA@XZ 0000000180001730 f i CctBoxController.obj
 0001:00000740       ??1PxBoxController@physx@@MEAA@XZ 0000000180001740 f i CctBoxController.obj
 0001:00000750       ??1PxController@physx@@MEAA@XZ 0000000180001750 f i CctBoxController.obj
 0001:00000760       ??1PxControllerManager@physx@@MEAA@XZ 0000000180001760 f i CctBoxController.obj
 0001:00000770       ??1PxFoundation@physx@@MEAA@XZ 0000000180001770 f i CctBoxController.obj
 0001:00000780       ??4Allocator@shdfnd@physx@@QEAAAEAV012@$$QEAV012@@Z 0000000180001780 f i CctBoxController.obj
 0001:00000790       ??4Allocator@shdfnd@physx@@QEAAAEAV012@AEBV012@@Z 0000000180001790 f i CctBoxController.obj
 0001:000007a0       ??4MutexImpl@shdfnd@physx@@QEAAAEAV012@AEBV012@@Z 00000001800017a0 f i CctBoxController.obj
 0001:000007b0       ??4PxControllerManager@physx@@QEAAAEAV01@AEBV01@@Z 00000001800017b0 f i CctBoxController.obj
 0001:000007c0       ??4PxFoundation@physx@@QEAAAEAV01@AEBV01@@Z 00000001800017c0 f i CctBoxController.obj
 0001:000007c4       ??_EBoxController@Cct@physx@@W7EAAPEAXI@Z 00000001800017c4 f i CctBoxController.obj
 0001:000007d0       ??_EPxControllerManager@physx@@MEAAPEAXI@Z 00000001800017d0 f i CctBoxController.obj
 0001:00000860       ??_EPxFoundation@physx@@MEAAPEAXI@Z 0000000180001860 f i CctBoxController.obj
 0001:000008f0       ??_FAllocator@shdfnd@physx@@QEAAXXZ 00000001800018f0 f i CctBoxController.obj
 0001:00000900       ??_GBoxController@Cct@physx@@UEAAPEAXI@Z 0000000180001900 f i CctBoxController.obj
 0001:00000900       ??_EBoxController@Cct@physx@@UEAAPEAXI@Z 0000000180001900 f i CctBoxController.obj
 0001:00000980       ??_EPxBoxController@physx@@MEAAPEAXI@Z 0000000180001980 f i CctBoxController.obj
 0001:00000980       ??_GPxBoxController@physx@@MEAAPEAXI@Z 0000000180001980 f i CctBoxController.obj
 0001:000009b0       ??_GPxController@physx@@MEAAPEAXI@Z 00000001800019b0 f i CctBoxController.obj
 0001:000009b0       ??_EPxController@physx@@MEAAPEAXI@Z 00000001800019b0 f i CctBoxController.obj
 0001:000009e0       ??_GPxControllerManager@physx@@MEAAPEAXI@Z 00000001800019e0 f i CctBoxController.obj
 0001:00000a10       ??_GPxFoundation@physx@@MEAAPEAXI@Z 0000000180001a10 f i CctBoxController.obj
 0001:00000a40       ??_H@YAXPEAX_K1P6APEAX0@Z@Z 0000000180001a40 f i CctBoxController.obj
 0001:00000a90       ??_I@YAXPEAX_K1P6AX0@Z@Z   0000000180001a90 f i CctBoxController.obj
 0001:00000af0       ?__empty_global_delete@@YAXPEAX@Z 0000000180001af0 f i CctBoxController.obj
 0001:00000b00       ?__global_delete@@YAXPEAX_K@Z 0000000180001b00 f i CctBoxController.obj
 0001:00000b00       ?__empty_global_delete@@YAXPEAX_K@Z 0000000180001b00 f i CctBoxController.obj
 0001:00000b10       ?getActor@BoxController@Cct@physx@@UEBAPEAVPxRigidDynamic@3@XZ 0000000180001b10 f i CctBoxController.obj
 0001:00000b20       ?getContactOffset@BoxController@Cct@physx@@UEBAMXZ 0000000180001b20 f i CctBoxController.obj
 0001:00000b30       ?getHalfHeightInternal@BoxController@Cct@physx@@UEBAMXZ 0000000180001b30 f i CctBoxController.obj
 0001:00000b40       ?getNonWalkableMode@BoxController@Cct@physx@@UEBA?AW4Enum@PxControllerNonWalkableMode@3@XZ 0000000180001b40 f i CctBoxController.obj
 0001:00000b50       ?getPosition@BoxController@Cct@physx@@UEBAAEBUPxExtendedVec3@3@XZ 0000000180001b50 f i CctBoxController.obj
 0001:00000b60       ?getPxController@BoxController@Cct@physx@@UEAAPEAVPxController@3@XZ 0000000180001b60 f i CctBoxController.obj
 0001:00000b70       ?getScene@BoxController@Cct@physx@@UEAAPEAVPxScene@3@XZ 0000000180001b70 f i CctBoxController.obj
 0001:00000b80       ?getSlopeLimit@BoxController@Cct@physx@@UEBAMXZ 0000000180001b80 f i CctBoxController.obj
 0001:00000b90       ?getState@BoxController@Cct@physx@@UEBAXAEAUPxControllerState@3@@Z 0000000180001b90 f i CctBoxController.obj
 0001:00000ba0       ?getStats@BoxController@Cct@physx@@UEBAXAEAUPxControllerStats@3@@Z 0000000180001ba0 f i CctBoxController.obj
 0001:00000bb0       ?getStepOffset@BoxController@Cct@physx@@UEBAMXZ 0000000180001bb0 f i CctBoxController.obj
 0001:00000bc0       ?getType@BoxController@Cct@physx@@UEBA?AW4Enum@PxControllerShapeType@3@XZ 0000000180001bc0 f i CctBoxController.obj
 0001:00000bd0       ?getUpDirection@BoxController@Cct@physx@@UEBA?AVPxVec3@3@XZ 0000000180001bd0 f i CctBoxController.obj
 0001:00000bf0       ?getUserData@BoxController@Cct@physx@@UEBAPEAXXZ 0000000180001bf0 f i CctBoxController.obj
 0001:00000c00       ?release@BoxController@Cct@physx@@UEAAXXZ 0000000180001c00 f i CctBoxController.obj
 0001:00000c10       ?setContactOffset@BoxController@Cct@physx@@UEAAXM@Z 0000000180001c10 f i CctBoxController.obj
 0001:00000c20       ?setNonWalkableMode@BoxController@Cct@physx@@UEAAXW4Enum@PxControllerNonWalkableMode@3@@Z 0000000180001c20 f i CctBoxController.obj
 0001:00000c30       ?setPosition@BoxController@Cct@physx@@UEAA_NAEBUPxExtendedVec3@3@@Z 0000000180001c30 f i CctBoxController.obj
 0001:00000c40       ?setSlopeLimit@BoxController@Cct@physx@@UEAAXM@Z 0000000180001c40 f i CctBoxController.obj
 0001:00000c50       ?setStepOffset@BoxController@Cct@physx@@UEAAXM@Z 0000000180001c50 f i CctBoxController.obj
 0001:00000c60       ?setUpDirection@BoxController@Cct@physx@@UEAAXAEBVPxVec3@3@@Z 0000000180001c60 f i CctBoxController.obj
 0001:00000c70       ?setUserData@BoxController@Cct@physx@@UEAAXPEAX@Z 0000000180001c70 f i CctBoxController.obj
 0001:00000c80       ??0CapsuleController@Cct@physx@@QEAA@AEBVPxControllerDesc@2@AEAVPxPhysics@2@PEAVPxScene@2@@Z 0000000180001c80 f   CctCapsuleController.obj
 0001:00000d70       ??1CapsuleController@Cct@physx@@UEAA@XZ 0000000180001d70 f   CctCapsuleController.obj
 0001:00000db0       ?getWorldBox@CapsuleController@Cct@physx@@UEBA_NAEAUPxExtendedBounds3@3@@Z 0000000180001db0 f   CctCapsuleController.obj
 0001:00000e60       ?setFootPosition@CapsuleController@Cct@physx@@UEAA_NAEBUPxExtendedVec3@3@@Z 0000000180001e60 f   CctCapsuleController.obj
 0001:00000f00       ?getFootPosition@CapsuleController@Cct@physx@@UEBA?AUPxExtendedVec3@3@XZ 0000000180001f00 f   CctCapsuleController.obj
 0001:00000f90       ?invalidateCache@CapsuleController@Cct@physx@@UEAAXXZ 0000000180001f90 f   CctCapsuleController.obj
 0001:00000ff0       ?resize@CapsuleController@Cct@physx@@UEAAXM@Z 0000000180001ff0 f   CctCapsuleController.obj
 0001:000010d0       ?getClimbingMode@CapsuleController@Cct@physx@@UEBA?AW4Enum@PxCapsuleClimbingMode@3@XZ 00000001800020d0 f   CctCapsuleController.obj
 0001:000010e0       ?setRadius@CapsuleController@Cct@physx@@UEAA_NM@Z 00000001800020e0 f   CctCapsuleController.obj
 0001:00001170       ?setHeight@CapsuleController@Cct@physx@@UEAA_NM@Z 0000000180002170 f   CctCapsuleController.obj
 0001:00001210       ?setClimbingMode@CapsuleController@Cct@physx@@UEAA_NW4Enum@PxCapsuleClimbingMode@3@@Z 0000000180002210 f   CctCapsuleController.obj
 0001:00001230       ?getCapsule@CapsuleController@Cct@physx@@QEBAXAEAUPxExtendedCapsule@3@@Z 0000000180002230 f   CctCapsuleController.obj
 0001:00001360       ??1PxCapsuleController@physx@@MEAA@XZ 0000000180002360 f i CctCapsuleController.obj
 0001:0000136c       ??_ECapsuleController@Cct@physx@@W7EAAPEAXI@Z 000000018000236c f i CctCapsuleController.obj
 0001:00001380       ??_GCapsuleController@Cct@physx@@UEAAPEAXI@Z 0000000180002380 f i CctCapsuleController.obj
 0001:00001380       ??_ECapsuleController@Cct@physx@@UEAAPEAXI@Z 0000000180002380 f i CctCapsuleController.obj
 0001:00001400       ??_EPxCapsuleController@physx@@MEAAPEAXI@Z 0000000180002400 f i CctCapsuleController.obj
 0001:00001400       ??_GPxCapsuleController@physx@@MEAAPEAXI@Z 0000000180002400 f i CctCapsuleController.obj
 0001:00001430       ?getActor@CapsuleController@Cct@physx@@UEBAPEAVPxRigidDynamic@3@XZ 0000000180002430 f i CctCapsuleController.obj
 0001:00001440       ?getContactOffset@CapsuleController@Cct@physx@@UEBAMXZ 0000000180002440 f i CctCapsuleController.obj
 0001:00001450       ?getHalfHeightInternal@CapsuleController@Cct@physx@@UEBAMXZ 0000000180002450 f i CctCapsuleController.obj
 0001:00001470       ?getHeight@CapsuleController@Cct@physx@@UEBAMXZ 0000000180002470 f i CctCapsuleController.obj
 0001:00001480       ?getNonWalkableMode@CapsuleController@Cct@physx@@UEBA?AW4Enum@PxControllerNonWalkableMode@3@XZ 0000000180002480 f i CctCapsuleController.obj
 0001:00001490       ?getPosition@CapsuleController@Cct@physx@@UEBAAEBUPxExtendedVec3@3@XZ 0000000180002490 f i CctCapsuleController.obj
 0001:000014a0       ?getPxController@CapsuleController@Cct@physx@@UEAAPEAVPxController@3@XZ 00000001800024a0 f i CctCapsuleController.obj
 0001:000014b0       ?getRadius@CapsuleController@Cct@physx@@UEBAMXZ 00000001800024b0 f i CctCapsuleController.obj
 0001:000014c0       ?getScene@CapsuleController@Cct@physx@@UEAAPEAVPxScene@3@XZ 00000001800024c0 f i CctCapsuleController.obj
 0001:000014d0       ?getSlopeLimit@CapsuleController@Cct@physx@@UEBAMXZ 00000001800024d0 f i CctCapsuleController.obj
 0001:000014e0       ?getState@CapsuleController@Cct@physx@@UEBAXAEAUPxControllerState@3@@Z 00000001800024e0 f i CctCapsuleController.obj
 0001:000014f0       ?getStats@CapsuleController@Cct@physx@@UEBAXAEAUPxControllerStats@3@@Z 00000001800024f0 f i CctCapsuleController.obj
 0001:00001500       ?getStepOffset@CapsuleController@Cct@physx@@UEBAMXZ 0000000180002500 f i CctCapsuleController.obj
 0001:00001510       ?getType@CapsuleController@Cct@physx@@UEBA?AW4Enum@PxControllerShapeType@3@XZ 0000000180002510 f i CctCapsuleController.obj
 0001:00001520       ?getUpDirection@CapsuleController@Cct@physx@@UEBA?AVPxVec3@3@XZ 0000000180002520 f i CctCapsuleController.obj
 0001:00001540       ?getUserData@CapsuleController@Cct@physx@@UEBAPEAXXZ 0000000180002540 f i CctCapsuleController.obj
 0001:00001550       ?release@CapsuleController@Cct@physx@@UEAAXXZ 0000000180002550 f i CctCapsuleController.obj
 0001:00001560       ?setContactOffset@CapsuleController@Cct@physx@@UEAAXM@Z 0000000180002560 f i CctCapsuleController.obj
 0001:00001570       ?setNonWalkableMode@CapsuleController@Cct@physx@@UEAAXW4Enum@PxControllerNonWalkableMode@3@@Z 0000000180002570 f i CctCapsuleController.obj
 0001:00001580       ?setPosition@CapsuleController@Cct@physx@@UEAA_NAEBUPxExtendedVec3@3@@Z 0000000180002580 f i CctCapsuleController.obj
 0001:00001590       ?setSlopeLimit@CapsuleController@Cct@physx@@UEAAXM@Z 0000000180002590 f i CctCapsuleController.obj
 0001:000015a0       ?setStepOffset@CapsuleController@Cct@physx@@UEAAXM@Z 00000001800025a0 f i CctCapsuleController.obj
 0001:000015b0       ?setUpDirection@CapsuleController@Cct@physx@@UEAAXAEBVPxVec3@3@@Z 00000001800025b0 f i CctCapsuleController.obj
 0001:000015c0       ?setUserData@CapsuleController@Cct@physx@@UEAAXPEAX@Z 00000001800025c0 f i CctCapsuleController.obj
 0001:000015d0       ??0CCTParams@Cct@physx@@QEAA@XZ 00000001800025d0 f   CctCharacterController.obj
 0001:00001610       ??0SweepTest@Cct@physx@@QEAA@_N@Z 0000000180002610 f   CctCharacterController.obj
 0001:00001780       ??1SweepTest@Cct@physx@@QEAA@XZ 0000000180002780 f   CctCharacterController.obj
 0001:00001870       ?moveCharacter@SweepTest@Cct@physx@@QEAA?AV?$PxFlags@W4Enum@PxControllerCollisionFlag@physx@@E@3@PEBUInternalCBData_FindTouchedGeom@23@PEAUInternalCBData_OnHit@23@AEAVSweptVolume@23@AEBVPxVec3@3@AEBUUserObstacles@23@MAEBVPxControllerFilters@3@_N6AEAPEBVPxRigidActor@3@AEAPEBVPxShape@3@_K@Z 0000000180002870 f   CctCharacterController.obj
 0001:00002300       ?doSweepTest@SweepTest@Cct@physx@@QEAA_NPEBUInternalCBData_FindTouchedGeom@23@PEAUInternalCBData_OnHit@23@AEBUUserObstacles@23@AEAVSweptVolume@23@AEBVPxVec3@3@4IPEAIMAEBVPxControllerFilters@3@W4SweepPass@23@AEAPEBVPxRigidActor@3@AEAPEBVPxShape@3@_K@Z 0000000180003300 f   CctCharacterController.obj
 0001:00002fb0       ?findTouchedObstacles@SweepTest@Cct@physx@@QEAAXAEBUUserObstacles@23@AEBUPxExtendedBounds3@3@@Z 0000000180003fb0 f   CctCharacterController.obj
 0001:00003700       ?voidTestCache@SweepTest@Cct@physx@@QEAAXXZ 0000000180004700 f   CctCharacterController.obj
 0001:000037b0       ?onRelease@SweepTest@Cct@physx@@QEAAXAEBVPxBase@3@@Z 00000001800047b0 f   CctCharacterController.obj
 0001:000038c0       ?updateCachedShapesRegistration@SweepTest@Cct@physx@@QEAAXI_N@Z 00000001800048c0 f   CctCharacterController.obj
 0001:00003970       ?onObstacleRemoved@SweepTest@Cct@physx@@QEAAXI@Z 0000000180004970 f   CctCharacterController.obj
 0001:00003990       ?onObstacleUpdated@SweepTest@Cct@physx@@QEAAXIPEBVPxObstacleContext@3@AEBVPxVec3@3@1M@Z 0000000180004990 f   CctCharacterController.obj
 0001:00003ac0       ?onObstacleAdded@SweepTest@Cct@physx@@QEAAXIPEBVPxObstacleContext@3@AEBVPxVec3@3@1M@Z 0000000180004ac0 f   CctCharacterController.obj
 0001:00003c70       ?onOriginShift@SweepTest@Cct@physx@@QEAAXAEBVPxVec3@3@@Z 0000000180004c70 f   CctCharacterController.obj
 0001:00003e10       ?updateTouchedGeoms@SweepTest@Cct@physx@@AEAAXPEBUInternalCBData_FindTouchedGeom@23@AEBUUserObstacles@23@AEBUPxExtendedBounds3@3@AEBVPxControllerFilters@3@AEBVPxVec3@3@@Z 0000000180004e10 f   CctCharacterController.obj
 0001:000045f0       ?findTouchedObject@Controller@Cct@physx@@IEAAXAEBVPxControllerFilters@3@PEBVPxObstacleContext@3@AEBVPxVec3@3@@Z 00000001800055f0 f   CctCharacterController.obj
 0001:00004c70       ?rideOnTouchedObject@Controller@Cct@physx@@IEAA_NAEAVSweptVolume@23@AEBVPxVec3@3@AEAV53@PEBVPxObstacleContext@3@@Z 0000000180005c70 f   CctCharacterController.obj
 0001:00005110       ?move@Controller@Cct@physx@@IEAA?AV?$PxFlags@W4Enum@PxControllerCollisionFlag@physx@@E@3@AEAVSweptVolume@23@AEBVPxVec3@3@MMAEBVPxControllerFilters@3@PEBVPxObstacleContext@3@_N@Z 0000000180006110 f   CctCharacterController.obj
 0001:00006110       ?filterTouchedShape@Controller@Cct@physx@@IEAA_NAEBVPxControllerFilters@3@@Z 0000000180007110 f   CctCharacterController.obj
 0001:00007a10       ?move@BoxController@Cct@physx@@UEAA?AV?$PxFlags@W4Enum@PxControllerCollisionFlag@physx@@E@3@AEBVPxVec3@3@MMAEBVPxControllerFilters@3@PEBVPxObstacleContext@3@@Z 0000000180008a10 f   CctCharacterController.obj
 0001:00007b40       ?move@CapsuleController@Cct@physx@@UEAA?AV?$PxFlags@W4Enum@PxControllerCollisionFlag@physx@@E@3@AEBVPxVec3@3@MMAEBVPxControllerFilters@3@PEBVPxObstacleContext@3@@Z 0000000180008b40 f   CctCharacterController.obj
 0001:00007c60       ??0PxMat33@physx@@QEAA@AEBV01@@Z 0000000180008c60 f i CctCharacterController.obj
 0001:00007ca0       ??0PxMat44@physx@@QEAA@AEBVPxTransform@1@@Z 0000000180008ca0 f i CctCharacterController.obj
 0001:00007e40       ??0PxVec3@physx@@QEAA@XZ   0000000180008e40 f i CctCharacterController.obj
 0001:00007e50       ??1?$PxHitBuffer@UPxRaycastHit@physx@@@physx@@UEAA@XZ 0000000180008e50 f i CctCharacterController.obj
 0001:00007e60       ??1?$PxHitCallback@UPxRaycastHit@physx@@@physx@@UEAA@XZ 0000000180008e60 f i CctCharacterController.obj
 0001:00007e70       ??1PxQueryFilterCallback@physx@@UEAA@XZ 0000000180008e70 f i CctCharacterController.obj
 0001:00007e80       ??4FPUGuard@shdfnd@physx@@QEAAAEAV012@AEBV012@@Z 0000000180008e80 f i CctCharacterController.obj
 0001:00007ea0       ??DPxQuat@physx@@QEBA?AV01@AEBV01@@Z 0000000180008ea0 f i CctCharacterController.obj
 0001:00007fe0       ??_E?$PxHitBuffer@UPxRaycastHit@physx@@@physx@@UEAAPEAXI@Z 0000000180008fe0 f i CctCharacterController.obj
 0001:00007fe0       ??_G?$PxHitBuffer@UPxRaycastHit@physx@@@physx@@UEAAPEAXI@Z 0000000180008fe0 f i CctCharacterController.obj
 0001:00008010       ??_G?$PxHitCallback@UPxRaycastHit@physx@@@physx@@UEAAPEAXI@Z 0000000180009010 f i CctCharacterController.obj
 0001:00008010       ??_E?$PxHitCallback@UPxRaycastHit@physx@@@physx@@UEAAPEAXI@Z 0000000180009010 f i CctCharacterController.obj
 0001:00008040       ??_EControllerFilter@@UEAAPEAXI@Z 0000000180009040 f i CctCharacterController.obj
 0001:00008040       ??_GControllerFilter@@UEAAPEAXI@Z 0000000180009040 f i CctCharacterController.obj
 0001:00008070       ??_EPxQueryFilterCallback@physx@@UEAAPEAXI@Z 0000000180009070 f i CctCharacterController.obj
 0001:00008070       ??_GPxQueryFilterCallback@physx@@UEAAPEAXI@Z 0000000180009070 f i CctCharacterController.obj
 0001:000082a0       ?add@physx@@YAXAEAUPxExtendedBounds3@1@AEBU21@@Z 00000001800092a0 f i CctCharacterController.obj
 0001:00008310       ?allocate@?$ReflectionAllocator@I@shdfnd@physx@@QEAAPEAX_KPEBDH@Z 0000000180009310 f i CctCharacterController.obj
 0001:000083b0       ?allocate@?$ReflectionAllocator@PEBX@shdfnd@physx@@QEAAPEAX_KPEBDH@Z 00000001800093b0 f i CctCharacterController.obj
 0001:00008450       ?allocate@?$ReflectionAllocator@UPxExtendedCapsule@physx@@@shdfnd@physx@@QEAAPEAX_KPEBDH@Z 0000000180009450 f i CctCharacterController.obj
 0001:000084f0       ?allocate@?$ReflectionAllocator@VPxExtendedBox@physx@@@shdfnd@physx@@QEAAPEAX_KPEBDH@Z 00000001800094f0 f i CctCharacterController.obj
 0001:00008af0       ?copy@?$Array@VPxExtendedBox@physx@@V?$ReflectionAllocator@VPxExtendedBox@physx@@@shdfnd@2@@shdfnd@physx@@KAXPEAVPxExtendedBox@3@0PEBV43@@Z 0000000180009af0 f i CctCharacterController.obj
 0001:00008ce0       ?finalizeQuery@?$PxHitCallback@UPxRaycastHit@physx@@@physx@@UEAAXXZ 0000000180009ce0 f i CctCharacterController.obj
 0001:00008cf0       ?getGlobalPose@PxShapeExt@physx@@SA?AVPxTransform@2@AEBVPxShape@2@AEBVPxRigidActor@2@@Z 0000000180009cf0 f i CctCharacterController.obj
 0001:00008ed0       ?growAndPushBack@?$Array@PEBXV?$ReflectionAllocator@PEBX@shdfnd@physx@@@shdfnd@physx@@IEAAAEAPEBXAEBQEBX@Z 0000000180009ed0 f i CctCharacterController.obj
 0001:00008fb0       ?growAndPushBack@?$Array@UPxExtendedCapsule@physx@@V?$ReflectionAllocator@UPxExtendedCapsule@physx@@@shdfnd@2@@shdfnd@physx@@IEAAAEAUPxExtendedCapsule@3@AEBU43@@Z 0000000180009fb0 f i CctCharacterController.obj
 0001:000090c0       ?growAndPushBack@?$Array@VPxExtendedBox@physx@@V?$ReflectionAllocator@VPxExtendedBox@physx@@@shdfnd@2@@shdfnd@physx@@IEAAAEAVPxExtendedBox@3@AEBV43@@Z 000000018000a0c0 f i CctCharacterController.obj
 0001:00009370       ?postFilter@ControllerFilter@@UEAA?AW4Enum@PxQueryHitType@physx@@AEBUPxFilterData@4@AEBUPxQueryHit@4@@Z 000000018000a370 f i CctCharacterController.obj
 0001:00009390       ?preFilter@ControllerFilter@@UEAA?AW4Enum@PxQueryHitType@physx@@AEBUPxFilterData@4@PEBVPxShape@4@PEBVPxRigidActor@4@AEAV?$PxFlags@W4Enum@PxHitFlag@physx@@G@4@@Z 000000018000a390 f i CctCharacterController.obj
 0001:000094c0       ?processTouches@?$PxHitBuffer@UPxRaycastHit@physx@@@physx@@MEAA_NPEBUPxRaycastHit@2@I@Z 000000018000a4c0 f i CctCharacterController.obj
 0001:000094d0       ?recreate@?$Array@IV?$ReflectionAllocator@I@shdfnd@physx@@@shdfnd@physx@@IEAAXI@Z 000000018000a4d0 f i CctCharacterController.obj
 0001:00009a00       ?getSceneTimestamp@Cct@physx@@YAIPEBUInternalCBData_FindTouchedGeom@12@@Z 000000018000aa00 f   CctCharacterControllerCallbacks.obj
 0001:00009a20       ?findTouchedGeometry@Cct@physx@@YAXPEBUInternalCBData_FindTouchedGeom@12@AEBUPxExtendedBounds3@2@AEAVTriArray@12@AEAV?$Array@IV?$ReflectionAllocator@I@shdfnd@physx@@@shdfnd@2@3AEBVCCTFilter@12@AEBUCCTParams@12@AEAG@Z 000000018000aa20 f   CctCharacterControllerCallbacks.obj
 0001:0000a030       ?shapeHitCallback@Cct@physx@@YAIPEBUInternalCBData_OnHit@12@AEBUSweptContact@12@AEBVPxVec3@2@M@Z 000000018000b030 f   CctCharacterControllerCallbacks.obj
 0001:0000a140       ?userHitCallback@Cct@physx@@YAIPEBUInternalCBData_OnHit@12@AEBUSweptContact@12@AEBVPxVec3@2@M@Z 000000018000b140 f   CctCharacterControllerCallbacks.obj
 0001:0000a3c0       ??0PxOverlapHit@physx@@QEAA@XZ 000000018000b3c0 f i CctCharacterControllerCallbacks.obj
 0001:0000a3e0       ??1?$PxHitBuffer@UPxOverlapHit@physx@@@physx@@UEAA@XZ 000000018000b3e0 f i CctCharacterControllerCallbacks.obj
 0001:0000a3f0       ??1?$PxHitCallback@UPxOverlapHit@physx@@@physx@@UEAA@XZ 000000018000b3f0 f i CctCharacterControllerCallbacks.obj
 0001:0000a400       ??_G?$PxHitBuffer@UPxOverlapHit@physx@@@physx@@UEAAPEAXI@Z 000000018000b400 f i CctCharacterControllerCallbacks.obj
 0001:0000a400       ??_E?$PxHitBuffer@UPxOverlapHit@physx@@@physx@@UEAAPEAXI@Z 000000018000b400 f i CctCharacterControllerCallbacks.obj
 0001:0000a430       ??_G?$PxHitCallback@UPxOverlapHit@physx@@@physx@@UEAAPEAXI@Z 000000018000b430 f i CctCharacterControllerCallbacks.obj
 0001:0000a430       ??_E?$PxHitCallback@UPxOverlapHit@physx@@@physx@@UEAAPEAXI@Z 000000018000b430 f i CctCharacterControllerCallbacks.obj
 0001:0000a460       ?PxPlaneEquationFromTransform@physx@@YA?AVPxPlane@1@AEBVPxTransform@1@@Z 000000018000b460 f i CctCharacterControllerCallbacks.obj
 0001:0000a5b0       ?allocate@?$ReflectionAllocator@VPxTriangle@physx@@@shdfnd@physx@@QEAAPEAX_KPEBDH@Z 000000018000b5b0 f i CctCharacterControllerCallbacks.obj
 0001:0000a650       ?computeBasis@shdfnd@physx@@YAXAEBVPxVec3@2@AEAV32@1@Z 000000018000b650 f i CctCharacterControllerCallbacks.obj
 0001:0000a790       ?copy@?$Array@VPxTriangle@physx@@V?$ReflectionAllocator@VPxTriangle@physx@@@shdfnd@2@@shdfnd@physx@@KAXPEAVPxTriangle@3@0PEBV43@@Z 000000018000b790 f i CctCharacterControllerCallbacks.obj
 0001:0000ae90       ?finalizeQuery@?$PxHitCallback@UPxOverlapHit@physx@@@physx@@UEAAXXZ 000000018000be90 f i CctCharacterControllerCallbacks.obj
 0001:0000aea0       ?growAndPushBack@?$Array@IV?$ReflectionAllocator@I@shdfnd@physx@@@shdfnd@physx@@IEAAAEAIAEBI@Z 000000018000bea0 f i CctCharacterControllerCallbacks.obj
 0001:0000ea20       ?processTouches@?$PxHitBuffer@UPxOverlapHit@physx@@@physx@@MEAA_NPEBUPxOverlapHit@2@I@Z 000000018000fa20 f i CctCharacterControllerCallbacks.obj
 0001:0000ea30       ?recreate@?$Array@VPxTriangle@physx@@V?$ReflectionAllocator@VPxTriangle@physx@@@shdfnd@2@@shdfnd@physx@@IEAAXI@Z 000000018000fa30 f i CctCharacterControllerCallbacks.obj
 0001:0000f040       PxCreateControllerManager  0000000180010040 f   CctCharacterControllerManager.obj
 0001:0000f0f0       ??0CharacterControllerManager@Cct@physx@@QEAA@AEAVPxScene@2@_N@Z 00000001800100f0 f   CctCharacterControllerManager.obj
 0001:0000f2b0       ??1CharacterControllerManager@Cct@physx@@UEAA@XZ 00000001800102b0 f   CctCharacterControllerManager.obj
 0001:0000f480       ?release@CharacterControllerManager@Cct@physx@@UEAAXXZ 0000000180010480 f   CctCharacterControllerManager.obj
 0001:0000f6d0       ?getScene@CharacterControllerManager@Cct@physx@@UEBAAEAVPxScene@3@XZ 00000001800106d0 f   CctCharacterControllerManager.obj
 0001:0000f6e0       ?getNbControllers@CharacterControllerManager@Cct@physx@@UEBAIXZ 00000001800106e0 f   CctCharacterControllerManager.obj
 0001:0000f6f0       ?getController@CharacterControllerManager@Cct@physx@@UEAAPEAVPxController@3@I@Z 00000001800106f0 f   CctCharacterControllerManager.obj
 0001:0000f750       ?createController@CharacterControllerManager@Cct@physx@@UEAAPEAVPxController@3@AEBVPxControllerDesc@3@@Z 0000000180010750 f   CctCharacterControllerManager.obj
 0001:0000f980       ?purgeControllers@CharacterControllerManager@Cct@physx@@UEAAXXZ 0000000180010980 f   CctCharacterControllerManager.obj
 0001:0000fb60       ?getRenderBuffer@CharacterControllerManager@Cct@physx@@UEAAAEAVPxRenderBuffer@3@XZ 0000000180010b60 f   CctCharacterControllerManager.obj
 0001:0000fc40       ?setDebugRenderingFlags@CharacterControllerManager@Cct@physx@@UEAAXV?$PxFlags@W4Enum@PxControllerDebugRenderFlag@physx@@I@3@@Z 0000000180010c40 f   CctCharacterControllerManager.obj
 0001:0000fc80       ?getNbObstacleContexts@CharacterControllerManager@Cct@physx@@UEBAIXZ 0000000180010c80 f   CctCharacterControllerManager.obj
 0001:0000fc90       ?getObstacleContext@CharacterControllerManager@Cct@physx@@UEAAPEAVPxObstacleContext@3@I@Z 0000000180010c90 f   CctCharacterControllerManager.obj
 0001:0000fcf0       ?createObstacleContext@CharacterControllerManager@Cct@physx@@UEAAPEAVPxObstacleContext@3@XZ 0000000180010cf0 f   CctCharacterControllerManager.obj
 0001:0000fdd0       ?computeInteractions@CharacterControllerManager@Cct@physx@@UEAAXMPEAVPxControllerFilterCallback@3@@Z 0000000180010dd0 f   CctCharacterControllerManager.obj
 0001:00010050       ?setTessellation@CharacterControllerManager@Cct@physx@@UEAAX_NM@Z 0000000180011050 f   CctCharacterControllerManager.obj
 0001:00010070       ?setOverlapRecoveryModule@CharacterControllerManager@Cct@physx@@UEAAX_N@Z 0000000180011070 f   CctCharacterControllerManager.obj
 0001:00010080       ?setPreciseSweeps@CharacterControllerManager@Cct@physx@@UEAAX_N@Z 0000000180011080 f   CctCharacterControllerManager.obj
 0001:00010090       ?setPreventVerticalSlidingAgainstCeiling@CharacterControllerManager@Cct@physx@@UEAAX_N@Z 0000000180011090 f   CctCharacterControllerManager.obj
 0001:000100a0       ?shiftOrigin@CharacterControllerManager@Cct@physx@@UEAAXAEBVPxVec3@3@@Z 00000001800110a0 f   CctCharacterControllerManager.obj
 0001:00010170       ?onRelease@CharacterControllerManager@Cct@physx@@UEAAXPEBVPxBase@3@PEAXW4Enum@PxDeletionEventFlag@3@@Z 0000000180011170 f   CctCharacterControllerManager.obj
 0001:00010250       ?registerObservedObject@CharacterControllerManager@Cct@physx@@QEAAXPEBVPxBase@3@@Z 0000000180011250 f   CctCharacterControllerManager.obj
 0001:000102d0       ?unregisterObservedObject@CharacterControllerManager@Cct@physx@@QEAAXPEBVPxBase@3@@Z 00000001800112d0 f   CctCharacterControllerManager.obj
 0001:00010370       ?onObstacleRemoved@CharacterControllerManager@Cct@physx@@QEBAXI@Z 0000000180011370 f   CctCharacterControllerManager.obj
 0001:000103c0       ?onObstacleUpdated@CharacterControllerManager@Cct@physx@@QEBAXIPEBVPxObstacleContext@3@@Z 00000001800113c0 f   CctCharacterControllerManager.obj
 0001:000104e0       ?onObstacleAdded@CharacterControllerManager@Cct@physx@@QEBAXIPEBVPxObstacleContext@3@@Z 00000001800114e0 f   CctCharacterControllerManager.obj
 0001:00010600       ?releaseController@CharacterControllerManager@Cct@physx@@QEAAXAEAVPxController@3@@Z 0000000180011600 f   CctCharacterControllerManager.obj
 0001:000107b0       ?getControllers@CharacterControllerManager@Cct@physx@@QEAAPEAPEAVController@23@XZ 00000001800117b0 f   CctCharacterControllerManager.obj
 0001:000107c0       ?releaseObstacleContext@CharacterControllerManager@Cct@physx@@QEAAXAEAVObstacleContext@23@@Z 00000001800117c0 f   CctCharacterControllerManager.obj
 0001:00010830       ?resetObstaclesBuffers@CharacterControllerManager@Cct@physx@@QEAAXXZ 0000000180011830 f   CctCharacterControllerManager.obj
 0001:00010900       ??$append@UPxDebugLine@physx@@@RenderBuffer@Cm@physx@@AEAAXAEAV?$Array@UPxDebugLine@physx@@V?$ReflectionAllocator@UPxDebugLine@physx@@@shdfnd@2@@shdfnd@2@PEBUPxDebugLine@2@I@Z 0000000180011900 f i CctCharacterControllerManager.obj
 0001:000109c0       ??$append@UPxDebugPoint@physx@@@RenderBuffer@Cm@physx@@AEAAXAEAV?$Array@UPxDebugPoint@physx@@V?$ReflectionAllocator@UPxDebugPoint@physx@@@shdfnd@2@@shdfnd@2@PEBUPxDebugPoint@2@I@Z 00000001800119c0 f i CctCharacterControllerManager.obj
 0001:00010a60       ??$append@UPxDebugText@physx@@@RenderBuffer@Cm@physx@@AEAAXAEAV?$Array@UPxDebugText@physx@@V?$ReflectionAllocator@UPxDebugText@physx@@@shdfnd@2@@shdfnd@2@PEBUPxDebugText@2@I@Z 0000000180011a60 f i CctCharacterControllerManager.obj
 0001:00010b10       ??$append@UPxDebugTriangle@physx@@@RenderBuffer@Cm@physx@@AEAAXAEAV?$Array@UPxDebugTriangle@physx@@V?$ReflectionAllocator@UPxDebugTriangle@physx@@@shdfnd@2@@shdfnd@2@PEBUPxDebugTriangle@2@I@Z 0000000180011b10 f i CctCharacterControllerManager.obj
 0001:00010bf0       ??$resetOrClear@V?$Array@PEBXV?$ReflectionAllocator@PEBX@shdfnd@physx@@@shdfnd@physx@@@@YAXAEAV?$Array@PEBXV?$ReflectionAllocator@PEBX@shdfnd@physx@@@shdfnd@physx@@@Z 0000000180011bf0 f i CctCharacterControllerManager.obj
 0001:00010c50       ??$resetOrClear@V?$Array@UPxExtendedCapsule@physx@@V?$ReflectionAllocator@UPxExtendedCapsule@physx@@@shdfnd@2@@shdfnd@physx@@@@YAXAEAV?$Array@UPxExtendedCapsule@physx@@V?$ReflectionAllocator@UPxExtendedCapsule@physx@@@shdfnd@2@@shdfnd@physx@@@Z 0000000180011c50 f i CctCharacterControllerManager.obj
 0001:00010cc0       ??$resetOrClear@V?$Array@VPxExtendedBox@physx@@V?$ReflectionAllocator@VPxExtendedBox@physx@@@shdfnd@2@@shdfnd@physx@@@@YAXAEAV?$Array@VPxExtendedBox@physx@@V?$ReflectionAllocator@VPxExtendedBox@physx@@@shdfnd@2@@shdfnd@physx@@@Z 0000000180011cc0 f i CctCharacterControllerManager.obj
 0001:00010d10       ??1PxDeletionListener@physx@@MEAA@XZ 0000000180011d10 f i CctCharacterControllerManager.obj
 0001:00010d20       ??1PxRenderBuffer@physx@@UEAA@XZ 0000000180011d20 f i CctCharacterControllerManager.obj
 0001:00010d30       ??1RenderBuffer@Cm@physx@@UEAA@XZ 0000000180011d30 f i CctCharacterControllerManager.obj
 0001:00010e20       ??_ECharacterControllerManager@Cct@physx@@W7EAAPEAXI@Z 0000000180011e20 f i CctCharacterControllerManager.obj
 0001:00010e30       ??_ECharacterControllerManager@Cct@physx@@UEAAPEAXI@Z 0000000180011e30 f i CctCharacterControllerManager.obj
 0001:00010e30       ??_GCharacterControllerManager@Cct@physx@@UEAAPEAXI@Z 0000000180011e30 f i CctCharacterControllerManager.obj
 0001:00010e90       ??_GPxDeletionListener@physx@@MEAAPEAXI@Z 0000000180011e90 f i CctCharacterControllerManager.obj
 0001:00010e90       ??_EPxDeletionListener@physx@@MEAAPEAXI@Z 0000000180011e90 f i CctCharacterControllerManager.obj
 0001:00010ec0       ??_GPxRenderBuffer@physx@@UEAAPEAXI@Z 0000000180011ec0 f i CctCharacterControllerManager.obj
 0001:00010ec0       ??_EPxRenderBuffer@physx@@UEAAPEAXI@Z 0000000180011ec0 f i CctCharacterControllerManager.obj
 0001:00010ef0       ??_ERenderBuffer@Cm@physx@@UEAAPEAXI@Z 0000000180011ef0 f i CctCharacterControllerManager.obj
 0001:00010ef0       ??_GRenderBuffer@Cm@physx@@UEAAPEAXI@Z 0000000180011ef0 f i CctCharacterControllerManager.obj
 0001:000119d0       ?allocate@?$ReflectionAllocator@PEAVController@Cct@physx@@@shdfnd@physx@@QEAAPEAX_KPEBDH@Z 00000001800129d0 f i CctCharacterControllerManager.obj
 0001:00011a70       ?allocate@?$ReflectionAllocator@PEAVObstacleContext@Cct@physx@@@shdfnd@physx@@QEAAPEAX_KPEBDH@Z 0000000180012a70 f i CctCharacterControllerManager.obj
 0001:00011b10       ?allocate@?$ReflectionAllocator@UPxDebugLine@physx@@@shdfnd@physx@@QEAAPEAX_KPEBDH@Z 0000000180012b10 f i CctCharacterControllerManager.obj
 0001:00011bb0       ?allocate@?$ReflectionAllocator@UPxDebugPoint@physx@@@shdfnd@physx@@QEAAPEAX_KPEBDH@Z 0000000180012bb0 f i CctCharacterControllerManager.obj
 0001:00011c50       ?allocate@?$ReflectionAllocator@UPxDebugText@physx@@@shdfnd@physx@@QEAAPEAX_KPEBDH@Z 0000000180012c50 f i CctCharacterControllerManager.obj
 0001:00011cf0       ?allocate@?$ReflectionAllocator@UPxDebugTriangle@physx@@@shdfnd@physx@@QEAAPEAX_KPEBDH@Z 0000000180012cf0 f i CctCharacterControllerManager.obj
 0001:00011d90       ?append@RenderBuffer@Cm@physx@@UEAAXAEBVPxRenderBuffer@3@@Z 0000000180012d90 f i CctCharacterControllerManager.obj
 0001:00011e50       ?clear@RenderBuffer@Cm@physx@@UEAAXXZ 0000000180012e50 f i CctCharacterControllerManager.obj
 0001:00012340       ?copy@?$Array@UPxDebugLine@physx@@V?$ReflectionAllocator@UPxDebugLine@physx@@@shdfnd@2@@shdfnd@physx@@KAXPEAUPxDebugLine@3@0PEBU43@@Z 0000000180013340 f i CctCharacterControllerManager.obj
 0001:000124e0       ?copy@?$Array@UPxDebugPoint@physx@@V?$ReflectionAllocator@UPxDebugPoint@physx@@@shdfnd@2@@shdfnd@physx@@KAXPEAUPxDebugPoint@3@0PEBU43@@Z 00000001800134e0 f i CctCharacterControllerManager.obj
 0001:00012610       ?copy@?$Array@UPxDebugText@physx@@V?$ReflectionAllocator@UPxDebugText@physx@@@shdfnd@2@@shdfnd@physx@@KAXPEAUPxDebugText@3@0PEBU43@@Z 0000000180013610 f i CctCharacterControllerManager.obj
 0001:00012780       ?copy@?$Array@UPxDebugTriangle@physx@@V?$ReflectionAllocator@UPxDebugTriangle@physx@@@shdfnd@2@@shdfnd@physx@@KAXPEAUPxDebugTriangle@3@0PEBU43@@Z 0000000180013780 f i CctCharacterControllerManager.obj
 0001:000129c0       ?create@?$Array@VPxExtendedBox@physx@@V?$ReflectionAllocator@VPxExtendedBox@physx@@@shdfnd@2@@shdfnd@physx@@KAXPEAVPxExtendedBox@3@0AEBV43@@Z 00000001800139c0 f i CctCharacterControllerManager.obj
 0001:00012ba0       ?create@?$HashBase@PEAVPxShape@physx@@PEAV12@U?$Hash@PEAVPxShape@physx@@@shdfnd@2@UGetKey@?$HashSetBase@PEAVPxShape@physx@@U?$Hash@PEAVPxShape@physx@@@shdfnd@2@VNonTrackingAllocator@42@$0A@@internal@42@VNonTrackingAllocator@42@$0A@@internal@shdfnd@physx@@QEAAPEAPEAVPxShape@4@AEBQEAV54@AEA_N@Z 0000000180013ba0 f i CctCharacterControllerManager.obj
 0001:00012d30       ?create@?$HashBase@V?$Pair@QEBVPxBase@physx@@UObservedRefCounter@Cct@2@@shdfnd@physx@@PEBVPxBase@3@U?$Hash@PEBVPxBase@physx@@@23@UGetKey@?$HashMapBase@PEBVPxBase@physx@@UObservedRefCounter@Cct@2@U?$Hash@PEBVPxBase@physx@@@shdfnd@2@VNonTrackingAllocator@62@@internal@23@VNonTrackingAllocator@23@$00@internal@shdfnd@physx@@QEAAPEAV?$Pair@QEBVPxBase@physx@@UObservedRefCounter@Cct@2@@34@AEBQEBVPxBase@4@AEA_N@Z 0000000180013d30 f i CctCharacterControllerManager.obj
 0001:00012ec0       ?erase@?$HashBase@V?$Pair@QEBVPxBase@physx@@UObservedRefCounter@Cct@2@@shdfnd@physx@@PEBVPxBase@3@U?$Hash@PEBVPxBase@physx@@@23@UGetKey@?$HashMapBase@PEBVPxBase@physx@@UObservedRefCounter@Cct@2@U?$Hash@PEBVPxBase@physx@@@shdfnd@2@VNonTrackingAllocator@62@@internal@23@VNonTrackingAllocator@23@$00@internal@shdfnd@physx@@QEAA_NAEBQEBVPxBase@4@@Z 0000000180013ec0 f i CctCharacterControllerManager.obj
 0001:00012fb0       ?find@?$HashBase@V?$Pair@QEBVPxBase@physx@@UObservedRefCounter@Cct@2@@shdfnd@physx@@PEBVPxBase@3@U?$Hash@PEBVPxBase@physx@@@23@UGetKey@?$HashMapBase@PEBVPxBase@physx@@UObservedRefCounter@Cct@2@U?$Hash@PEBVPxBase@physx@@@shdfnd@2@VNonTrackingAllocator@62@@internal@23@VNonTrackingAllocator@23@$00@internal@shdfnd@physx@@QEBAPEBV?$Pair@QEBVPxBase@physx@@UObservedRefCounter@Cct@2@@34@AEBQEBVPxBase@4@@Z 0000000180013fb0 f i CctCharacterControllerManager.obj
 0001:00013170       ?freeListAdd@?$HashBase@PEAVPxShape@physx@@PEAV12@U?$Hash@PEAVPxShape@physx@@@shdfnd@2@UGetKey@?$HashSetBase@PEAVPxShape@physx@@U?$Hash@PEAVPxShape@physx@@@shdfnd@2@VNonTrackingAllocator@42@$0A@@internal@42@VNonTrackingAllocator@42@$0A@@internal@shdfnd@physx@@AEAAXII@Z 0000000180014170 f i CctCharacterControllerManager.obj
 0001:00013270       ?getAllocator@Foundation@shdfnd@physx@@QEAAAEAVPxAllocatorCallback@3@XZ 0000000180014270 f i CctCharacterControllerManager.obj
 0001:00013280       ?getAllocatorCallback@Foundation@shdfnd@physx@@UEAAAEAVPxAllocatorCallback@3@XZ 0000000180014280 f i CctCharacterControllerManager.obj
 0001:00013290       ?getErrorCallback@Foundation@shdfnd@physx@@UEAAAEAVPxErrorCallback@3@XZ 0000000180014290 f i CctCharacterControllerManager.obj
 0001:000132a0       ?getErrorLevel@Foundation@shdfnd@physx@@UEBA?AW4Enum@PxErrorCode@3@XZ 00000001800142a0 f i CctCharacterControllerManager.obj
 0001:000132b0       ?getInternalErrorCallback@Foundation@shdfnd@physx@@QEAAAEAVPxErrorCallback@3@XZ 00000001800142b0 f i CctCharacterControllerManager.obj
 0001:000132c0       ?getLines@RenderBuffer@Cm@physx@@UEBAPEBUPxDebugLine@3@XZ 00000001800142c0 f i CctCharacterControllerManager.obj
 0001:000132d0       ?getNamedAllocMap@Foundation@shdfnd@physx@@QEAAAEAV?$HashMap@PEBVNamedAllocator@shdfnd@physx@@PEBDU?$Hash@PEBVNamedAllocator@shdfnd@physx@@@23@VNonTrackingAllocator@23@@23@XZ 00000001800142d0 f i CctCharacterControllerManager.obj
 0001:000132e0       ?getNamedAllocMutex@Foundation@shdfnd@physx@@QEAAAEAV?$MutexT@VAllocator@shdfnd@physx@@@23@XZ 00000001800142e0 f i CctCharacterControllerManager.obj
 0001:000132f0       ?getNbLines@RenderBuffer@Cm@physx@@UEBAIXZ 00000001800142f0 f i CctCharacterControllerManager.obj
 0001:00013300       ?getNbPoints@RenderBuffer@Cm@physx@@UEBAIXZ 0000000180014300 f i CctCharacterControllerManager.obj
 0001:00013310       ?getNbTexts@RenderBuffer@Cm@physx@@UEBAIXZ 0000000180014310 f i CctCharacterControllerManager.obj
 0001:00013320       ?getNbTriangles@RenderBuffer@Cm@physx@@UEBAIXZ 0000000180014320 f i CctCharacterControllerManager.obj
 0001:00013330       ?getPoints@RenderBuffer@Cm@physx@@UEBAPEBUPxDebugPoint@3@XZ 0000000180014330 f i CctCharacterControllerManager.obj
 0001:00013340       ?getReportAllocationNames@Foundation@shdfnd@physx@@UEBA_NXZ 0000000180014340 f i CctCharacterControllerManager.obj
 0001:00013350       ?getTempAllocFreeTable@Foundation@shdfnd@physx@@QEAAAEAV?$Array@PEATTempAllocatorChunk@shdfnd@physx@@VAllocator@23@@23@XZ 0000000180014350 f i CctCharacterControllerManager.obj
 0001:00013360       ?getTempAllocMutex@Foundation@shdfnd@physx@@QEAAAEAV?$MutexT@VAllocator@shdfnd@physx@@@23@XZ 0000000180014360 f i CctCharacterControllerManager.obj
 0001:00013370       ?getTexts@RenderBuffer@Cm@physx@@UEBAPEBUPxDebugText@3@XZ 0000000180014370 f i CctCharacterControllerManager.obj
 0001:00013380       ?getTriangles@RenderBuffer@Cm@physx@@UEBAPEBUPxDebugTriangle@3@XZ 0000000180014380 f i CctCharacterControllerManager.obj
 0001:00013390       ?growAndPushBack@?$Array@PEAVController@Cct@physx@@V?$ReflectionAllocator@PEAVController@Cct@physx@@@shdfnd@3@@shdfnd@physx@@IEAAAEAPEAVController@Cct@3@AEBQEAV453@@Z 0000000180014390 f i CctCharacterControllerManager.obj
 0001:00013470       ?growAndPushBack@?$Array@PEAVObstacleContext@Cct@physx@@V?$ReflectionAllocator@PEAVObstacleContext@Cct@physx@@@shdfnd@3@@shdfnd@physx@@IEAAAEAPEAVObstacleContext@Cct@3@AEBQEAV453@@Z 0000000180014470 f i CctCharacterControllerManager.obj
 0001:00013550       ?growAndPushBack@?$Array@UPxDebugLine@physx@@V?$ReflectionAllocator@UPxDebugLine@physx@@@shdfnd@2@@shdfnd@physx@@IEAAAEAUPxDebugLine@3@AEBU43@@Z 0000000180014550 f i CctCharacterControllerManager.obj
 0001:00013650       ?growAndPushBack@?$Array@UPxDebugPoint@physx@@V?$ReflectionAllocator@UPxDebugPoint@physx@@@shdfnd@2@@shdfnd@physx@@IEAAAEAUPxDebugPoint@3@AEBU43@@Z 0000000180014650 f i CctCharacterControllerManager.obj
 0001:00013740       ?growAndPushBack@?$Array@UPxDebugText@physx@@V?$ReflectionAllocator@UPxDebugText@physx@@@shdfnd@2@@shdfnd@physx@@IEAAAEAUPxDebugText@3@AEBU43@@Z 0000000180014740 f i CctCharacterControllerManager.obj
 0001:00013840       ?growAndPushBack@?$Array@UPxDebugTriangle@physx@@V?$ReflectionAllocator@UPxDebugTriangle@physx@@@shdfnd@2@@shdfnd@physx@@IEAAAEAUPxDebugTriangle@3@AEBU43@@Z 0000000180014840 f i CctCharacterControllerManager.obj
 0001:00013970       ?recreate@?$Array@PEBXV?$ReflectionAllocator@PEBX@shdfnd@physx@@@shdfnd@physx@@IEAAXI@Z 0000000180014970 f i CctCharacterControllerManager.obj
 0001:00013a20       ?recreate@?$Array@UPxDebugLine@physx@@V?$ReflectionAllocator@UPxDebugLine@physx@@@shdfnd@2@@shdfnd@physx@@IEAAXI@Z 0000000180014a20 f i CctCharacterControllerManager.obj
 0001:00013ab0       ?recreate@?$Array@UPxDebugPoint@physx@@V?$ReflectionAllocator@UPxDebugPoint@physx@@@shdfnd@2@@shdfnd@physx@@IEAAXI@Z 0000000180014ab0 f i CctCharacterControllerManager.obj
 0001:00013b40       ?recreate@?$Array@UPxDebugText@physx@@V?$ReflectionAllocator@UPxDebugText@physx@@@shdfnd@2@@shdfnd@physx@@IEAAXI@Z 0000000180014b40 f i CctCharacterControllerManager.obj
 0001:00013bd0       ?recreate@?$Array@UPxDebugTriangle@physx@@V?$ReflectionAllocator@UPxDebugTriangle@physx@@@shdfnd@2@@shdfnd@physx@@IEAAXI@Z 0000000180014bd0 f i CctCharacterControllerManager.obj
 0001:00013c70       ?recreate@?$Array@UPxExtendedCapsule@physx@@V?$ReflectionAllocator@UPxExtendedCapsule@physx@@@shdfnd@2@@shdfnd@physx@@IEAAXI@Z 0000000180014c70 f i CctCharacterControllerManager.obj
 0001:00013d30       ?recreate@?$Array@VPxExtendedBox@physx@@V?$ReflectionAllocator@VPxExtendedBox@physx@@@shdfnd@2@@shdfnd@physx@@IEAAXI@Z 0000000180014d30 f i CctCharacterControllerManager.obj
 0001:00013dd0       ?replaceWithLast@?$HashBase@V?$Pair@QEBVPxBase@physx@@UObservedRefCounter@Cct@2@@shdfnd@physx@@PEBVPxBase@3@U?$Hash@PEBVPxBase@physx@@@23@UGetKey@?$HashMapBase@PEBVPxBase@physx@@UObservedRefCounter@Cct@2@U?$Hash@PEBVPxBase@physx@@@shdfnd@2@VNonTrackingAllocator@62@@internal@23@VNonTrackingAllocator@23@$00@internal@shdfnd@physx@@AEAAXI@Z 0000000180014dd0 f i CctCharacterControllerManager.obj
 0001:00013ed0       ?reserveInternal@?$HashBase@PEAVPxShape@physx@@PEAV12@U?$Hash@PEAVPxShape@physx@@@shdfnd@2@UGetKey@?$HashSetBase@PEAVPxShape@physx@@U?$Hash@PEAVPxShape@physx@@@shdfnd@2@VNonTrackingAllocator@42@$0A@@internal@42@VNonTrackingAllocator@42@$0A@@internal@shdfnd@physx@@AEAAXI@Z 0000000180014ed0 f i CctCharacterControllerManager.obj
 0001:000141b0       ?reserveInternal@?$HashBase@V?$Pair@QEBVPxBase@physx@@UObservedRefCounter@Cct@2@@shdfnd@physx@@PEBVPxBase@3@U?$Hash@PEBVPxBase@physx@@@23@UGetKey@?$HashMapBase@PEBVPxBase@physx@@UObservedRefCounter@Cct@2@U?$Hash@PEBVPxBase@physx@@@shdfnd@2@VNonTrackingAllocator@62@@internal@23@VNonTrackingAllocator@23@$00@internal@shdfnd@physx@@AEAAXI@Z 00000001800151b0 f i CctCharacterControllerManager.obj
 0001:000143a0       ?resize@?$Array@PEBXV?$ReflectionAllocator@PEBX@shdfnd@physx@@@shdfnd@physx@@QEAAXIAEBQEBX@Z 00000001800153a0 f i CctCharacterControllerManager.obj
 0001:00014410       ?resize@?$Array@UPxExtendedCapsule@physx@@V?$ReflectionAllocator@UPxExtendedCapsule@physx@@@shdfnd@2@@shdfnd@physx@@QEAAXIAEBUPxExtendedCapsule@3@@Z 0000000180015410 f i CctCharacterControllerManager.obj
 0001:000144a0       ?resize@?$Array@VPxExtendedBox@physx@@V?$ReflectionAllocator@VPxExtendedBox@physx@@@shdfnd@2@@shdfnd@physx@@QEAAXIAEBVPxExtendedBox@3@@Z 00000001800154a0 f i CctCharacterControllerManager.obj
 0001:00014500       ?setErrorLevel@Foundation@shdfnd@physx@@UEAAXW4Enum@PxErrorCode@3@@Z 0000000180015500 f i CctCharacterControllerManager.obj
 0001:00014510       ?setReportAllocationNames@Foundation@shdfnd@physx@@UEAAX_N@Z 0000000180015510 f i CctCharacterControllerManager.obj
 0001:00014520       ?shift@RenderBuffer@Cm@physx@@QEAAXAEBVPxVec3@3@@Z 0000000180015520 f i CctCharacterControllerManager.obj
 0001:00014710       ??0Controller@Cct@physx@@QEAA@AEBVPxControllerDesc@2@PEAVPxScene@2@@Z 0000000180015710 f   CctController.obj
 0001:000148f0       ??1Controller@Cct@physx@@UEAA@XZ 00000001800158f0 f   CctController.obj
 0001:00014970       ?releaseInternal@Controller@Cct@physx@@QEAAXXZ 0000000180015970 f   CctController.obj
 0001:000149a0       ?getInternalState@Controller@Cct@physx@@QEBAXAEAUPxControllerState@3@@Z 00000001800159a0 f   CctController.obj
 0001:00014a70       ?getInternalStats@Controller@Cct@physx@@QEBAXAEAUPxControllerStats@3@@Z 0000000180015a70 f   CctController.obj
 0001:00014ab0       ?onOriginShift@Controller@Cct@physx@@QEAAXAEBVPxVec3@3@@Z 0000000180015ab0 f   CctController.obj
 0001:00014b80       ?onRelease@Controller@Cct@physx@@QEAAXAEBVPxBase@3@@Z 0000000180015b80 f   CctController.obj
 0001:00014b90       ?setUpDirectionInternal@Controller@Cct@physx@@IEAAXAEBVPxVec3@3@@Z 0000000180015b90 f   CctController.obj
 0001:00014c20       ?getKineShape@Controller@Cct@physx@@IEBAPEAVPxShape@3@XZ 0000000180015c20 f   CctController.obj
 0001:00014c60       ?createProxyActor@Controller@Cct@physx@@IEAA_NAEAVPxPhysics@3@AEBVPxGeometry@3@AEBVPxMaterial@3@@Z 0000000180015c60 f   CctController.obj
 0001:00014da0       ?setPos@Controller@Cct@physx@@IEAA_NAEBUPxExtendedVec3@3@@Z 0000000180015da0 f   CctController.obj
 0001:00014e40       ??_EController@Cct@physx@@UEAAPEAXI@Z 0000000180015e40 f i CctController.obj
 0001:00014e40       ??_GController@Cct@physx@@UEAAPEAXI@Z 0000000180015e40 f i CctController.obj
 0001:00014ea0       ??0HandleManager@Cct@physx@@QEAA@XZ 0000000180015ea0 f   CctObstacleContext.obj
 0001:00014ff0       ??1HandleManager@Cct@physx@@QEAA@XZ 0000000180015ff0 f   CctObstacleContext.obj
 0001:00015020       ?Add@HandleManager@Cct@physx@@QEAAIPEAX@Z 0000000180016020 f   CctObstacleContext.obj
 0001:000152a0       ?Remove@HandleManager@Cct@physx@@QEAAXI@Z 00000001800162a0 f   CctObstacleContext.obj
 0001:00015380       ?GetObject@HandleManager@Cct@physx@@QEBAPEAXI@Z 0000000180016380 f   CctObstacleContext.obj
 0001:000153e0       ?UpdateObject@HandleManager@Cct@physx@@QEAA_NIPEAX@Z 00000001800163e0 f   CctObstacleContext.obj
 0001:00015440       ?SetupLists@HandleManager@Cct@physx@@AEAA_NPEAPEAXPEAG11@Z 0000000180016440 f   CctObstacleContext.obj
 0001:00015520       ??0ObstacleContext@Cct@physx@@QEAA@AEAVCharacterControllerManager@12@@Z 0000000180016520 f   CctObstacleContext.obj
 0001:00015570       ??1ObstacleContext@Cct@physx@@UEAA@XZ 0000000180016570 f   CctObstacleContext.obj
 0001:00015610       ?release@ObstacleContext@Cct@physx@@UEAAXXZ 0000000180016610 f   CctObstacleContext.obj
 0001:00015630       ?getControllerManager@ObstacleContext@Cct@physx@@UEBAAEAVPxControllerManager@3@XZ 0000000180016630 f   CctObstacleContext.obj
 0001:00015640       ?addObstacle@ObstacleContext@Cct@physx@@UEAAIAEBVPxObstacle@3@@Z 0000000180016640 f   CctObstacleContext.obj
 0001:000158b0       ?removeObstacle@ObstacleContext@Cct@physx@@UEAA_NI@Z 00000001800168b0 f   CctObstacleContext.obj
 0001:00015af0       ?updateObstacle@ObstacleContext@Cct@physx@@UEAA_NIAEBVPxObstacle@3@@Z 0000000180016af0 f   CctObstacleContext.obj
 0001:00015c80       ?getNbObstacles@ObstacleContext@Cct@physx@@UEBAIXZ 0000000180016c80 f   CctObstacleContext.obj
 0001:00015c90       ?getObstacle@ObstacleContext@Cct@physx@@UEBAPEBVPxObstacle@3@I@Z 0000000180016c90 f   CctObstacleContext.obj
 0001:00015ce0       ?getObstacleByHandle@ObstacleContext@Cct@physx@@UEBAPEBVPxObstacle@3@I@Z 0000000180016ce0 f   CctObstacleContext.obj
 0001:00015d80       ?raycastSingle@ObstacleContext@Cct@physx@@QEBAPEBVPxObstacle@3@AEAUPxRaycastHit@3@AEBVPxVec3@3@1MAEAI@Z 0000000180016d80 f   CctObstacleContext.obj
 0001:000160a0       ?raycastSingle@ObstacleContext@Cct@physx@@QEBAPEBVPxObstacle@3@AEAUPxRaycastHit@3@AEBIAEBVPxVec3@3@2M@Z 00000001800170a0 f   CctObstacleContext.obj
 0001:000162b0       ?onOriginShift@ObstacleContext@Cct@physx@@QEAAXAEBVPxVec3@3@@Z 00000001800172b0 f   CctObstacleContext.obj
 0001:00016390       ??1PxObstacleContext@physx@@UEAA@XZ 0000000180017390 f i CctObstacleContext.obj
 0001:000163a0       ??_EObstacleContext@Cct@physx@@UEAAPEAXI@Z 00000001800173a0 f i CctObstacleContext.obj
 0001:000163a0       ??_GObstacleContext@Cct@physx@@UEAAPEAXI@Z 00000001800173a0 f i CctObstacleContext.obj
 0001:00016400       ??_EPxObstacleContext@physx@@UEAAPEAXI@Z 0000000180017400 f i CctObstacleContext.obj
 0001:00016400       ??_GPxObstacleContext@physx@@UEAAPEAXI@Z 0000000180017400 f i CctObstacleContext.obj
 0001:00016430       ?allocate@?$ReflectionAllocator@UInternalBoxObstacle@ObstacleContext@Cct@physx@@@shdfnd@physx@@QEAAPEAX_KPEBDH@Z 0000000180017430 f i CctObstacleContext.obj
 0001:000164d0       ?allocate@?$ReflectionAllocator@UInternalCapsuleObstacle@ObstacleContext@Cct@physx@@@shdfnd@physx@@QEAAPEAX_KPEBDH@Z 00000001800174d0 f i CctObstacleContext.obj
 0001:00016570       ?copy@?$Array@UInternalBoxObstacle@ObstacleContext@Cct@physx@@V?$ReflectionAllocator@UInternalBoxObstacle@ObstacleContext@Cct@physx@@@shdfnd@4@@shdfnd@physx@@KAXPEAUInternalBoxObstacle@ObstacleContext@Cct@3@0PEBU4563@@Z 0000000180017570 f i CctObstacleContext.obj
 0001:00016820       ?copy@?$Array@UInternalCapsuleObstacle@ObstacleContext@Cct@physx@@V?$ReflectionAllocator@UInternalCapsuleObstacle@ObstacleContext@Cct@physx@@@shdfnd@4@@shdfnd@physx@@KAXPEAUInternalCapsuleObstacle@ObstacleContext@Cct@3@0PEBU4563@@Z 0000000180017820 f i CctObstacleContext.obj
 0001:00016aa0       ?growAndPushBack@?$Array@UInternalBoxObstacle@ObstacleContext@Cct@physx@@V?$ReflectionAllocator@UInternalBoxObstacle@ObstacleContext@Cct@physx@@@shdfnd@4@@shdfnd@physx@@IEAAAEAUInternalBoxObstacle@ObstacleContext@Cct@3@AEBU4563@@Z 0000000180017aa0 f i CctObstacleContext.obj
 0001:00016bd0       ?growAndPushBack@?$Array@UInternalCapsuleObstacle@ObstacleContext@Cct@physx@@V?$ReflectionAllocator@UInternalCapsuleObstacle@ObstacleContext@Cct@physx@@@shdfnd@4@@shdfnd@physx@@IEAAAEAUInternalCapsuleObstacle@ObstacleContext@Cct@3@AEBU4563@@Z 0000000180017bd0 f i CctObstacleContext.obj
 0001:00016d00       ?replaceWithLast@?$Array@UInternalCapsuleObstacle@ObstacleContext@Cct@physx@@V?$ReflectionAllocator@UInternalCapsuleObstacle@ObstacleContext@Cct@physx@@@shdfnd@4@@shdfnd@physx@@QEAAXI@Z 0000000180017d00 f i CctObstacleContext.obj
 0001:00016d90       ??0SweptBox@Cct@physx@@QEAA@XZ 0000000180017d90 f   CctSweptBox.obj
 0001:00016dc0       ??1SweptBox@Cct@physx@@UEAA@XZ 0000000180017dc0 f   CctSweptBox.obj
 0001:00016de0       ?computeTemporalBox@SweptBox@Cct@physx@@UEBAXAEBVSweepTest@23@AEAUPxExtendedBounds3@3@AEBUPxExtendedVec3@3@AEBVPxVec3@3@@Z 0000000180017de0 f   CctSweptBox.obj
 0001:00016e40       ??_GSweptBox@Cct@physx@@UEAAPEAXI@Z 0000000180017e40 f i CctSweptBox.obj
 0001:00016e40       ??_ESweptBox@Cct@physx@@UEAAPEAXI@Z 0000000180017e40 f i CctSweptBox.obj
 0001:00016e80       ??0SweptCapsule@Cct@physx@@QEAA@XZ 0000000180017e80 f   CctSweptCapsule.obj
 0001:00016eb0       ??1SweptCapsule@Cct@physx@@UEAA@XZ 0000000180017eb0 f   CctSweptCapsule.obj
 0001:00016ed0       ?computeTemporalBox@SweptCapsule@Cct@physx@@UEBAXAEBVSweepTest@23@AEAUPxExtendedBounds3@3@AEBUPxExtendedVec3@3@AEBVPxVec3@3@@Z 0000000180017ed0 f   CctSweptCapsule.obj
 0001:00016f20       ??_ESweptCapsule@Cct@physx@@UEAAPEAXI@Z 0000000180017f20 f i CctSweptCapsule.obj
 0001:00016f20       ??_GSweptCapsule@Cct@physx@@UEAAPEAXI@Z 0000000180017f20 f i CctSweptCapsule.obj
 0001:00016f60       ??0SweptVolume@Cct@physx@@QEAA@XZ 0000000180017f60 f   CctSweptVolume.obj
 0001:00016f80       ??1SweptVolume@Cct@physx@@UEAA@XZ 0000000180017f80 f   CctSweptVolume.obj
 0001:00016fa0       ?computeTemporalBox@Cct@physx@@YAXAEAUPxExtendedBounds3@2@MMMMAEBVPxVec3@2@AEBUPxExtendedVec3@2@1@Z 0000000180017fa0 f   CctSweptVolume.obj
 0001:00017430       ??_ESweptVolume@Cct@physx@@UEAAPEAXI@Z 0000000180018430 f i CctSweptVolume.obj
 0001:00017430       ??_GSweptVolume@Cct@physx@@UEAAPEAXI@Z 0000000180018430 f i CctSweptVolume.obj
 0001:00017460       ??0PxMeshOverlapUtil@physx@@QEAA@XZ 0000000180018460 f   PhysX3Extensions:ExtTriangleMeshExt.obj
 0001:00017490       ??1PxMeshOverlapUtil@physx@@QEAA@XZ 0000000180018490 f   PhysX3Extensions:ExtTriangleMeshExt.obj
 0001:000174d0       ?findOverlap@PxMeshOverlapUtil@physx@@QEAAIAEBVPxGeometry@2@AEBVPxTransform@2@AEBVPxTriangleMeshGeometry@2@1@Z 00000001800184d0 f   PhysX3Extensions:ExtTriangleMeshExt.obj
 0001:00017630       ?findOverlap@PxMeshOverlapUtil@physx@@QEAAIAEBVPxGeometry@2@AEBVPxTransform@2@AEBVPxHeightFieldGeometry@2@1@Z 0000000180018630 f   PhysX3Extensions:ExtTriangleMeshExt.obj
 0001:00017760       ?PxComputeMeshPenetration@physx@@YA?AVPxVec3@1@IAEBVPxGeometry@1@AEBVPxTransform@1@AEBVPxTriangleMeshGeometry@1@1AEAI@Z 0000000180018760 f   PhysX3Extensions:ExtTriangleMeshExt.obj
 0001:000177f0       ?PxComputeTriangleMeshPenetration@physx@@YA_NAEAVPxVec3@1@AEAMAEBVPxGeometry@1@AEBVPxTransform@1@AEBVPxTriangleMeshGeometry@1@3IPEAI@Z 00000001800187f0 f   PhysX3Extensions:ExtTriangleMeshExt.obj
 0001:00017800       ?PxComputeHeightFieldPenetration@physx@@YA?AVPxVec3@1@IAEBVPxGeometry@1@AEBVPxTransform@1@AEBVPxHeightFieldGeometry@1@1AEAI@Z 0000000180018800 f   PhysX3Extensions:ExtTriangleMeshExt.obj
 0001:00017890       ?PxComputeHeightFieldPenetration@physx@@YA_NAEAVPxVec3@1@AEAMAEBVPxGeometry@1@AEBVPxTransform@1@AEBVPxHeightFieldGeometry@1@3IPEAI@Z 0000000180018890 f   PhysX3Extensions:ExtTriangleMeshExt.obj
 0001:00017c40       ?updateMassAndInertia@PxRigidBodyExt@physx@@SA_NAEAVPxRigidBody@2@PEBMIPEBVPxVec3@2@_N@Z 0000000180018c40 f   PhysX3Extensions:ExtRigidBodyExt.obj
 0001:00017c70       ?updateMassAndInertia@PxRigidBodyExt@physx@@SA_NAEAVPxRigidBody@2@MPEBVPxVec3@2@_N@Z 0000000180018c70 f   PhysX3Extensions:ExtRigidBodyExt.obj
 0001:00017cb0       ?setMassAndUpdateInertia@PxRigidBodyExt@physx@@SA_NAEAVPxRigidBody@2@PEBMIPEBVPxVec3@2@_N@Z 0000000180018cb0 f   PhysX3Extensions:ExtRigidBodyExt.obj
 0001:00017ce0       ?setMassAndUpdateInertia@PxRigidBodyExt@physx@@SA_NAEAVPxRigidBody@2@MPEBVPxVec3@2@_N@Z 0000000180018ce0 f   PhysX3Extensions:ExtRigidBodyExt.obj
 0001:00017d20       ?computeMassPropertiesFromShapes@PxRigidBodyExt@physx@@SA?AVPxMassProperties@2@PEBQEBVPxShape@2@I@Z 0000000180018d20 f   PhysX3Extensions:ExtRigidBodyExt.obj
 0001:00017fb0       ?addForceAtPos@PxRigidBodyExt@physx@@SAXAEAVPxRigidBody@2@AEBVPxVec3@2@1W4Enum@PxForceMode@2@_N@Z 0000000180018fb0 f   PhysX3Extensions:ExtRigidBodyExt.obj
 0001:00017fd0       ?addForceAtLocalPos@PxRigidBodyExt@physx@@SAXAEAVPxRigidBody@2@AEBVPxVec3@2@1W4Enum@PxForceMode@2@_N@Z 0000000180018fd0 f   PhysX3Extensions:ExtRigidBodyExt.obj
 0001:000181a0       ?addLocalForceAtPos@PxRigidBodyExt@physx@@SAXAEAVPxRigidBody@2@AEBVPxVec3@2@1W4Enum@PxForceMode@2@_N@Z 00000001800191a0 f   PhysX3Extensions:ExtRigidBodyExt.obj
 0001:00018360       ?addLocalForceAtLocalPos@PxRigidBodyExt@physx@@SAXAEAVPxRigidBody@2@AEBVPxVec3@2@1W4Enum@PxForceMode@2@_N@Z 0000000180019360 f   PhysX3Extensions:ExtRigidBodyExt.obj
 0001:00018630       ?getVelocityAtPos@PxRigidBodyExt@physx@@SA?AVPxVec3@2@AEBVPxRigidBody@2@AEBV32@@Z 0000000180019630 f   PhysX3Extensions:ExtRigidBodyExt.obj
 0001:00018830       ?getLocalVelocityAtLocalPos@PxRigidBodyExt@physx@@SA?AVPxVec3@2@AEBVPxRigidBody@2@AEBV32@@Z 0000000180019830 f   PhysX3Extensions:ExtRigidBodyExt.obj
 0001:00018b50       ?getVelocityAtOffset@PxRigidBodyExt@physx@@SA?AVPxVec3@2@AEBVPxRigidBody@2@AEBV32@@Z 0000000180019b50 f   PhysX3Extensions:ExtRigidBodyExt.obj
 0001:00018d30       ?linearSweepSingle@PxRigidBodyExt@physx@@SA_NAEAVPxRigidBody@2@AEAVPxScene@2@AEBVPxVec3@2@MV?$PxFlags@W4Enum@PxHitFlag@physx@@G@2@AEAUPxSweepHit@2@AEAIAEBUPxQueryFilterData@2@PEAVPxQueryFilterCallback@2@PEBUPxQueryCache@2@M@Z 0000000180019d30 f   PhysX3Extensions:ExtRigidBodyExt.obj
 0001:00018fe0       ?linearSweepMultiple@PxRigidBodyExt@physx@@SAIAEAVPxRigidBody@2@AEAVPxScene@2@AEBVPxVec3@2@MV?$PxFlags@W4Enum@PxHitFlag@physx@@G@2@PEAUPxSweepHit@2@PEAIIAEAU72@AEAHAEA_NAEBUPxQueryFilterData@2@PEAVPxQueryFilterCallback@2@PEBUPxQueryCache@2@M@Z 0000000180019fe0 f   PhysX3Extensions:ExtRigidBodyExt.obj
 0001:00019610       ?computeVelocityDeltaFromImpulse@PxRigidBodyExt@physx@@SAXAEBVPxRigidBody@2@AEBVPxVec3@2@1AEAV42@2@Z 000000018001a610 f   PhysX3Extensions:ExtRigidBodyExt.obj
 0001:000199e0       ?computeVelocityDeltaFromImpulse@PxRigidBodyExt@physx@@SAXAEBVPxRigidBody@2@AEBVPxTransform@2@AEBVPxVec3@2@2MMAEAV52@3@Z 000000018001a9e0 f   PhysX3Extensions:ExtRigidBodyExt.obj
 0001:00019e30       ?computeLinearAngularImpulse@PxRigidBodyExt@physx@@SAXAEBVPxRigidBody@2@AEBVPxTransform@2@AEBVPxVec3@2@2MMAEAV52@3@Z 000000018001ae30 f   PhysX3Extensions:ExtRigidBodyExt.obj
 0001:0001a080       ??0InertiaTensorComputer@Ext@physx@@QEAA@_N@Z 000000018001b080 f   PhysX3Extensions:ExtRigidBodyExt.obj
 0001:0001a0b0       ??0InertiaTensorComputer@Ext@physx@@QEAA@AEBVPxMat33@2@AEBVPxVec3@2@M@Z 000000018001b0b0 f   PhysX3Extensions:ExtRigidBodyExt.obj
 0001:0001a110       ??1InertiaTensorComputer@Ext@physx@@QEAA@XZ 000000018001b110 f   PhysX3Extensions:ExtRigidBodyExt.obj
 0001:0001a120       ?translate@InertiaTensorComputer@Ext@physx@@QEAAXAEBVPxVec3@3@@Z 000000018001b120 f   PhysX3Extensions:ExtRigidBodyExt.obj
 0001:0001a700       ?setBox@InertiaTensorComputer@Ext@physx@@QEAAXAEBVPxVec3@3@@Z 000000018001b700 f   PhysX3Extensions:ExtRigidBodyExt.obj
 0001:0001a7a0       ?setSphere@InertiaTensorComputer@Ext@physx@@QEAAXM@Z 000000018001b7a0 f   PhysX3Extensions:ExtRigidBodyExt.obj
 0001:0001a800       ?setCylinder@InertiaTensorComputer@Ext@physx@@QEAAXHMM@Z 000000018001b800 f   PhysX3Extensions:ExtRigidBodyExt.obj
 0001:0001a8d0       ?setCapsule@InertiaTensorComputer@Ext@physx@@QEAAXHMM@Z 000000018001b8d0 f   PhysX3Extensions:ExtRigidBodyExt.obj
 0001:0001aa00       ?setEllipsoid@InertiaTensorComputer@Ext@physx@@QEAAXMMM@Z 000000018001ba00 f   PhysX3Extensions:ExtRigidBodyExt.obj
 0001:0001aaa0       ?computeSphereMass@Ext@physx@@YAMMM@Z 000000018001baa0 f   PhysX3Extensions:ExtRigidBodyExt.obj
 0001:0001aad0       ?computeSphereDensity@Ext@physx@@YAMMM@Z 000000018001bad0 f   PhysX3Extensions:ExtRigidBodyExt.obj
 0001:0001ab00       ?computeBoxMass@Ext@physx@@YAMAEBVPxVec3@2@M@Z 000000018001bb00 f   PhysX3Extensions:ExtRigidBodyExt.obj
 0001:0001ab50       ?computeBoxDensity@Ext@physx@@YAMAEBVPxVec3@2@M@Z 000000018001bb50 f   PhysX3Extensions:ExtRigidBodyExt.obj
 0001:0001aba0       ?computeEllipsoidMass@Ext@physx@@YAMAEBVPxVec3@2@M@Z 000000018001bba0 f   PhysX3Extensions:ExtRigidBodyExt.obj
 0001:0001abf0       ?computeEllipsoidDensity@Ext@physx@@YAMAEBVPxVec3@2@M@Z 000000018001bbf0 f   PhysX3Extensions:ExtRigidBodyExt.obj
 0001:0001ac40       ?computeCylinderMass@Ext@physx@@YAMMMM@Z 000000018001bc40 f   PhysX3Extensions:ExtRigidBodyExt.obj
 0001:0001ac70       ?computeCylinderDensity@Ext@physx@@YAMMMM@Z 000000018001bc70 f   PhysX3Extensions:ExtRigidBodyExt.obj
 0001:0001aca0       ?computeCapsuleMass@Ext@physx@@YAMMMM@Z 000000018001bca0 f   PhysX3Extensions:ExtRigidBodyExt.obj
 0001:0001ace0       ?computeCapsuleDensity@Ext@physx@@YAMMMM@Z 000000018001bce0 f   PhysX3Extensions:ExtRigidBodyExt.obj
 0001:0001ad20       ?computeConeMass@Ext@physx@@YAMMMM@Z 000000018001bd20 f   PhysX3Extensions:ExtRigidBodyExt.obj
 0001:0001ad50       ?computeConeDensity@Ext@physx@@YAMMMM@Z 000000018001bd50 f   PhysX3Extensions:ExtRigidBodyExt.obj
 0001:0001ad90       ?computeBoxInertiaTensor@Ext@physx@@YAXAEAVPxVec3@2@MMMM@Z 000000018001bd90 f   PhysX3Extensions:ExtRigidBodyExt.obj
 0001:0001ade0       ?computeSphereInertiaTensor@Ext@physx@@YAXAEAVPxVec3@2@MM_N@Z 000000018001bde0 f   PhysX3Extensions:ExtRigidBodyExt.obj
 0001:0001ae30       ??0PxMassProperties@physx@@QEAA@AEBVPxGeometry@1@@Z 000000018001be30 f i PhysX3Extensions:ExtRigidBodyExt.obj
 0001:0001b490       ??1?$PxHitBuffer@UPxSweepHit@physx@@@physx@@UEAA@XZ 000000018001c490 f i PhysX3Extensions:ExtRigidBodyExt.obj
 0001:0001b4a0       ??1?$PxHitCallback@UPxSweepHit@physx@@@physx@@UEAA@XZ 000000018001c4a0 f i PhysX3Extensions:ExtRigidBodyExt.obj
 0001:0001b4b0       ??_G?$PxHitBuffer@UPxSweepHit@physx@@@physx@@UEAAPEAXI@Z 000000018001c4b0 f i PhysX3Extensions:ExtRigidBodyExt.obj
 0001:0001b4b0       ??_E?$PxHitBuffer@UPxSweepHit@physx@@@physx@@UEAAPEAXI@Z 000000018001c4b0 f i PhysX3Extensions:ExtRigidBodyExt.obj
 0001:0001b4e0       ??_E?$PxHitCallback@UPxSweepHit@physx@@@physx@@UEAAPEAXI@Z 000000018001c4e0 f i PhysX3Extensions:ExtRigidBodyExt.obj
 0001:0001b4e0       ??_G?$PxHitCallback@UPxSweepHit@physx@@@physx@@UEAAPEAXI@Z 000000018001c4e0 f i PhysX3Extensions:ExtRigidBodyExt.obj
 0001:0001b510       ?addForceAtPosInternal@@YAXAEAVPxRigidBody@physx@@AEBVPxVec3@2@1W4Enum@PxForceMode@2@_N@Z 000000018001c510 f i PhysX3Extensions:ExtRigidBodyExt.obj
 0001:0001b7c0       ?allocate@?$ReflectionAllocator@PEAVPxShape@physx@@@shdfnd@physx@@QEAAPEAX_KPEBDH@Z 000000018001c7c0 f i PhysX3Extensions:ExtRigidBodyExt.obj
 0001:0001b860       ?allocate@?$ReflectionAllocator@VPxMassProperties@physx@@@shdfnd@physx@@QEAAPEAX_KPEBDH@Z 000000018001c860 f i PhysX3Extensions:ExtRigidBodyExt.obj
 0001:0001b900       ?allocate@?$ReflectionAllocator@VPxTransform@physx@@@shdfnd@physx@@QEAAPEAX_KPEBDH@Z 000000018001c900 f i PhysX3Extensions:ExtRigidBodyExt.obj
 0001:0001cbc0       ?copy@?$Array@VPxMassProperties@physx@@V?$InlineAllocator@$0DEA@V?$ReflectionAllocator@VPxMassProperties@physx@@@shdfnd@physx@@@shdfnd@2@@shdfnd@physx@@KAXPEAVPxMassProperties@3@0PEBV43@@Z 000000018001dbc0 f i PhysX3Extensions:ExtRigidBodyExt.obj
 0001:0001ce10       ?copy@?$Array@VPxTransform@physx@@V?$InlineAllocator@$0BMA@V?$ReflectionAllocator@VPxTransform@physx@@@shdfnd@physx@@@shdfnd@2@@shdfnd@physx@@KAXPEAVPxTransform@3@0PEBV43@@Z 000000018001de10 f i PhysX3Extensions:ExtRigidBodyExt.obj
 0001:0001cfb0       ?finalizeQuery@?$PxHitCallback@UPxSweepHit@physx@@@physx@@UEAAXXZ 000000018001dfb0 f i PhysX3Extensions:ExtRigidBodyExt.obj
 0001:0001cfc0       ?getVelocityAtPosInternal@@YA?AVPxVec3@physx@@AEBVPxRigidBody@2@AEBV12@@Z 000000018001dfc0 f i PhysX3Extensions:ExtRigidBodyExt.obj
 0001:0001d090       ?growAndPushBack@?$Array@VPxMassProperties@physx@@V?$InlineAllocator@$0DEA@V?$ReflectionAllocator@VPxMassProperties@physx@@@shdfnd@physx@@@shdfnd@2@@shdfnd@physx@@IEAAAEAVPxMassProperties@3@AEBV43@@Z 000000018001e090 f i PhysX3Extensions:ExtRigidBodyExt.obj
 0001:0001d200       ?growAndPushBack@?$Array@VPxTransform@physx@@V?$InlineAllocator@$0BMA@V?$ReflectionAllocator@VPxTransform@physx@@@shdfnd@physx@@@shdfnd@2@@shdfnd@physx@@IEAAAEAVPxTransform@3@AEBV43@@Z 000000018001e200 f i PhysX3Extensions:ExtRigidBodyExt.obj
 0001:0001d340       ?processTouches@?$PxHitBuffer@UPxSweepHit@physx@@@physx@@MEAA_NPEBUPxSweepHit@2@I@Z 000000018001e340 f i PhysX3Extensions:ExtRigidBodyExt.obj
 0001:0001d350       ?recreate@?$Array@PEAVPxShape@physx@@V?$InlineAllocator@$0IA@V?$ReflectionAllocator@PEAVPxShape@physx@@@shdfnd@physx@@@shdfnd@2@@shdfnd@physx@@IEAAXI@Z 000000018001e350 f i PhysX3Extensions:ExtRigidBodyExt.obj
 0001:0001d440       ?recreate@?$Array@VPxMassProperties@physx@@V?$InlineAllocator@$0DEA@V?$ReflectionAllocator@VPxMassProperties@physx@@@shdfnd@physx@@@shdfnd@2@@shdfnd@physx@@IEAAXI@Z 000000018001e440 f i PhysX3Extensions:ExtRigidBodyExt.obj
 0001:0001d510       ?recreate@?$Array@VPxTransform@physx@@V?$InlineAllocator@$0BMA@V?$ReflectionAllocator@VPxTransform@physx@@@shdfnd@physx@@@shdfnd@2@@shdfnd@physx@@IEAAXI@Z 000000018001e510 f i PhysX3Extensions:ExtRigidBodyExt.obj
 0001:0001d5e0       ?resize@?$Array@PEAVPxShape@physx@@V?$InlineAllocator@$0IA@V?$ReflectionAllocator@PEAVPxShape@physx@@@shdfnd@physx@@@shdfnd@2@@shdfnd@physx@@QEAAXIAEBQEAVPxShape@3@@Z 000000018001e5e0 f i PhysX3Extensions:ExtRigidBodyExt.obj
 0001:0001d650       ?rotate@InertiaTensorComputer@Ext@physx@@QEAAXAEBVPxMat33@3@@Z 000000018001e650 f i PhysX3Extensions:ExtRigidBodyExt.obj
 0001:0001da80       ?scaleInertia@PxMassProperties@physx@@SA?AVPxMat33@2@AEBV32@AEBVPxQuat@2@AEBVPxVec3@2@@Z 000000018001ea80 f i PhysX3Extensions:ExtRigidBodyExt.obj
 0001:0001e5f0       ?sum@PxMassProperties@physx@@SA?AV12@PEBV12@PEBVPxTransform@2@I@Z 000000018001f5f0 f i PhysX3Extensions:ExtRigidBodyExt.obj
 0001:0001f130       ?transform@InertiaTensorComputer@Ext@physx@@QEAAXAEBVPxTransform@3@@Z 0000000180020130 f i PhysX3Extensions:ExtRigidBodyExt.obj
 0001:0001f2b0       ?transformFast@PxBounds3@physx@@SA?AV12@AEBVPxTransform@2@AEBV12@@Z 00000001800202b0 f i PhysX3Extensions:ExtRigidBodyExt.obj
 0001:0001f6d0       ?transformInertiaTensor@Cm@physx@@YAXAEBVPxVec3@2@AEBVPxMat33@2@AEAV42@@Z 00000001800206d0 f i PhysX3Extensions:ExtRigidBodyExt.obj
 0001:0001fa60       ?getAllocator@shdfnd@physx@@YAAEAVPxAllocatorCallback@2@XZ 0000000180020a60 f   PxFoundation_x64:PxFoundation_x64.dll
 0001:0001fa66       ?lock@MutexImpl@shdfnd@physx@@QEAAXXZ 0000000180020a66 f   PxFoundation_x64:PxFoundation_x64.dll
 0001:0001fa6c       ?unlock@MutexImpl@shdfnd@physx@@QEAAXXZ 0000000180020a6c f   PxFoundation_x64:PxFoundation_x64.dll
 0001:0001fa72       PxGetFoundation            0000000180020a72 f   PxFoundation_x64:PxFoundation_x64.dll
 0001:0001fa78       ??0MutexImpl@shdfnd@physx@@QEAA@XZ 0000000180020a78 f   PxFoundation_x64:PxFoundation_x64.dll
 0001:0001fa7e       ??1MutexImpl@shdfnd@physx@@QEAA@XZ 0000000180020a7e f   PxFoundation_x64:PxFoundation_x64.dll
 0001:0001fa84       ?getSize@MutexImpl@shdfnd@physx@@SAIXZ 0000000180020a84 f   PxFoundation_x64:PxFoundation_x64.dll
 0001:0001fa8a       ?getInstance@Foundation@shdfnd@physx@@SAAEAV123@XZ 0000000180020a8a f   PxFoundation_x64:PxFoundation_x64.dll
 0001:0001fa90       ?incRefCount@Foundation@shdfnd@physx@@SAXXZ 0000000180020a90 f   PxFoundation_x64:PxFoundation_x64.dll
 0001:0001fa96       ?decRefCount@Foundation@shdfnd@physx@@SAXXZ 0000000180020a96 f   PxFoundation_x64:PxFoundation_x64.dll
 0001:0001fa9c       ?error@Foundation@shdfnd@physx@@QEAAXW4Enum@PxErrorCode@3@PEBDH1ZZ 0000000180020a9c f   PxFoundation_x64:PxFoundation_x64.dll
 0001:0001faa2       ?PxShortestRotation@physx@@YA?AVPxQuat@1@AEBVPxVec3@1@0@Z 0000000180020aa2 f   PxFoundation_x64:PxFoundation_x64.dll
 0001:0001faa8       ?PxDiagonalize@physx@@YA?AVPxVec3@1@AEBVPxMat33@1@AEAVPxQuat@1@@Z 0000000180020aa8 f   PxFoundation_x64:PxFoundation_x64.dll
 0001:0001faae       ?sweep@PxMeshQuery@physx@@SA_NAEBVPxVec3@2@MAEBVPxGeometry@2@AEBVPxTransform@2@IPEBVPxTriangle@2@AEAUPxSweepHit@2@V?$PxFlags@W4Enum@PxHitFlag@physx@@G@2@PEBIM_N@Z 0000000180020aae f   PhysX3Common_x64:PhysX3Common_x64.dll
 0001:0001fab4       ??0RenderOutput@Cm@physx@@QEAA@AEAVRenderBuffer@12@@Z 0000000180020ab4 f   PhysX3Common_x64:PhysX3Common_x64.dll
 0001:0001faba       ??6RenderOutput@Cm@physx@@QEAAAEAV012@I@Z 0000000180020aba f   PhysX3Common_x64:PhysX3Common_x64.dll
 0001:0001fac0       ??6RenderOutput@Cm@physx@@QEAAAEAV012@AEBVPxTransform@2@@Z 0000000180020ac0 f   PhysX3Common_x64:PhysX3Common_x64.dll
 0001:0001fac6       ?outputCapsule@RenderOutput@Cm@physx@@QEAAAEAV123@MMAEBVPxMat44@3@@Z 0000000180020ac6 f   PhysX3Common_x64:PhysX3Common_x64.dll
 0001:0001facc       ??6Cm@physx@@YAAEAVRenderOutput@01@AEAV201@AEBUDebugBox@01@@Z 0000000180020acc f   PhysX3Common_x64:PhysX3Common_x64.dll
 0001:0001fad2       ?PxTransformFromSegment@physx@@YA?AVPxTransform@1@AEBVPxVec3@1@0PEAM@Z 0000000180020ad2 f   PhysX3Common_x64:PhysX3Common_x64.dll
 0001:0001fad8       ?sweep@PxGeometryQuery@physx@@SA_NAEBVPxVec3@2@MAEBVPxGeometry@2@AEBVPxTransform@2@12AEAUPxSweepHit@2@V?$PxFlags@W4Enum@PxHitFlag@physx@@G@2@M@Z 0000000180020ad8 f   PhysX3Common_x64:PhysX3Common_x64.dll
 0001:0001fade       ?computePenetration@PxGeometryQuery@physx@@SA_NAEAVPxVec3@2@AEAMAEBVPxGeometry@2@AEBVPxTransform@2@23@Z 0000000180020ade f   PhysX3Common_x64:PhysX3Common_x64.dll
 0001:0001fae4       ?intersectOBBOBB@Gu@physx@@YA_NAEBVPxVec3@2@0AEBVPxMat33@2@001_N@Z 0000000180020ae4 f   PhysX3Common_x64:PhysX3Common_x64.dll
 0001:0001faea       ?distanceSegmentBoxSquared@Gu@physx@@YAMAEBVPxVec3@2@000AEBVPxMat33@2@PEAMPEAV32@@Z 0000000180020aea f   PhysX3Common_x64:PhysX3Common_x64.dll
 0001:0001faf0       ?getTriangle@PxMeshQuery@physx@@SAXAEBVPxTriangleMeshGeometry@2@AEBVPxTransform@2@IAEAVPxTriangle@2@PEAI3@Z 0000000180020af0 f   PhysX3Common_x64:PhysX3Common_x64.dll
 0001:0001faf6       ?getTriangle@PxMeshQuery@physx@@SAXAEBVPxHeightFieldGeometry@2@AEBVPxTransform@2@IAEAVPxTriangle@2@PEAI3@Z 0000000180020af6 f   PhysX3Common_x64:PhysX3Common_x64.dll
 0001:0001fafc       ??6RenderOutput@Cm@physx@@QEAAAEAV012@W4Primitive@012@@Z 0000000180020afc f   PhysX3Common_x64:PhysX3Common_x64.dll
 0001:0001fb02       ??6RenderOutput@Cm@physx@@QEAAAEAV012@VPxVec3@2@@Z 0000000180020b02 f   PhysX3Common_x64:PhysX3Common_x64.dll
 0001:0001fb08       ?intersectTriangleBox_Unsafe@Gu@physx@@YAHAEBVPxVec3@2@0000@Z 0000000180020b08 f   PhysX3Common_x64:PhysX3Common_x64.dll
 0001:0001fb0e       ?CompleteBoxPruning@Cm@physx@@YA_NPEBVPxBounds3@2@IAEAV?$Array@IV?$ReflectionAllocator@I@shdfnd@physx@@@shdfnd@2@AEBVAxes@Gu@2@@Z 0000000180020b0e f   PhysX3Common_x64:PhysX3Common_x64.dll
 0001:0001fb14       ?distanceSegmentSegmentSquared@Gu@physx@@YAMAEBVPxVec3@2@000PEAM1@Z 0000000180020b14 f   PhysX3Common_x64:PhysX3Common_x64.dll
 0001:0001fb1a       ?getRaycastFuncTable@Gu@physx@@YAAEAY06Q6AIAEBVPxGeometry@2@AEBVPxTransform@2@AEBVPxVec3@2@2MV?$PxFlags@W4Enum@PxHitFlag@physx@@G@2@IPEIAUPxRaycastHit@2@@ZXZ 0000000180020b1a f   PhysX3Common_x64:PhysX3Common_x64.dll
 0001:0001fb20       ?findOverlapTriangleMesh@PxMeshQuery@physx@@SAIAEBVPxGeometry@2@AEBVPxTransform@2@AEBVPxTriangleMeshGeometry@2@1PEAIIIAEA_N@Z 0000000180020b20 f   PhysX3Common_x64:PhysX3Common_x64.dll
 0001:0001fb26       ?findOverlapHeightField@PxMeshQuery@physx@@SAIAEBVPxGeometry@2@AEBVPxTransform@2@AEBVPxHeightFieldGeometry@2@1PEAIIIAEA_N@Z 0000000180020b26 f   PhysX3Common_x64:PhysX3Common_x64.dll
 0001:0001fb2c       ??3@YAXPEAX_K@Z            0000000180020b2c f   MSVCRT:delete_scalar_size.obj
 0001:0001fb34       ??_V@YAXPEAX_K@Z           0000000180020b34 f   MSVCRT:delete_array_size.obj
 0001:0001fb3c       ?__scrt_initialize_type_info@@YAXXZ 0000000180020b3c f   MSVCRT:tncleanup.obj
 0001:0001fb4c       ?__scrt_uninitialize_type_info@@YAXXZ 0000000180020b4c f   MSVCRT:tncleanup.obj
 0001:0001fb58       ??1type_info@@UEAA@XZ      0000000180020b58 f   MSVCRT:std_type_info_static.obj
 0001:0001fb64       ??_Gtype_info@@UEAAPEAXI@Z 0000000180020b64 f i MSVCRT:std_type_info_static.obj
 0001:0001fb64       ??_Etype_info@@UEAAPEAXI@Z 0000000180020b64 f i MSVCRT:std_type_info_static.obj
 0001:0001fba0       _alloca_probe              0000000180020ba0 f   MSVCRT:_chkstk_.obj
 0001:0001fba0       __chkstk                   0000000180020ba0 f   MSVCRT:_chkstk_.obj
 0001:0001ff40       _CRT_INIT                  0000000180020f40 f   MSVCRT:dll_dllmain.obj
 0001:0001ff48       _DllMainCRTStartup         0000000180020f48 f   MSVCRT:dll_dllmain.obj
 0001:0001ff88       ??3@YAXPEAX@Z              0000000180020f88 f   MSVCRT:delete_scalar.obj
 0001:0001ff90       ??_V@YAXPEAX@Z             0000000180020f90 f   MSVCRT:delete_array.obj
 0001:0001ff98       ??$__crt_fast_decode_pointer@PEAP6AXXZ@@YAPEAP6AXXZQEAP6AXXZ@Z 0000000180020f98 f i MSVCRT:utility.obj
 0001:0001ffb0       ??$__crt_fast_encode_pointer@PEAP6AXXZ@@YAPEAP6AXXZQEAP6AXXZ@Z 0000000180020fb0 f i MSVCRT:utility.obj
 0001:0001ffd0       ?__crt_rotate_pointer_value@@YA_K_KH@Z 0000000180020fd0 f i MSVCRT:utility.obj
 0001:0001ffdc       ?configure_argv@__scrt_narrow_argv_policy@@SAHXZ 0000000180020fdc f i MSVCRT:utility.obj
 0001:0002006c       NtCurrentTeb               000000018002106c f i MSVCRT:utility.obj
 0001:00020078       __scrt_acquire_startup_lock 0000000180021078 f   MSVCRT:utility.obj
 0001:000200b4       __scrt_dllmain_after_initialize_c 00000001800210b4 f   MSVCRT:utility.obj
 0001:000200e8       __scrt_dllmain_before_initialize_c 00000001800210e8 f   MSVCRT:utility.obj
 0001:00020100       __scrt_dllmain_crt_thread_attach 0000000180021100 f   MSVCRT:utility.obj
 0001:00020128       __scrt_dllmain_crt_thread_detach 0000000180021128 f   MSVCRT:utility.obj
 0001:00020140       __scrt_dllmain_exception_filter 0000000180021140 f   MSVCRT:utility.obj
 0001:000201a4       __scrt_dllmain_uninitialize_c 00000001800211a4 f   MSVCRT:utility.obj
 0001:000201d4       __scrt_dllmain_uninitialize_critical 00000001800211d4 f   MSVCRT:utility.obj
 0001:000201e8       __scrt_initialize_crt      00000001800211e8 f   MSVCRT:utility.obj
 0001:00020234       __scrt_initialize_onexit_tables 0000000180021234 f   MSVCRT:utility.obj
 0001:00020300       __scrt_is_nonwritable_in_current_image 0000000180021300 f   MSVCRT:utility.obj
 0001:0002039c       __scrt_release_startup_lock 000000018002139c f   MSVCRT:utility.obj
 0001:000203c0       __scrt_uninitialize_crt    00000001800213c0 f   MSVCRT:utility.obj
 0001:000203ec       _onexit                    00000001800213ec f   MSVCRT:utility.obj
 0001:0002043c       at_quick_exit              000000018002143c f   MSVCRT:utility.obj
 0001:00020474       atexit                     0000000180021474 f   MSVCRT:utility.obj
 0001:0002048c       __security_init_cookie     000000018002148c f   MSVCRT:gs_support.obj
 0001:00020538       DllMain                    0000000180021538 f   MSVCRT:dll_dllmain_stub.obj
 0001:0002055c       __local_stdio_printf_options 000000018002155c f i MSVCRT:default_local_stdio_options.obj
 0001:00020564       __local_stdio_scanf_options 0000000180021564 f i MSVCRT:default_local_stdio_options.obj
 0001:0002056c       __scrt_initialize_default_local_stdio_options 000000018002156c f   MSVCRT:default_local_stdio_options.obj
 0001:00020588       __scrt_get_dyn_tls_init_callback 0000000180021588 f   MSVCRT:dyn_tls_init.obj
 0001:00020590       __crt_debugger_hook        0000000180021590 f   MSVCRT:utility_desktop.obj
 0001:00020598       __scrt_fastfail            0000000180021598 f   MSVCRT:utility_desktop.obj
 0001:000206e0       __scrt_get_show_window_mode 00000001800216e0 f   MSVCRT:utility_desktop.obj
 0001:0002071c       __scrt_initialize_winrt    000000018002171c f   MSVCRT:utility_desktop.obj
 0001:00020720       __scrt_is_managed_app      0000000180021720 f   MSVCRT:utility_desktop.obj
 0001:00020774       __scrt_set_unhandled_exception_filter 0000000180021774 f   MSVCRT:utility_desktop.obj
 0001:00020784       __scrt_unhandled_exception_filter 0000000180021784 f   MSVCRT:utility_desktop.obj
 0001:000207bc       _RTC_Initialize            00000001800217bc f   MSVCRT:_initsect_.obj
 0001:00020808       _RTC_Terminate             0000000180021808 f   MSVCRT:_initsect_.obj
 0001:00020854       _guard_check_icall         0000000180021854 f i MSVCRT:checkcfg.obj
 0001:0002085c       __isa_available_init       000000018002185c f   MSVCRT:_cpu_disp_.obj
 0001:00020a24       _get_startup_argv_mode     0000000180021a24 f   MSVCRT:argv_mode.obj
 0001:00020a2c       __scrt_is_ucrt_dll_in_use  0000000180021a2c f   MSVCRT:ucrt_detection.obj
 0001:00020a38       _guard_check_icall_nop     0000000180021a38 f i MSVCRT:guard_support.obj
 0001:00020a3c       _guard_icall_checks_enforced 0000000180021a3c f i MSVCRT:guard_support.obj
 0001:00020a60       _purecall                  0000000180021a60 f   vcruntime:VCRUNTIME140.dll
 0001:00020a66       __std_type_info_name       0000000180021a66 f   vcruntime:VCRUNTIME140.dll
 0001:00020a6c       memcpy                     0000000180021a6c f   vcruntime:VCRUNTIME140.dll
 0001:00020a72       memset                     0000000180021a72 f   vcruntime:VCRUNTIME140.dll
 0001:00020a78       __std_type_info_destroy_list 0000000180021a78 f   vcruntime:VCRUNTIME140.dll
 0001:00020a7e       __C_specific_handler       0000000180021a7e f   vcruntime:VCRUNTIME140.dll
 0001:00020a84       _fpclass                   0000000180021a84 f   ucrt:api-ms-win-crt-math-l1-1-0.dll
 0001:00020a8a       _initterm                  0000000180021a8a f   ucrt:api-ms-win-crt-runtime-l1-1-0.dll
 0001:00020a90       _initterm_e                0000000180021a90 f   ucrt:api-ms-win-crt-runtime-l1-1-0.dll
 0001:00020a96       free                       0000000180021a96 f   ucrt:api-ms-win-crt-heap-l1-1-0.dll
 0001:00020a9c       _seh_filter_dll            0000000180021a9c f   ucrt:api-ms-win-crt-runtime-l1-1-0.dll
 0001:00020aa2       _configure_narrow_argv     0000000180021aa2 f   ucrt:api-ms-win-crt-runtime-l1-1-0.dll
 0001:00020aa8       _initialize_narrow_environment 0000000180021aa8 f   ucrt:api-ms-win-crt-runtime-l1-1-0.dll
 0001:00020aae       _initialize_onexit_table   0000000180021aae f   ucrt:api-ms-win-crt-runtime-l1-1-0.dll
 0001:00020ab4       _register_onexit_function  0000000180021ab4 f   ucrt:api-ms-win-crt-runtime-l1-1-0.dll
 0001:00020aba       _execute_onexit_table      0000000180021aba f   ucrt:api-ms-win-crt-runtime-l1-1-0.dll
 0001:00020ac0       _crt_atexit                0000000180021ac0 f   ucrt:api-ms-win-crt-runtime-l1-1-0.dll
 0001:00020ac6       _crt_at_quick_exit         0000000180021ac6 f   ucrt:api-ms-win-crt-runtime-l1-1-0.dll
 0001:00020acc       _cexit                     0000000180021acc f   ucrt:api-ms-win-crt-runtime-l1-1-0.dll
 0001:00020ad2       terminate                  0000000180021ad2 f   ucrt:api-ms-win-crt-runtime-l1-1-0.dll
 0001:00020ad8       InitializeSListHead        0000000180021ad8 f   kernel32:KERNEL32.dll
 0001:00020ade       QueryPerformanceCounter    0000000180021ade f   kernel32:KERNEL32.dll
 0001:00020ae4       GetCurrentProcessId        0000000180021ae4 f   kernel32:KERNEL32.dll
 0001:00020aea       GetCurrentThreadId         0000000180021aea f   kernel32:KERNEL32.dll
 0001:00020af0       GetSystemTimeAsFileTime    0000000180021af0 f   kernel32:KERNEL32.dll
 0001:00020af6       DisableThreadLibraryCalls  0000000180021af6 f   kernel32:KERNEL32.dll
 0001:00020afc       RtlCaptureContext          0000000180021afc f   kernel32:KERNEL32.dll
 0001:00020b02       RtlLookupFunctionEntry     0000000180021b02 f   kernel32:KERNEL32.dll
 0001:00020b08       RtlVirtualUnwind           0000000180021b08 f   kernel32:KERNEL32.dll
 0001:00020b0e       IsDebuggerPresent          0000000180021b0e f   kernel32:KERNEL32.dll
 0001:00020b14       UnhandledExceptionFilter   0000000180021b14 f   kernel32:KERNEL32.dll
 0001:00020b1a       SetUnhandledExceptionFilter 0000000180021b1a f   kernel32:KERNEL32.dll
 0001:00020b20       GetStartupInfoW            0000000180021b20 f   kernel32:KERNEL32.dll
 0001:00020b26       IsProcessorFeaturePresent  0000000180021b26 f   kernel32:KERNEL32.dll
 0001:00020b2c       GetModuleHandleW           0000000180021b2c f   kernel32:KERNEL32.dll
 0001:00020b34       __vcrt_initialize          0000000180021b34 f   MSVCRT:ucrt_stubs.obj
 0001:00020b34       __scrt_stub_for_acrt_initialize 0000000180021b34 f   MSVCRT:ucrt_stubs.obj
 0001:00020b34       __acrt_initialize          0000000180021b34 f   MSVCRT:ucrt_stubs.obj
 0001:00020b38       __acrt_thread_attach       0000000180021b38 f   MSVCRT:ucrt_stubs.obj
 0001:00020b38       __scrt_stub_for_acrt_thread_attach 0000000180021b38 f   MSVCRT:ucrt_stubs.obj
 0001:00020b38       __vcrt_thread_attach       0000000180021b38 f   MSVCRT:ucrt_stubs.obj
 0001:00020b3c       __acrt_thread_detach       0000000180021b3c f   MSVCRT:ucrt_stubs.obj
 0001:00020b3c       __scrt_stub_for_acrt_thread_detach 0000000180021b3c f   MSVCRT:ucrt_stubs.obj
 0001:00020b3c       __vcrt_thread_detach       0000000180021b3c f   MSVCRT:ucrt_stubs.obj
 0001:00020b40       __acrt_uninitialize        0000000180021b40 f   MSVCRT:ucrt_stubs.obj
 0001:00020b40       __scrt_stub_for_acrt_uninitialize 0000000180021b40 f   MSVCRT:ucrt_stubs.obj
 0001:00020b40       __vcrt_uninitialize        0000000180021b40 f   MSVCRT:ucrt_stubs.obj
 0001:00020b44       __scrt_stub_for_acrt_uninitialize_critical 0000000180021b44 f   MSVCRT:ucrt_stubs.obj
 0001:00020b44       __acrt_uninitialize_critical 0000000180021b44 f   MSVCRT:ucrt_stubs.obj
 0001:00020b44       __vcrt_uninitialize_critical 0000000180021b44 f   MSVCRT:ucrt_stubs.obj
 0001:00020b48       __scrt_stub_for_is_c_termination_complete 0000000180021b48 f   MSVCRT:ucrt_stubs.obj
 0001:00020b48       _is_c_termination_complete 0000000180021b48 f   MSVCRT:ucrt_stubs.obj
 0001:00020b60       _guard_dispatch_icall_nop  0000000180021b60 f   MSVCRT:_guard_dispatch_.obj
 0002:00000000       __imp_QueryPerformanceCounter 0000000180022000     kernel32:KERNEL32.dll
 0002:00000008       __imp_GetCurrentProcessId  0000000180022008     kernel32:KERNEL32.dll
 0002:00000010       __imp_GetCurrentThreadId   0000000180022010     kernel32:KERNEL32.dll
 0002:00000018       __imp_GetSystemTimeAsFileTime 0000000180022018     kernel32:KERNEL32.dll
 0002:00000020       __imp_DisableThreadLibraryCalls 0000000180022020     kernel32:KERNEL32.dll
 0002:00000028       __imp_RtlCaptureContext    0000000180022028     kernel32:KERNEL32.dll
 0002:00000030       __imp_RtlLookupFunctionEntry 0000000180022030     kernel32:KERNEL32.dll
 0002:00000038       __imp_RtlVirtualUnwind     0000000180022038     kernel32:KERNEL32.dll
 0002:00000040       __imp_IsDebuggerPresent    0000000180022040     kernel32:KERNEL32.dll
 0002:00000048       __imp_UnhandledExceptionFilter 0000000180022048     kernel32:KERNEL32.dll
 0002:00000050       __imp_SetUnhandledExceptionFilter 0000000180022050     kernel32:KERNEL32.dll
 0002:00000058       __imp_GetStartupInfoW      0000000180022058     kernel32:KERNEL32.dll
 0002:00000060       __imp_IsProcessorFeaturePresent 0000000180022060     kernel32:KERNEL32.dll
 0002:00000068       __imp_GetModuleHandleW     0000000180022068     kernel32:KERNEL32.dll
 0002:00000070       __imp_InitializeSListHead  0000000180022070     kernel32:KERNEL32.dll
 0002:00000078       \177KERNEL32_NULL_THUNK_DATA 0000000180022078     kernel32:KERNEL32.dll
 0002:00000080       __imp_??6RenderOutput@Cm@physx@@QEAAAEAV012@I@Z 0000000180022080     PhysX3Common_x64:PhysX3Common_x64.dll
 0002:00000088       __imp_??6RenderOutput@Cm@physx@@QEAAAEAV012@AEBVPxTransform@2@@Z 0000000180022088     PhysX3Common_x64:PhysX3Common_x64.dll
 0002:00000090       __imp_?outputCapsule@RenderOutput@Cm@physx@@QEAAAEAV123@MMAEBVPxMat44@3@@Z 0000000180022090     PhysX3Common_x64:PhysX3Common_x64.dll
 0002:00000098       __imp_??6Cm@physx@@YAAEAVRenderOutput@01@AEAV201@AEBUDebugBox@01@@Z 0000000180022098     PhysX3Common_x64:PhysX3Common_x64.dll
 0002:000000a0       __imp_?PxTransformFromSegment@physx@@YA?AVPxTransform@1@AEBVPxVec3@1@0PEAM@Z 00000001800220a0     PhysX3Common_x64:PhysX3Common_x64.dll
 0002:000000a8       __imp_?sweep@PxGeometryQuery@physx@@SA_NAEBVPxVec3@2@MAEBVPxGeometry@2@AEBVPxTransform@2@12AEAUPxSweepHit@2@V?$PxFlags@W4Enum@PxHitFlag@physx@@G@2@M@Z 00000001800220a8     PhysX3Common_x64:PhysX3Common_x64.dll
 0002:000000b0       __imp_?computePenetration@PxGeometryQuery@physx@@SA_NAEAVPxVec3@2@AEAMAEBVPxGeometry@2@AEBVPxTransform@2@23@Z 00000001800220b0     PhysX3Common_x64:PhysX3Common_x64.dll
 0002:000000b8       __imp_?intersectOBBOBB@Gu@physx@@YA_NAEBVPxVec3@2@0AEBVPxMat33@2@001_N@Z 00000001800220b8     PhysX3Common_x64:PhysX3Common_x64.dll
 0002:000000c0       __imp_?distanceSegmentBoxSquared@Gu@physx@@YAMAEBVPxVec3@2@000AEBVPxMat33@2@PEAMPEAV32@@Z 00000001800220c0     PhysX3Common_x64:PhysX3Common_x64.dll
 0002:000000c8       __imp_?getTriangle@PxMeshQuery@physx@@SAXAEBVPxTriangleMeshGeometry@2@AEBVPxTransform@2@IAEAVPxTriangle@2@PEAI3@Z 00000001800220c8     PhysX3Common_x64:PhysX3Common_x64.dll
 0002:000000d0       __imp_??0RenderOutput@Cm@physx@@QEAA@AEAVRenderBuffer@12@@Z 00000001800220d0     PhysX3Common_x64:PhysX3Common_x64.dll
 0002:000000d8       __imp_??6RenderOutput@Cm@physx@@QEAAAEAV012@W4Primitive@012@@Z 00000001800220d8     PhysX3Common_x64:PhysX3Common_x64.dll
 0002:000000e0       __imp_??6RenderOutput@Cm@physx@@QEAAAEAV012@VPxVec3@2@@Z 00000001800220e0     PhysX3Common_x64:PhysX3Common_x64.dll
 0002:000000e8       __imp_?intersectTriangleBox_Unsafe@Gu@physx@@YAHAEBVPxVec3@2@0000@Z 00000001800220e8     PhysX3Common_x64:PhysX3Common_x64.dll
 0002:000000f0       __imp_?CompleteBoxPruning@Cm@physx@@YA_NPEBVPxBounds3@2@IAEAV?$Array@IV?$ReflectionAllocator@I@shdfnd@physx@@@shdfnd@2@AEBVAxes@Gu@2@@Z 00000001800220f0     PhysX3Common_x64:PhysX3Common_x64.dll
 0002:000000f8       __imp_?distanceSegmentSegmentSquared@Gu@physx@@YAMAEBVPxVec3@2@000PEAM1@Z 00000001800220f8     PhysX3Common_x64:PhysX3Common_x64.dll
 0002:00000100       __imp_?getRaycastFuncTable@Gu@physx@@YAAEAY06Q6AIAEBVPxGeometry@2@AEBVPxTransform@2@AEBVPxVec3@2@2MV?$PxFlags@W4Enum@PxHitFlag@physx@@G@2@IPEIAUPxRaycastHit@2@@ZXZ 0000000180022100     PhysX3Common_x64:PhysX3Common_x64.dll
 0002:00000108       __imp_?findOverlapTriangleMesh@PxMeshQuery@physx@@SAIAEBVPxGeometry@2@AEBVPxTransform@2@AEBVPxTriangleMeshGeometry@2@1PEAIIIAEA_N@Z 0000000180022108     PhysX3Common_x64:PhysX3Common_x64.dll
 0002:00000110       __imp_?findOverlapHeightField@PxMeshQuery@physx@@SAIAEBVPxGeometry@2@AEBVPxTransform@2@AEBVPxHeightFieldGeometry@2@1PEAIIIAEA_N@Z 0000000180022110     PhysX3Common_x64:PhysX3Common_x64.dll
 0002:00000118       __imp_?sweep@PxMeshQuery@physx@@SA_NAEBVPxVec3@2@MAEBVPxGeometry@2@AEBVPxTransform@2@IPEBVPxTriangle@2@AEAUPxSweepHit@2@V?$PxFlags@W4Enum@PxHitFlag@physx@@G@2@PEBIM_N@Z 0000000180022118     PhysX3Common_x64:PhysX3Common_x64.dll
 0002:00000120       __imp_?getTriangle@PxMeshQuery@physx@@SAXAEBVPxHeightFieldGeometry@2@AEBVPxTransform@2@IAEAVPxTriangle@2@PEAI3@Z 0000000180022120     PhysX3Common_x64:PhysX3Common_x64.dll
 0002:00000128       \177PhysX3Common_x64_NULL_THUNK_DATA 0000000180022128     PhysX3Common_x64:PhysX3Common_x64.dll
 0002:00000130       __imp_?getAllocator@shdfnd@physx@@YAAEAVPxAllocatorCallback@2@XZ 0000000180022130     PxFoundation_x64:PxFoundation_x64.dll
 0002:00000138       __imp_?PxDiagonalize@physx@@YA?AVPxVec3@1@AEBVPxMat33@1@AEAVPxQuat@1@@Z 0000000180022138     PxFoundation_x64:PxFoundation_x64.dll
 0002:00000140       __imp_?PxShortestRotation@physx@@YA?AVPxQuat@1@AEBVPxVec3@1@0@Z 0000000180022140     PxFoundation_x64:PxFoundation_x64.dll
 0002:00000148       __imp_?error@Foundation@shdfnd@physx@@QEAAXW4Enum@PxErrorCode@3@PEBDH1ZZ 0000000180022148     PxFoundation_x64:PxFoundation_x64.dll
 0002:00000150       __imp_?decRefCount@Foundation@shdfnd@physx@@SAXXZ 0000000180022150     PxFoundation_x64:PxFoundation_x64.dll
 0002:00000158       __imp_?incRefCount@Foundation@shdfnd@physx@@SAXXZ 0000000180022158     PxFoundation_x64:PxFoundation_x64.dll
 0002:00000160       __imp_?getInstance@Foundation@shdfnd@physx@@SAAEAV123@XZ 0000000180022160     PxFoundation_x64:PxFoundation_x64.dll
 0002:00000168       __imp_?getSize@MutexImpl@shdfnd@physx@@SAIXZ 0000000180022168     PxFoundation_x64:PxFoundation_x64.dll
 0002:00000170       __imp_??1MutexImpl@shdfnd@physx@@QEAA@XZ 0000000180022170     PxFoundation_x64:PxFoundation_x64.dll
 0002:00000178       __imp_??0MutexImpl@shdfnd@physx@@QEAA@XZ 0000000180022178     PxFoundation_x64:PxFoundation_x64.dll
 0002:00000180       __imp_PxGetFoundation      0000000180022180     PxFoundation_x64:PxFoundation_x64.dll
 0002:00000188       __imp_?unlock@MutexImpl@shdfnd@physx@@QEAAXXZ 0000000180022188     PxFoundation_x64:PxFoundation_x64.dll
 0002:00000190       __imp_?lock@MutexImpl@shdfnd@physx@@QEAAXXZ 0000000180022190     PxFoundation_x64:PxFoundation_x64.dll
 0002:00000198       \177PxFoundation_x64_NULL_THUNK_DATA 0000000180022198     PxFoundation_x64:PxFoundation_x64.dll
 0002:000001a0       __imp_memcpy               00000001800221a0     vcruntime:VCRUNTIME140.dll
 0002:000001a8       __imp___std_type_info_name 00000001800221a8     vcruntime:VCRUNTIME140.dll
 0002:000001b0       __imp_memset               00000001800221b0     vcruntime:VCRUNTIME140.dll
 0002:000001b8       __imp___std_type_info_destroy_list 00000001800221b8     vcruntime:VCRUNTIME140.dll
 0002:000001c0       __imp___C_specific_handler 00000001800221c0     vcruntime:VCRUNTIME140.dll
 0002:000001c8       __imp__purecall            00000001800221c8     vcruntime:VCRUNTIME140.dll
 0002:000001d0       \177VCRUNTIME140_NULL_THUNK_DATA 00000001800221d0     vcruntime:VCRUNTIME140.dll
 0002:000001d8       __imp_free                 00000001800221d8     ucrt:api-ms-win-crt-heap-l1-1-0.dll
 0002:000001e0       \177api-ms-win-crt-heap-l1-1-0_NULL_THUNK_DATA 00000001800221e0     ucrt:api-ms-win-crt-heap-l1-1-0.dll
 0002:000001e8       __imp__fpclass             00000001800221e8     ucrt:api-ms-win-crt-math-l1-1-0.dll
 0002:000001f0       \177api-ms-win-crt-math-l1-1-0_NULL_THUNK_DATA 00000001800221f0     ucrt:api-ms-win-crt-math-l1-1-0.dll
 0002:000001f8       __imp__initialize_narrow_environment 00000001800221f8     ucrt:api-ms-win-crt-runtime-l1-1-0.dll
 0002:00000200       __imp__initialize_onexit_table 0000000180022200     ucrt:api-ms-win-crt-runtime-l1-1-0.dll
 0002:00000208       __imp__initterm_e          0000000180022208     ucrt:api-ms-win-crt-runtime-l1-1-0.dll
 0002:00000210       __imp__initterm            0000000180022210     ucrt:api-ms-win-crt-runtime-l1-1-0.dll
 0002:00000218       __imp__register_onexit_function 0000000180022218     ucrt:api-ms-win-crt-runtime-l1-1-0.dll
 0002:00000220       __imp__seh_filter_dll      0000000180022220     ucrt:api-ms-win-crt-runtime-l1-1-0.dll
 0002:00000228       __imp_terminate            0000000180022228     ucrt:api-ms-win-crt-runtime-l1-1-0.dll
 0002:00000230       __imp__cexit               0000000180022230     ucrt:api-ms-win-crt-runtime-l1-1-0.dll
 0002:00000238       __imp__crt_at_quick_exit   0000000180022238     ucrt:api-ms-win-crt-runtime-l1-1-0.dll
 0002:00000240       __imp__crt_atexit          0000000180022240     ucrt:api-ms-win-crt-runtime-l1-1-0.dll
 0002:00000248       __imp__configure_narrow_argv 0000000180022248     ucrt:api-ms-win-crt-runtime-l1-1-0.dll
 0002:00000250       __imp__execute_onexit_table 0000000180022250     ucrt:api-ms-win-crt-runtime-l1-1-0.dll
 0002:00000258       \177api-ms-win-crt-runtime-l1-1-0_NULL_THUNK_DATA 0000000180022258     ucrt:api-ms-win-crt-runtime-l1-1-0.dll
 0002:00000260       __guard_check_icall_fptr   0000000180022260     MSVCRT:guard_support.obj
 0002:00000268       __guard_dispatch_icall_fptr 0000000180022268     MSVCRT:guard_support.obj
 0002:00000270       __xc_a                     0000000180022270     MSVCRT:initializers.obj
 0002:000002a8       __xc_z                     00000001800222a8     MSVCRT:initializers.obj
 0002:000002b0       __xi_a                     00000001800222b0     MSVCRT:initializers.obj
 0002:000002b8       __xi_z                     00000001800222b8     MSVCRT:initializers.obj
 0002:000002c0       __xp_a                     00000001800222c0     MSVCRT:initializers.obj
 0002:000002c8       __xp_z                     00000001800222c8     MSVCRT:initializers.obj
 0002:000002d0       __xt_a                     00000001800222d0     MSVCRT:initializers.obj
 0002:000002d8       __xt_z                     00000001800222d8     MSVCRT:initializers.obj
 0002:000002e0       ??_7PxController@physx@@6B@ 00000001800222e0     CctBoxController.obj
 0002:000003b0       ??_7PxControllerManager@physx@@6B@ 00000001800223b0     CctBoxController.obj
 0002:00000440       ??_7PxFoundation@physx@@6B@ 0000000180022440     CctBoxController.obj
 0002:00000480       ??_7PxBoxController@physx@@6B@ 0000000180022480     CctBoxController.obj
 0002:00000580       ??_7BoxController@Cct@physx@@6BPxBoxController@2@@ 0000000180022580     CctBoxController.obj
 0002:00000680       ??_7BoxController@Cct@physx@@6BController@12@@ 0000000180022680     CctBoxController.obj
 0002:000006a0       __real@3f000000            00000001800226a0     CctBoxController.obj
 0002:000006b0       __xmm@3fe00000000000003fe0000000000000 00000001800226b0     CctBoxController.obj
 0002:000006c0       ??_7PxCapsuleController@physx@@6B@ 00000001800226c0     CctCapsuleController.obj
 0002:000007c0       ??_7CapsuleController@Cct@physx@@6BPxCapsuleController@2@@ 00000001800227c0     CctCapsuleController.obj
 0002:000008c0       ??_7CapsuleController@Cct@physx@@6BController@12@@ 00000001800228c0     CctCapsuleController.obj
 0002:000008e0       __xmm@80000000800000008000000080000000 00000001800228e0     CctCapsuleController.obj
 0002:000008f0       ??_7?$PxHitCallback@UPxRaycastHit@physx@@@physx@@6B@ 00000001800228f0     CctCharacterController.obj
 0002:00000908       ??_7?$PxHitBuffer@UPxRaycastHit@physx@@@physx@@6B@ 0000000180022908     CctCharacterController.obj
 0002:00000920       ??_7PxQueryFilterCallback@physx@@6B@ 0000000180022920     CctCharacterController.obj
 0002:00000950       ??_7ControllerFilter@@6B@  0000000180022950     CctCharacterController.obj
 0002:00000968       ??_C@_0BM@OIFKLHDN@?$DMallocation?5names?5disabled?$DO?$AA@ 0000000180022968     CctCharacterController.obj
 0002:00000990       ??_C@_0EO@DNCJKIDL@D?3?2FING?2pgraf?2cga?9oblig2?2cga_obl@ 0000000180022990     CctCharacterController.obj
 0002:000009e0       __real@34000000            00000001800229e0     CctCharacterController.obj
 0002:000009e4       __real@358637bd            00000001800229e4     CctCharacterController.obj
 0002:000009e8       __real@3dcccccd            00000001800229e8     CctCharacterController.obj
 0002:000009ec       __real@3ee66666            00000001800229ec     CctCharacterController.obj
 0002:000009f0       __real@3f800000            00000001800229f0     CctCharacterController.obj
 0002:000009f8       __real@3fe0000000000000    00000001800229f8     CctCharacterController.obj
 0002:00000a00       __real@40000000            0000000180022a00     CctCharacterController.obj
 0002:00000a04       __real@7f7fffff            0000000180022a04     CctCharacterController.obj
 0002:00000a10       __xmm@0000000000000000000000003f800000 0000000180022a10     CctCharacterController.obj
 0002:00000a20       __xmm@00000000000000007f7fffff00000000 0000000180022a20     CctCharacterController.obj
 0002:00000a30       __xmm@3f800000000000000000000000000000 0000000180022a30     CctCharacterController.obj
 0002:00000a40       __xmm@7fffffff7fffffff7fffffff7fffffff 0000000180022a40     CctCharacterController.obj
 0002:00000a70       ?g_PXSinCoefficients0@aos@shdfnd@physx@@3UPX_VECTORF32@123@B 0000000180022a70     CctCharacterControllerCallbacks.obj
 0002:00000a80       ?g_PXSinCoefficients1@aos@shdfnd@physx@@3UPX_VECTORF32@123@B 0000000180022a80     CctCharacterControllerCallbacks.obj
 0002:00000a90       ?g_PXSinCoefficients2@aos@shdfnd@physx@@3UPX_VECTORF32@123@B 0000000180022a90     CctCharacterControllerCallbacks.obj
 0002:00000aa0       ?g_PXCosCoefficients0@aos@shdfnd@physx@@3UPX_VECTORF32@123@B 0000000180022aa0     CctCharacterControllerCallbacks.obj
 0002:00000ab0       ?g_PXCosCoefficients1@aos@shdfnd@physx@@3UPX_VECTORF32@123@B 0000000180022ab0     CctCharacterControllerCallbacks.obj
 0002:00000ac0       ?g_PXCosCoefficients2@aos@shdfnd@physx@@3UPX_VECTORF32@123@B 0000000180022ac0     CctCharacterControllerCallbacks.obj
 0002:00000ad0       ?g_PXTanCoefficients0@aos@shdfnd@physx@@3UPX_VECTORF32@123@B 0000000180022ad0     CctCharacterControllerCallbacks.obj
 0002:00000ae0       ?g_PXTanCoefficients1@aos@shdfnd@physx@@3UPX_VECTORF32@123@B 0000000180022ae0     CctCharacterControllerCallbacks.obj
 0002:00000af0       ?g_PXTanCoefficients2@aos@shdfnd@physx@@3UPX_VECTORF32@123@B 0000000180022af0     CctCharacterControllerCallbacks.obj
 0002:00000b00       ?g_PXASinCoefficients0@aos@shdfnd@physx@@3UPX_VECTORF32@123@B 0000000180022b00     CctCharacterControllerCallbacks.obj
 0002:00000b10       ?g_PXASinCoefficients1@aos@shdfnd@physx@@3UPX_VECTORF32@123@B 0000000180022b10     CctCharacterControllerCallbacks.obj
 0002:00000b20       ?g_PXASinCoefficients2@aos@shdfnd@physx@@3UPX_VECTORF32@123@B 0000000180022b20     CctCharacterControllerCallbacks.obj
 0002:00000b30       ?g_PXATanCoefficients0@aos@shdfnd@physx@@3UPX_VECTORF32@123@B 0000000180022b30     CctCharacterControllerCallbacks.obj
 0002:00000b40       ?g_PXATanCoefficients1@aos@shdfnd@physx@@3UPX_VECTORF32@123@B 0000000180022b40     CctCharacterControllerCallbacks.obj
 0002:00000b50       ?g_PXATanCoefficients2@aos@shdfnd@physx@@3UPX_VECTORF32@123@B 0000000180022b50     CctCharacterControllerCallbacks.obj
 0002:00000b60       ?g_PXSinEstCoefficients@aos@shdfnd@physx@@3UPX_VECTORF32@123@B 0000000180022b60     CctCharacterControllerCallbacks.obj
 0002:00000b70       ?g_PXCosEstCoefficients@aos@shdfnd@physx@@3UPX_VECTORF32@123@B 0000000180022b70     CctCharacterControllerCallbacks.obj
 0002:00000b80       ?g_PXTanEstCoefficients@aos@shdfnd@physx@@3UPX_VECTORF32@123@B 0000000180022b80     CctCharacterControllerCallbacks.obj
 0002:00000b90       ?g_PXATanEstCoefficients@aos@shdfnd@physx@@3UPX_VECTORF32@123@B 0000000180022b90     CctCharacterControllerCallbacks.obj
 0002:00000ba0       ?g_PXASinEstCoefficients@aos@shdfnd@physx@@3UPX_VECTORF32@123@B 0000000180022ba0     CctCharacterControllerCallbacks.obj
 0002:00000bb0       ?g_PXASinEstConstants@aos@shdfnd@physx@@3UPX_VECTORF32@123@B 0000000180022bb0     CctCharacterControllerCallbacks.obj
 0002:00000bc0       ?g_PXPiConstants0@aos@shdfnd@physx@@3UPX_VECTORF32@123@B 0000000180022bc0     CctCharacterControllerCallbacks.obj
 0002:00000bd0       ?g_PXReciprocalTwoPi@aos@shdfnd@physx@@3UPX_VECTORF32@123@B 0000000180022bd0     CctCharacterControllerCallbacks.obj
 0002:00000be0       ?g_PXTwoPi@aos@shdfnd@physx@@3UPX_VECTORF32@123@B 0000000180022be0     CctCharacterControllerCallbacks.obj
 0002:00000bf0       ??_7?$PxHitCallback@UPxOverlapHit@physx@@@physx@@6B@ 0000000180022bf0     CctCharacterControllerCallbacks.obj
 0002:00000c08       ??_7?$PxHitBuffer@UPxOverlapHit@physx@@@physx@@6B@ 0000000180022c08     CctCharacterControllerCallbacks.obj
 0002:00000c20       __real@3a83126f            0000000180022c20     CctCharacterControllerCallbacks.obj
 0002:00000c24       __real@3c23d70a            0000000180022c24     CctCharacterControllerCallbacks.obj
 0002:00000c28       __real@3f7ff972            0000000180022c28     CctCharacterControllerCallbacks.obj
 0002:00000c2c       __real@7f7fc99e            0000000180022c2c     CctCharacterControllerCallbacks.obj
 0002:00000c30       __real@ba83126f            0000000180022c30     CctCharacterControllerCallbacks.obj
 0002:00000c40       __xmm@000000003a83126f3a83126f3a83126f 0000000180022c40     CctCharacterControllerCallbacks.obj
 0002:00000c50       __xmm@000000003f8000003f8000003f800000 0000000180022c50     CctCharacterControllerCallbacks.obj
 0002:00000c60       __xmm@00000000ba83126fba83126fba83126f 0000000180022c60     CctCharacterControllerCallbacks.obj
 0002:00000c70       __xmm@80000000000000008000000000000000 0000000180022c70     CctCharacterControllerCallbacks.obj
 0002:00000c80       ??_7PxRenderBuffer@physx@@6B@ 0000000180022c80     CctCharacterControllerManager.obj
 0002:00000cd8       ??_7PxDeletionListener@physx@@6B@ 0000000180022cd8     CctCharacterControllerManager.obj
 0002:00000ce8       ??_C@_0BA@DLCJDKDM@NonTrackedAlloc?$AA@ 0000000180022ce8     CctCharacterControllerManager.obj
 0002:00000cf8       ??_7RenderBuffer@Cm@physx@@6B@ 0000000180022cf8     CctCharacterControllerManager.obj
 0002:00000d50       ??_7CharacterControllerManager@Cct@physx@@6BPxControllerManager@2@@ 0000000180022d50     CctCharacterControllerManager.obj
 0002:00000de0       ??_7CharacterControllerManager@Cct@physx@@6BPxDeletionListener@2@@ 0000000180022de0     CctCharacterControllerManager.obj
 0002:00000df0       ??_C@_0EE@IHHKBLHK@?4?4?2?4?4?2PhysXCharacterKinematic?2sr@ 0000000180022df0     CctCharacterControllerManager.obj
 0002:00000e38       ??_C@_0DJ@FJGFFNLM@PxControllerManager?3?3getControll@ 0000000180022e38     CctCharacterControllerManager.obj
 0002:00000e78       ??_C@_0DO@NLBEEDJJ@PxControllerManager?3?3getObstacle@ 0000000180022e78     CctCharacterControllerManager.obj
 0002:00000ec0       ??_C@_0EO@DEEEKBEC@D?3?2FING?2pgraf?2cga?9oblig2?2cga_obl@ 0000000180022ec0     CctCharacterControllerManager.obj
 0002:00000f10       ??_C@_0FG@DHOOGHHC@d?3?2fing?2pgraf?2cga?9oblig2?2cga_obl@ 0000000180022f10     CctCharacterControllerManager.obj
 0002:00000f68       __real@40800000            0000000180022f68     CctCharacterControllerManager.obj
 0002:00000f70       __xmm@00000001000000010000000100000001 0000000180022f70     CctCharacterControllerManager.obj
 0002:00000f80       __xmm@00000003000000020000000100000000 0000000180022f80     CctCharacterControllerManager.obj
 0002:00000f90       ??_7Controller@Cct@physx@@6B@ 0000000180022f90     CctController.obj
 0002:00000fb0       ??_7PxObstacleContext@physx@@6B@ 0000000180022fb0     CctObstacleContext.obj
 0002:00000ff8       ??_7ObstacleContext@Cct@physx@@6B@ 0000000180022ff8     CctObstacleContext.obj
 0002:00001040       ??_C@_0DJ@FPEJDNHL@?4?4?2?4?4?2PhysXCharacterKinematic?2sr@ 0000000180023040     CctObstacleContext.obj
 0002:00001080       ??_7SweptBox@Cct@physx@@6B@ 0000000180023080     CctSweptBox.obj
 0002:00001090       ??_7SweptCapsule@Cct@physx@@6B@ 0000000180023090     CctSweptCapsule.obj
 0002:000010a0       ??_7SweptVolume@Cct@physx@@6B@ 00000001800230a0     CctSweptVolume.obj
 0002:000010b0       ??_C@_0DB@HFONPIBD@?4?4?2?4?4?2PhysXExtensions?2src?2ExtTri@ 00000001800230b0     PhysX3Extensions:ExtTriangleMeshExt.obj
 0002:000010e8       ??_7?$PxHitCallback@UPxSweepHit@physx@@@physx@@6B@ 00000001800230e8     PhysX3Extensions:ExtRigidBodyExt.obj
 0002:00001100       ??_7?$PxHitBuffer@UPxSweepHit@physx@@@physx@@6B@ 0000000180023100     PhysX3Extensions:ExtRigidBodyExt.obj
 0002:00001120       ??_C@_0IE@PMLMABKM@?$CFs?3?5inertia?5tensor?5has?5negative?5@ 0000000180023120     PhysX3Extensions:ExtRigidBodyExt.obj
 0002:000011a8       ??_C@_0CO@PEEEKJKP@?4?4?2?4?4?2PhysXExtensions?2src?2ExtRig@ 00000001800231a8     PhysX3Extensions:ExtRigidBodyExt.obj
 0002:000011e0       ??_C@_0ED@GFJAKEFC@computeMassAndInertia?3?5Provided?5@ 00000001800231e0     PhysX3Extensions:ExtRigidBodyExt.obj
 0002:00001230       ??_C@_0FL@MGPHIFPL@computeMassAndInertia?3?5Not?5enoug@ 0000000180023230     PhysX3Extensions:ExtRigidBodyExt.obj
 0002:00001290       ??_C@_0ED@IINBLCPB@computeMassAndInertia?3?5Dynamic?5a@ 0000000180023290     PhysX3Extensions:ExtRigidBodyExt.obj
 0002:000012d8       ??_C@_0CF@NFENOJIA@PxRigidBodyExt?3?3updateMassAndIne@ 00000001800232d8     PhysX3Extensions:ExtRigidBodyExt.obj
 0002:00001300       ??_C@_0FC@JIKFFKAL@?$CFs?3?5Mass?5and?5inertia?5computation@ 0000000180023300     PhysX3Extensions:ExtRigidBodyExt.obj
 0002:00001360       ??_C@_0ED@BHIJHOEP@?$CFs?3?5No?5density?5specified?0?5settin@ 0000000180023360     PhysX3Extensions:ExtRigidBodyExt.obj
 0002:000013a8       ??_C@_0CI@NNBNKKJG@PxRigidBodyExt?3?3setMassAndUpdate@ 00000001800233a8     PhysX3Extensions:ExtRigidBodyExt.obj
 0002:000013d0       ??_C@_0EA@JNKKHEHF@?$CFs?3?5No?5mass?5specified?0?5setting?5m@ 00000001800233d0     PhysX3Extensions:ExtRigidBodyExt.obj
 0002:00001410       ??_C@_0FI@DKLFOMEB@PxRigidBodyExt?3?3addForce?5methods@ 0000000180023410     PhysX3Extensions:ExtRigidBodyExt.obj
 0002:00001470       ??_C@_0EO@HAODNHOE@d?3?2fing?2pgraf?2cga?9oblig2?2cga_obl@ 0000000180023470     PhysX3Extensions:ExtRigidBodyExt.obj
 0002:000014c0       __real@3daaaaab            00000001800234c0     PhysX3Extensions:ExtRigidBodyExt.obj
 0002:000014c4       __real@3e747645            00000001800234c4     PhysX3Extensions:ExtRigidBodyExt.obj
 0002:000014c8       __real@3e800000            00000001800234c8     PhysX3Extensions:ExtRigidBodyExt.obj
 0002:000014cc       __real@3eaaaaab            00000001800234cc     PhysX3Extensions:ExtRigidBodyExt.obj
 0002:000014d0       __real@3ecccccd            00000001800234d0     PhysX3Extensions:ExtRigidBodyExt.obj
 0002:000014d4       __real@3f088889            00000001800234d4     PhysX3Extensions:ExtRigidBodyExt.obj
 0002:000014d8       __real@3f2aaaab            00000001800234d8     PhysX3Extensions:ExtRigidBodyExt.obj
 0002:000014dc       __real@3f8147ae            00000001800234dc     PhysX3Extensions:ExtRigidBodyExt.obj
 0002:000014e0       __real@3faaaaab            00000001800234e0     PhysX3Extensions:ExtRigidBodyExt.obj
 0002:000014e4       __real@3fc00000            00000001800234e4     PhysX3Extensions:ExtRigidBodyExt.obj
 0002:000014e8       __real@40400000            00000001800234e8     PhysX3Extensions:ExtRigidBodyExt.obj
 0002:000014ec       __real@40490fdb            00000001800234ec     PhysX3Extensions:ExtRigidBodyExt.obj
 0002:000014f0       __real@40860a92            00000001800234f0     PhysX3Extensions:ExtRigidBodyExt.obj
 0002:000014f4       __real@41000000            00000001800234f4     PhysX3Extensions:ExtRigidBodyExt.obj
 0002:00001500       __xmm@7f7fffff000000000000000000000000 0000000180023500     PhysX3Extensions:ExtRigidBodyExt.obj
 0002:00001518       ??_7type_info@@6B@         0000000180023518     MSVCRT:std_type_info_static.obj
 0002:00001520       _pDefaultRawDllMain        0000000180023520     MSVCRT:dll_dllmain.obj
 0002:00001520       _pRawDllMain               0000000180023520     MSVCRT:dll_dllmain.obj
 0002:00001590       _load_config_used          0000000180023590     MSVCRT:loadcfg.obj
 0002:00001628       ??_R4type_info@@6B@        0000000180023628     MSVCRT:std_type_info_static.obj
 0002:00001650       ??_R3type_info@@8          0000000180023650     MSVCRT:std_type_info_static.obj
 0002:00001668       ??_R2type_info@@8          0000000180023668     MSVCRT:std_type_info_static.obj
 0002:00001678       ??_R1A@?0A@EA@type_info@@8 0000000180023678     MSVCRT:std_type_info_static.obj
 0002:000019c8       __rtc_iaa                  00000001800239c8     MSVCRT:_initsect_.obj
 0002:000019d0       __rtc_izz                  00000001800239d0     MSVCRT:_initsect_.obj
 0002:000019d8       __rtc_taa                  00000001800239d8     MSVCRT:_initsect_.obj
 0002:000019e0       __rtc_tzz                  00000001800239e0     MSVCRT:_initsect_.obj
 0002:0000466c       __IMPORT_DESCRIPTOR_PxFoundation_x64 000000018002666c     PxFoundation_x64:PxFoundation_x64.dll
 0002:00004680       __IMPORT_DESCRIPTOR_PhysX3Common_x64 0000000180026680     PhysX3Common_x64:PhysX3Common_x64.dll
 0002:00004694       __IMPORT_DESCRIPTOR_VCRUNTIME140 0000000180026694     vcruntime:VCRUNTIME140.dll
 0002:000046a8       __IMPORT_DESCRIPTOR_api-ms-win-crt-math-l1-1-0 00000001800266a8     ucrt:api-ms-win-crt-math-l1-1-0.dll
 0002:000046bc       __IMPORT_DESCRIPTOR_api-ms-win-crt-runtime-l1-1-0 00000001800266bc     ucrt:api-ms-win-crt-runtime-l1-1-0.dll
 0002:000046d0       __IMPORT_DESCRIPTOR_api-ms-win-crt-heap-l1-1-0 00000001800266d0     ucrt:api-ms-win-crt-heap-l1-1-0.dll
 0002:000046e4       __IMPORT_DESCRIPTOR_KERNEL32 00000001800266e4     kernel32:KERNEL32.dll
 0002:000046f8       __NULL_IMPORT_DESCRIPTOR   00000001800266f8     PxFoundation_x64:PxFoundation_x64.dll
 0003:00000060       _fltused                   0000000180028060     MSVCRT:dllsupp.obj
 0003:00000070       __scrt_native_dllmain_reason 0000000180028070     MSVCRT:utility.obj
 0003:00000078       __isa_available            0000000180028078     MSVCRT:_cpu_disp_.obj
 0003:0000007c       __isa_enabled              000000018002807c     MSVCRT:_cpu_disp_.obj
 0003:00000080       __memcpy_nt_iters          0000000180028080     MSVCRT:_cpu_disp_.obj
 0003:00000088       __security_cookie          0000000180028088     MSVCRT:gs_cookie.obj
 0003:00000090       __security_cookie_complement 0000000180028090     MSVCRT:gs_cookie.obj
 0003:000000a0       __scrt_ucrt_dll_is_in_use  00000001800280a0     MSVCRT:ucrt_stubs.obj
 0003:000000b0       ??_R0?AUPxExtendedCapsule@physx@@@8 00000001800280b0     CctCharacterController.obj
 0003:000000e0       ??_R0?AVPxExtendedBox@physx@@@8 00000001800280e0     CctCharacterController.obj
 0003:00000110       ??_R0PEBX@8                0000000180028110     CctCharacterController.obj
 0003:00000128       ??_R0I@8                   0000000180028128     CctCharacterController.obj
 0003:00000140       ??_R0?AVPxTriangle@physx@@@8 0000000180028140     CctCharacterControllerCallbacks.obj
 0003:00000168       ??_R0?AVMutexImpl@shdfnd@physx@@@8 0000000180028168     CctCharacterControllerManager.obj
 0003:00000198       ??_R0?AVCharacterControllerManager@Cct@physx@@@8 0000000180028198     CctCharacterControllerManager.obj
 0003:000001d8       ??_R0?AVObstacleContext@Cct@physx@@@8 00000001800281d8     CctCharacterControllerManager.obj
 0003:00000208       ??_R0?AVCapsuleController@Cct@physx@@@8 0000000180028208     CctCharacterControllerManager.obj
 0003:00000240       ??_R0?AVBoxController@Cct@physx@@@8 0000000180028240     CctCharacterControllerManager.obj
 0003:00000270       ??_R0?AVRenderBuffer@Cm@physx@@@8 0000000180028270     CctCharacterControllerManager.obj
 0003:000002a0       ??_R0PEAVObstacleContext@Cct@physx@@@8 00000001800282a0     CctCharacterControllerManager.obj
 0003:000002d8       ??_R0PEAVController@Cct@physx@@@8 00000001800282d8     CctCharacterControllerManager.obj
 0003:00000308       ??_R0?AUPxDebugText@physx@@@8 0000000180028308     CctCharacterControllerManager.obj
 0003:00000330       ??_R0?AUPxDebugTriangle@physx@@@8 0000000180028330     CctCharacterControllerManager.obj
 0003:00000360       ??_R0?AUPxDebugLine@physx@@@8 0000000180028360     CctCharacterControllerManager.obj
 0003:00000388       ??_R0?AUPxDebugPoint@physx@@@8 0000000180028388     CctCharacterControllerManager.obj
 0003:000003c0       ??_R0?AUInternalCapsuleObstacle@ObstacleContext@Cct@physx@@@8 00000001800283c0     CctObstacleContext.obj
 0003:00000410       ??_R0?AUInternalBoxObstacle@ObstacleContext@Cct@physx@@@8 0000000180028410     CctObstacleContext.obj
 0003:00000458       ??_R0?AVPxTransform@physx@@@8 0000000180028458     PhysX3Extensions:ExtRigidBodyExt.obj
 0003:00000480       ??_R0?AVPxMassProperties@physx@@@8 0000000180028480     PhysX3Extensions:ExtRigidBodyExt.obj
 0003:000004b0       ??_R0PEAVPxShape@physx@@@8 00000001800284b0     PhysX3Extensions:ExtRigidBodyExt.obj
 0003:000004d8       ??_R0?AVtype_info@@@8      00000001800284d8     MSVCRT:std_type_info_static.obj
 0003:00000560       ?__type_info_root_node@@3U__type_info_node@@A 0000000180028560     MSVCRT:tncleanup.obj
 0003:00000578       __scrt_current_native_startup_state 0000000180028578     MSVCRT:utility.obj
 0003:00000580       __scrt_native_startup_lock 0000000180028580     MSVCRT:utility.obj
 0003:000005c0       ?_OptionsStorage@?1??__local_stdio_printf_options@@9@4_KA 00000001800285c0     MSVCRT:default_local_stdio_options.obj
 0003:000005c8       ?_OptionsStorage@?1??__local_stdio_scanf_options@@9@4_KA 00000001800285c8     MSVCRT:default_local_stdio_options.obj
 0003:000005d0       __scrt_debugger_hook_flag  00000001800285d0     MSVCRT:utility_desktop.obj
 0003:000005d4       __favor                    00000001800285d4     MSVCRT:_cpu_disp_.obj
 0003:000005d8       __dyn_tls_init_callback    00000001800285d8     <common>

 entry point at        0001:0001ff48

 Static symbols

 0002:fffde000       $chain$1$?allocate@?$ReflectionAllocator@PEBX@shdfnd@physx@@QEAAPEAX_KPEBDH@Z 0000000180000000     CctCharacterControllerManager.obj
 0000:fffd2000       .debug$S                   0000000180000000     ucrt:api-ms-win-crt-heap-l1-1-0.dll
 0002:fffde000       $unwind$?allocate@?$ReflectionAllocator@PEBX@shdfnd@physx@@QEAAPEAX_KPEBDH@Z 0000000180000000     CctCharacterControllerManager.obj
 0000:fffd2000       .debug$S                   0000000180000000     PhysX3CharacterKinematic_x64.exp
 0002:fffde000       $unwind$??_H@YAXPEAX_K1P6APEAX0@Z@Z 0000000180000000     CctCapsuleController.obj
 0004:fffd7000       $pdata$??_H@YAXPEAX_K1P6APEAX0@Z@Z 0000000180000000     CctCapsuleController.obj
 0002:fffde000       $unwind$??_I@YAXPEAX_K1P6AX0@Z@Z 0000000180000000     CctCapsuleController.obj
 0004:fffd7000       $pdata$??_I@YAXPEAX_K1P6AX0@Z@Z 0000000180000000     CctCapsuleController.obj
 0002:fffde000       $unwind$??_GPxController@physx@@MEAAPEAXI@Z 0000000180000000     CctCapsuleController.obj
 0004:fffd7000       $pdata$??_GPxController@physx@@MEAAPEAXI@Z 0000000180000000     CctCapsuleController.obj
 0002:fffde000       $unwind$??_GPxControllerManager@physx@@MEAAPEAXI@Z 0000000180000000     CctCapsuleController.obj
 0004:fffd7000       $pdata$??_GPxControllerManager@physx@@MEAAPEAXI@Z 0000000180000000     CctCapsuleController.obj
 0002:fffde000       $unwind$??_EPxControllerManager@physx@@MEAAPEAXI@Z 0000000180000000     CctCapsuleController.obj
 0004:fffd7000       $pdata$??_EPxControllerManager@physx@@MEAAPEAXI@Z 0000000180000000     CctCapsuleController.obj
 0002:fffde000       $chain$0$??_EPxControllerManager@physx@@MEAAPEAXI@Z 0000000180000000     CctCapsuleController.obj
 0004:fffd7000       $pdata$0$??_EPxControllerManager@physx@@MEAAPEAXI@Z 0000000180000000     CctCapsuleController.obj
 0002:fffde000       $chain$1$??_EPxControllerManager@physx@@MEAAPEAXI@Z 0000000180000000     CctCapsuleController.obj
 0004:fffd7000       $pdata$1$??_EPxControllerManager@physx@@MEAAPEAXI@Z 0000000180000000     CctCapsuleController.obj
 0002:fffde000       $unwind$??_GPxFoundation@physx@@MEAAPEAXI@Z 0000000180000000     CctCapsuleController.obj
 0004:fffd7000       $pdata$??_GPxFoundation@physx@@MEAAPEAXI@Z 0000000180000000     CctCapsuleController.obj
 0002:fffde000       $unwind$??_EPxFoundation@physx@@MEAAPEAXI@Z 0000000180000000     CctCapsuleController.obj
 0004:fffd7000       $pdata$??_EPxFoundation@physx@@MEAAPEAXI@Z 0000000180000000     CctCapsuleController.obj
 0002:fffde000       $chain$0$??_EPxFoundation@physx@@MEAAPEAXI@Z 0000000180000000     CctCapsuleController.obj
 0004:fffd7000       $pdata$0$??_EPxFoundation@physx@@MEAAPEAXI@Z 0000000180000000     CctCapsuleController.obj
 0002:fffde000       $chain$1$??_EPxFoundation@physx@@MEAAPEAXI@Z 0000000180000000     CctCapsuleController.obj
 0004:fffd7000       $pdata$1$??_EPxFoundation@physx@@MEAAPEAXI@Z 0000000180000000     CctCapsuleController.obj
 0004:fffd7000       $pdata$?allocate@?$ReflectionAllocator@PEBX@shdfnd@physx@@QEAAPEAX_KPEBDH@Z 0000000180000000     CctCharacterControllerManager.obj
 0002:fffde000       $chain$0$?allocate@?$ReflectionAllocator@PEBX@shdfnd@physx@@QEAAPEAX_KPEBDH@Z 0000000180000000     CctCharacterControllerManager.obj
 0004:fffd7000       $pdata$0$?allocate@?$ReflectionAllocator@PEBX@shdfnd@physx@@QEAAPEAX_KPEBDH@Z 0000000180000000     CctCharacterControllerManager.obj
 0004:fffd7000       $pdata$1$?allocate@?$ReflectionAllocator@PEBX@shdfnd@physx@@QEAAPEAX_KPEBDH@Z 0000000180000000     CctCharacterControllerManager.obj
 0002:fffde000       $unwind$?allocate@?$ReflectionAllocator@VPxExtendedBox@physx@@@shdfnd@physx@@QEAAPEAX_KPEBDH@Z 0000000180000000     CctCharacterControllerManager.obj
 0004:fffd7000       $pdata$?allocate@?$ReflectionAllocator@VPxExtendedBox@physx@@@shdfnd@physx@@QEAAPEAX_KPEBDH@Z 0000000180000000     CctCharacterControllerManager.obj
 0002:fffde000       $chain$0$?allocate@?$ReflectionAllocator@VPxExtendedBox@physx@@@shdfnd@physx@@QEAAPEAX_KPEBDH@Z 0000000180000000     CctCharacterControllerManager.obj
 0000:fffd2000       .debug$S                   0000000180000000     PxFoundation_x64:PxFoundation_x64.dll
 0004:fffd7000       $pdata$0$?allocate@?$ReflectionAllocator@VPxExtendedBox@physx@@@shdfnd@physx@@QEAAPEAX_KPEBDH@Z 0000000180000000     CctCharacterControllerManager.obj
 0000:fffd2000       .debug$S                   0000000180000000     PxFoundation_x64:PxFoundation_x64.dll
 0002:fffde000       $chain$1$?allocate@?$ReflectionAllocator@VPxExtendedBox@physx@@@shdfnd@physx@@QEAAPEAX_KPEBDH@Z 0000000180000000     CctCharacterControllerManager.obj
 0000:fffd2000       .debug$S                   0000000180000000     PxFoundation_x64:PxFoundation_x64.dll
 0004:fffd7000       $pdata$1$?allocate@?$ReflectionAllocator@VPxExtendedBox@physx@@@shdfnd@physx@@QEAAPEAX_KPEBDH@Z 0000000180000000     CctCharacterControllerManager.obj
 0000:fffd2000       .debug$S                   0000000180000000     PxFoundation_x64:PxFoundation_x64.dll
 0000:fffd2000       .debug$S                   0000000180000000     ucrt:api-ms-win-crt-math-l1-1-0.dll
 0002:fffde000       $unwind$??_H@YAXPEAX_K1P6APEAX0@Z@Z 0000000180000000     CctSweptCapsule.obj
 0004:fffd7000       $pdata$??_H@YAXPEAX_K1P6APEAX0@Z@Z 0000000180000000     CctSweptCapsule.obj
 0002:fffde000       $unwind$??_I@YAXPEAX_K1P6AX0@Z@Z 0000000180000000     CctSweptCapsule.obj
 0004:fffd7000       $pdata$??_I@YAXPEAX_K1P6AX0@Z@Z 0000000180000000     CctSweptCapsule.obj
 0002:fffde000       $unwind$?allocate@?$ReflectionAllocator@UPxExtendedCapsule@physx@@@shdfnd@physx@@QEAAPEAX_KPEBDH@Z 0000000180000000     CctCharacterControllerManager.obj
 0000:fffd2000       .debug$S                   0000000180000000     PxFoundation_x64:PxFoundation_x64.dll
 0004:fffd7000       $pdata$?allocate@?$ReflectionAllocator@UPxExtendedCapsule@physx@@@shdfnd@physx@@QEAAPEAX_KPEBDH@Z 0000000180000000     CctCharacterControllerManager.obj
 0000:fffd2000       .debug$S                   0000000180000000     ucrt:api-ms-win-crt-runtime-l1-1-0.dll
 0000:fffd2000       .debug$S                   0000000180000000     PxFoundation_x64:PxFoundation_x64.dll
 0000:fffd2000       .debug$S                   0000000180000000     ucrt:api-ms-win-crt-runtime-l1-1-0.dll
 0002:fffde000       $unwind$??_GPxControllerManager@physx@@MEAAPEAXI@Z 0000000180000000     CctSweptCapsule.obj
 0004:fffd7000       $pdata$??_GPxControllerManager@physx@@MEAAPEAXI@Z 0000000180000000     CctSweptCapsule.obj
 0002:fffde000       $unwind$??_EPxControllerManager@physx@@MEAAPEAXI@Z 0000000180000000     CctSweptCapsule.obj
 0004:fffd7000       $pdata$??_EPxControllerManager@physx@@MEAAPEAXI@Z 0000000180000000     CctSweptCapsule.obj
 0002:fffde000       $chain$0$??_EPxControllerManager@physx@@MEAAPEAXI@Z 0000000180000000     CctSweptCapsule.obj
 0004:fffd7000       $pdata$0$??_EPxControllerManager@physx@@MEAAPEAXI@Z 0000000180000000     CctSweptCapsule.obj
 0002:fffde000       $chain$1$??_EPxControllerManager@physx@@MEAAPEAXI@Z 0000000180000000     CctSweptCapsule.obj
 0004:fffd7000       $pdata$1$??_EPxControllerManager@physx@@MEAAPEAXI@Z 0000000180000000     CctSweptCapsule.obj
 0002:fffde000       $unwind$??_GPxFoundation@physx@@MEAAPEAXI@Z 0000000180000000     CctSweptCapsule.obj
 0004:fffd7000       $pdata$??_GPxFoundation@physx@@MEAAPEAXI@Z 0000000180000000     CctSweptCapsule.obj
 0002:fffde000       $unwind$??_EPxFoundation@physx@@MEAAPEAXI@Z 0000000180000000     CctSweptCapsule.obj
 0004:fffd7000       $pdata$??_EPxFoundation@physx@@MEAAPEAXI@Z 0000000180000000     CctSweptCapsule.obj
 0002:fffde000       $chain$0$??_EPxFoundation@physx@@MEAAPEAXI@Z 0000000180000000     CctSweptCapsule.obj
 0004:fffd7000       $pdata$0$??_EPxFoundation@physx@@MEAAPEAXI@Z 0000000180000000     CctSweptCapsule.obj
 0002:fffde000       $chain$1$??_EPxFoundation@physx@@MEAAPEAXI@Z 0000000180000000     CctSweptCapsule.obj
 0004:fffd7000       $pdata$1$??_EPxFoundation@physx@@MEAAPEAXI@Z 0000000180000000     CctSweptCapsule.obj
 0002:fffde000       $unwind$??_H@YAXPEAX_K1P6APEAX0@Z@Z 0000000180000000     CctSweptBox.obj
 0004:fffd7000       $pdata$??_H@YAXPEAX_K1P6APEAX0@Z@Z 0000000180000000     CctSweptBox.obj
 0002:fffde000       $unwind$??_I@YAXPEAX_K1P6AX0@Z@Z 0000000180000000     CctSweptBox.obj
 0004:fffd7000       $pdata$??_I@YAXPEAX_K1P6AX0@Z@Z 0000000180000000     CctSweptBox.obj
 0002:fffde000       $chain$0$?allocate@?$ReflectionAllocator@UPxExtendedCapsule@physx@@@shdfnd@physx@@QEAAPEAX_KPEBDH@Z 0000000180000000     CctCharacterControllerManager.obj
 0000:fffd2000       .debug$S                   0000000180000000     ucrt:api-ms-win-crt-runtime-l1-1-0.dll
 0000:fffd2000       .debug$S                   0000000180000000     PxFoundation_x64:PxFoundation_x64.dll
 0000:fffd2000       .debug$S                   0000000180000000     ucrt:api-ms-win-crt-runtime-l1-1-0.dll
 0004:fffd7000       $pdata$0$?allocate@?$ReflectionAllocator@UPxExtendedCapsule@physx@@@shdfnd@physx@@QEAAPEAX_KPEBDH@Z 0000000180000000     CctCharacterControllerManager.obj
 0000:fffd2000       .debug$S                   0000000180000000     ucrt:api-ms-win-crt-runtime-l1-1-0.dll
 0002:fffde000       $unwind$??_GPxControllerManager@physx@@MEAAPEAXI@Z 0000000180000000     CctSweptBox.obj
 0004:fffd7000       $pdata$??_GPxControllerManager@physx@@MEAAPEAXI@Z 0000000180000000     CctSweptBox.obj
 0002:fffde000       $unwind$??_EPxControllerManager@physx@@MEAAPEAXI@Z 0000000180000000     CctSweptBox.obj
 0004:fffd7000       $pdata$??_EPxControllerManager@physx@@MEAAPEAXI@Z 0000000180000000     CctSweptBox.obj
 0002:fffde000       $chain$0$??_EPxControllerManager@physx@@MEAAPEAXI@Z 0000000180000000     CctSweptBox.obj
 0004:fffd7000       $pdata$0$??_EPxControllerManager@physx@@MEAAPEAXI@Z 0000000180000000     CctSweptBox.obj
 0002:fffde000       $chain$1$??_EPxControllerManager@physx@@MEAAPEAXI@Z 0000000180000000     CctSweptBox.obj
 0004:fffd7000       $pdata$1$??_EPxControllerManager@physx@@MEAAPEAXI@Z 0000000180000000     CctSweptBox.obj
 0002:fffde000       $unwind$??_GPxFoundation@physx@@MEAAPEAXI@Z 0000000180000000     CctSweptBox.obj
 0004:fffd7000       $pdata$??_GPxFoundation@physx@@MEAAPEAXI@Z 0000000180000000     CctSweptBox.obj
 0002:fffde000       $unwind$??_EPxFoundation@physx@@MEAAPEAXI@Z 0000000180000000     CctSweptBox.obj
 0004:fffd7000       $pdata$??_EPxFoundation@physx@@MEAAPEAXI@Z 0000000180000000     CctSweptBox.obj
 0002:fffde000       $chain$0$??_EPxFoundation@physx@@MEAAPEAXI@Z 0000000180000000     CctSweptBox.obj
 0004:fffd7000       $pdata$0$??_EPxFoundation@physx@@MEAAPEAXI@Z 0000000180000000     CctSweptBox.obj
 0002:fffde000       $chain$1$??_EPxFoundation@physx@@MEAAPEAXI@Z 0000000180000000     CctSweptBox.obj
 0004:fffd7000       $pdata$1$??_EPxFoundation@physx@@MEAAPEAXI@Z 0000000180000000     CctSweptBox.obj
 0002:fffde000       $unwind$??_I@YAXPEAX_K1P6AX0@Z@Z 0000000180000000     CctObstacleContext.obj
 0004:fffd7000       $pdata$??_I@YAXPEAX_K1P6AX0@Z@Z 0000000180000000     CctObstacleContext.obj
 0000:fffd2000       .debug$S                   0000000180000000     PxFoundation_x64:PxFoundation_x64.dll
 0000:fffd2000       .debug$S                   0000000180000000     ucrt:api-ms-win-crt-runtime-l1-1-0.dll
 0002:fffde000       $unwind$??_GPxFoundation@physx@@MEAAPEAXI@Z 0000000180000000     CctObstacleContext.obj
 0004:fffd7000       $pdata$??_GPxFoundation@physx@@MEAAPEAXI@Z 0000000180000000     CctObstacleContext.obj
 0002:fffde000       $unwind$??_EPxFoundation@physx@@MEAAPEAXI@Z 0000000180000000     CctObstacleContext.obj
 0004:fffd7000       $pdata$??_EPxFoundation@physx@@MEAAPEAXI@Z 0000000180000000     CctObstacleContext.obj
 0002:fffde000       $chain$0$??_EPxFoundation@physx@@MEAAPEAXI@Z 0000000180000000     CctObstacleContext.obj
 0004:fffd7000       $pdata$0$??_EPxFoundation@physx@@MEAAPEAXI@Z 0000000180000000     CctObstacleContext.obj
 0002:fffde000       $chain$1$??_EPxFoundation@physx@@MEAAPEAXI@Z 0000000180000000     CctObstacleContext.obj
 0004:fffd7000       $pdata$1$??_EPxFoundation@physx@@MEAAPEAXI@Z 0000000180000000     CctObstacleContext.obj
 0002:fffde000       $chain$1$?allocate@?$ReflectionAllocator@UPxExtendedCapsule@physx@@@shdfnd@physx@@QEAAPEAX_KPEBDH@Z 0000000180000000     CctCharacterControllerManager.obj
 0000:fffd2000       .debug$S                   0000000180000000     ucrt:api-ms-win-crt-runtime-l1-1-0.dll
 0000:fffd2000       .debug$S                   0000000180000000     PxFoundation_x64:PxFoundation_x64.dll
 0000:fffd2000       .debug$S                   0000000180000000     ucrt:api-ms-win-crt-runtime-l1-1-0.dll
 0004:fffd7000       $pdata$1$?allocate@?$ReflectionAllocator@UPxExtendedCapsule@physx@@@shdfnd@physx@@QEAAPEAX_KPEBDH@Z 0000000180000000     CctCharacterControllerManager.obj
 0000:fffd2000       .debug$S                   0000000180000000     ucrt:api-ms-win-crt-runtime-l1-1-0.dll
 0000:fffd2000       .debug$S                   0000000180000000     PxFoundation_x64:PxFoundation_x64.dll
 0000:fffd2000       .debug$S                   0000000180000000     ucrt:api-ms-win-crt-runtime-l1-1-0.dll
 0000:fffd2000       .debug$S                   0000000180000000     PxFoundation_x64:PxFoundation_x64.dll
 0000:fffd2000       .debug$S                   0000000180000000     ucrt:api-ms-win-crt-runtime-l1-1-0.dll
 0000:fffd2000       .debug$S                   0000000180000000     PxFoundation_x64:PxFoundation_x64.dll
 0000:fffd2000       .debug$S                   0000000180000000     ucrt:api-ms-win-crt-runtime-l1-1-0.dll
 0000:fffd2000       .debug$S                   0000000180000000     PxFoundation_x64:PxFoundation_x64.dll
 0000:fffd2000       .debug$S                   0000000180000000     PhysX3Common_x64:PhysX3Common_x64.dll
 0000:fffd2000       .debug$S                   0000000180000000     PhysX3Common_x64:PhysX3Common_x64.dll
 0000:fffd2000       .debug$S                   0000000180000000     vcruntime:VCRUNTIME140.dll
 0000:fffd2000       .debug$S                   0000000180000000     PhysX3Common_x64:PhysX3Common_x64.dll
 0000:fffd2000       .debug$S                   0000000180000000     vcruntime:VCRUNTIME140.dll
 0000:fffd2000       .debug$S                   0000000180000000     PhysX3Common_x64:PhysX3Common_x64.dll
 0000:fffd2000       .debug$S                   0000000180000000     vcruntime:VCRUNTIME140.dll
 0000:fffd2000       .debug$S                   0000000180000000     PhysX3Common_x64:PhysX3Common_x64.dll
 0000:fffd2000       .debug$S                   0000000180000000     vcruntime:VCRUNTIME140.dll
 0000:fffd2000       .debug$S                   0000000180000000     PhysX3Common_x64:PhysX3Common_x64.dll
 0000:fffd2000       .debug$S                   0000000180000000     vcruntime:VCRUNTIME140.dll
 0000:fffd2000       .debug$S                   0000000180000000     PhysX3Common_x64:PhysX3Common_x64.dll
 0000:fffd2000       .debug$S                   0000000180000000     vcruntime:VCRUNTIME140.dll
 0000:fffd2000       .debug$S                   0000000180000000     kernel32:KERNEL32.dll
 0000:fffd2000       .debug$S                   0000000180000000     kernel32:KERNEL32.dll
 0000:fffd2000       .debug$S                   0000000180000000     kernel32:KERNEL32.dll
 0000:fffd2000       .debug$S                   0000000180000000     kernel32:KERNEL32.dll
 0000:fffd2000       .debug$S                   0000000180000000     kernel32:KERNEL32.dll
 0000:fffd2000       .debug$S                   0000000180000000     kernel32:KERNEL32.dll
 0000:fffd2000       .debug$S                   0000000180000000     kernel32:KERNEL32.dll
 0000:fffd2000       .debug$S                   0000000180000000     kernel32:KERNEL32.dll
 0000:fffd2000       .debug$S                   0000000180000000     kernel32:KERNEL32.dll
 0000:fffd2000       .debug$S                   0000000180000000     kernel32:KERNEL32.dll
 0000:fffd2000       .debug$S                   0000000180000000     kernel32:KERNEL32.dll
 0000:fffd2000       .debug$S                   0000000180000000     kernel32:KERNEL32.dll
 0000:fffd2000       .debug$S                   0000000180000000     kernel32:KERNEL32.dll
 0000:fffd2000       .debug$S                   0000000180000000     kernel32:KERNEL32.dll
 0000:fffd2000       .debug$S                   0000000180000000     kernel32:KERNEL32.dll
 0000:fffd2000       .debug$S                   0000000180000000     PhysX3Common_x64:PhysX3Common_x64.dll
 0000:fffd2000       .debug$S                   0000000180000000     PhysX3Common_x64:PhysX3Common_x64.dll
 0004:fffd7000       $pdata$1$??_EPxControllerManager@physx@@MEAAPEAXI@Z 0000000180000000     CctCharacterController.obj
 0002:fffde000       $chain$1$??_EPxControllerManager@physx@@MEAAPEAXI@Z 0000000180000000     CctCharacterController.obj
 0004:fffd7000       $pdata$0$??_EPxControllerManager@physx@@MEAAPEAXI@Z 0000000180000000     CctCharacterController.obj
 0002:fffde000       $chain$0$??_EPxControllerManager@physx@@MEAAPEAXI@Z 0000000180000000     CctCharacterController.obj
 0004:fffd7000       $pdata$??_EPxControllerManager@physx@@MEAAPEAXI@Z 0000000180000000     CctCharacterController.obj
 0002:fffde000       $unwind$??_EPxControllerManager@physx@@MEAAPEAXI@Z 0000000180000000     CctCharacterController.obj
 0004:fffd7000       $pdata$??_GPxControllerManager@physx@@MEAAPEAXI@Z 0000000180000000     CctCharacterController.obj
 0002:fffde000       $unwind$??_GPxControllerManager@physx@@MEAAPEAXI@Z 0000000180000000     CctCharacterController.obj
 0000:fffd2000       .debug$S                   0000000180000000     PhysX3Common_x64:PhysX3Common_x64.dll
 0000:fffd2000       .debug$S                   0000000180000000     PhysX3Common_x64:PhysX3Common_x64.dll
 0000:fffd2000       .debug$S                   0000000180000000     PhysX3Common_x64:PhysX3Common_x64.dll
 0000:fffd2000       .debug$S                   0000000180000000     PhysX3Common_x64:PhysX3Common_x64.dll
 0004:fffd7000       $pdata$1$??_EPxFoundation@physx@@MEAAPEAXI@Z 0000000180000000     CctCharacterController.obj
 0002:fffde000       $chain$1$??_EPxFoundation@physx@@MEAAPEAXI@Z 0000000180000000     CctCharacterController.obj
 0004:fffd7000       $pdata$0$??_EPxFoundation@physx@@MEAAPEAXI@Z 0000000180000000     CctCharacterController.obj
 0002:fffde000       $chain$0$??_EPxFoundation@physx@@MEAAPEAXI@Z 0000000180000000     CctCharacterController.obj
 0004:fffd7000       $pdata$??_EPxFoundation@physx@@MEAAPEAXI@Z 0000000180000000     CctCharacterController.obj
 0002:fffde000       $unwind$??_EPxFoundation@physx@@MEAAPEAXI@Z 0000000180000000     CctCharacterController.obj
 0004:fffd7000       $pdata$??_GPxFoundation@physx@@MEAAPEAXI@Z 0000000180000000     CctCharacterController.obj
 0002:fffde000       $unwind$??_GPxFoundation@physx@@MEAAPEAXI@Z 0000000180000000     CctCharacterController.obj
 0004:fffd7000       $pdata$??_I@YAXPEAX_K1P6AX0@Z@Z 0000000180000000     CctCharacterController.obj
 0002:fffde000       $unwind$??_I@YAXPEAX_K1P6AX0@Z@Z 0000000180000000     CctCharacterController.obj
 0004:fffd7000       $pdata$??_H@YAXPEAX_K1P6APEAX0@Z@Z 0000000180000000     CctCharacterController.obj
 0002:fffde000       $unwind$??_H@YAXPEAX_K1P6APEAX0@Z@Z 0000000180000000     CctCharacterController.obj
 0002:fffde000       $unwind$??_H@YAXPEAX_K1P6APEAX0@Z@Z 0000000180000000     CctCharacterControllerCallbacks.obj
 0000:fffd2000       .debug$S                   0000000180000000     PhysX3Common_x64:PhysX3Common_x64.dll
 0004:fffd7000       $pdata$??_H@YAXPEAX_K1P6APEAX0@Z@Z 0000000180000000     CctCharacterControllerCallbacks.obj
 0000:fffd2000       .debug$S                   0000000180000000     PhysX3Common_x64:PhysX3Common_x64.dll
 0002:fffde000       $unwind$??_I@YAXPEAX_K1P6AX0@Z@Z 0000000180000000     CctCharacterControllerCallbacks.obj
 0000:fffd2000       .debug$S                   0000000180000000     PhysX3Common_x64:PhysX3Common_x64.dll
 0004:fffd7000       $pdata$??_I@YAXPEAX_K1P6AX0@Z@Z 0000000180000000     CctCharacterControllerCallbacks.obj
 0002:fffde000       $unwind$??_GPxControllerManager@physx@@MEAAPEAXI@Z 0000000180000000     CctObstacleContext.obj
 0004:fffd7000       $pdata$??_GPxControllerManager@physx@@MEAAPEAXI@Z 0000000180000000     CctObstacleContext.obj
 0002:fffde000       $unwind$??_EPxControllerManager@physx@@MEAAPEAXI@Z 0000000180000000     CctObstacleContext.obj
 0004:fffd7000       $pdata$??_EPxControllerManager@physx@@MEAAPEAXI@Z 0000000180000000     CctObstacleContext.obj
 0002:fffde000       $chain$0$??_EPxControllerManager@physx@@MEAAPEAXI@Z 0000000180000000     CctObstacleContext.obj
 0004:fffd7000       $pdata$0$??_EPxControllerManager@physx@@MEAAPEAXI@Z 0000000180000000     CctObstacleContext.obj
 0002:fffde000       $chain$1$??_EPxControllerManager@physx@@MEAAPEAXI@Z 0000000180000000     CctObstacleContext.obj
 0004:fffd7000       $pdata$1$??_EPxControllerManager@physx@@MEAAPEAXI@Z 0000000180000000     CctObstacleContext.obj
 0002:fffde000       $unwind$??_H@YAXPEAX_K1P6APEAX0@Z@Z 0000000180000000     CctController.obj
 0004:fffd7000       $pdata$??_H@YAXPEAX_K1P6APEAX0@Z@Z 0000000180000000     CctController.obj
 0002:fffde000       $unwind$??_I@YAXPEAX_K1P6AX0@Z@Z 0000000180000000     CctController.obj
 0004:fffd7000       $pdata$??_I@YAXPEAX_K1P6AX0@Z@Z 0000000180000000     CctController.obj
 0002:fffde000       $unwind$??_GPxControllerManager@physx@@MEAAPEAXI@Z 0000000180000000     CctController.obj
 0004:fffd7000       $pdata$??_GPxControllerManager@physx@@MEAAPEAXI@Z 0000000180000000     CctController.obj
 0002:fffde000       $unwind$??_EPxControllerManager@physx@@MEAAPEAXI@Z 0000000180000000     CctController.obj
 0004:fffd7000       $pdata$??_EPxControllerManager@physx@@MEAAPEAXI@Z 0000000180000000     CctController.obj
 0002:fffde000       $chain$0$??_EPxControllerManager@physx@@MEAAPEAXI@Z 0000000180000000     CctController.obj
 0004:fffd7000       $pdata$0$??_EPxControllerManager@physx@@MEAAPEAXI@Z 0000000180000000     CctController.obj
 0002:fffde000       $chain$1$??_EPxControllerManager@physx@@MEAAPEAXI@Z 0000000180000000     CctController.obj
 0004:fffd7000       $pdata$1$??_EPxControllerManager@physx@@MEAAPEAXI@Z 0000000180000000     CctController.obj
 0002:fffde000       $unwind$??_GPxFoundation@physx@@MEAAPEAXI@Z 0000000180000000     CctController.obj
 0004:fffd7000       $pdata$??_GPxFoundation@physx@@MEAAPEAXI@Z 0000000180000000     CctController.obj
 0002:fffde000       $unwind$??_EPxFoundation@physx@@MEAAPEAXI@Z 0000000180000000     CctController.obj
 0004:fffd7000       $pdata$??_EPxFoundation@physx@@MEAAPEAXI@Z 0000000180000000     CctController.obj
 0002:fffde000       $chain$0$??_EPxFoundation@physx@@MEAAPEAXI@Z 0000000180000000     CctController.obj
 0004:fffd7000       $pdata$0$??_EPxFoundation@physx@@MEAAPEAXI@Z 0000000180000000     CctController.obj
 0002:fffde000       $chain$1$??_EPxFoundation@physx@@MEAAPEAXI@Z 0000000180000000     CctController.obj
 0004:fffd7000       $pdata$1$??_EPxFoundation@physx@@MEAAPEAXI@Z 0000000180000000     CctController.obj
 0000:fffd2000       .debug$S                   0000000180000000     PhysX3Common_x64:PhysX3Common_x64.dll
 0002:fffde000       $unwind$??_GPxFoundation@physx@@MEAAPEAXI@Z 0000000180000000     CctCharacterControllerCallbacks.obj
 0000:fffd2000       .debug$S                   0000000180000000     PhysX3Common_x64:PhysX3Common_x64.dll
 0004:fffd7000       $pdata$??_GPxFoundation@physx@@MEAAPEAXI@Z 0000000180000000     CctCharacterControllerCallbacks.obj
 0000:fffd2000       .debug$S                   0000000180000000     PhysX3Common_x64:PhysX3Common_x64.dll
 0002:fffde000       $unwind$??_EPxFoundation@physx@@MEAAPEAXI@Z 0000000180000000     CctCharacterControllerCallbacks.obj
 0000:fffd2000       .debug$S                   0000000180000000     PhysX3Common_x64:PhysX3Common_x64.dll
 0004:fffd7000       $pdata$??_EPxFoundation@physx@@MEAAPEAXI@Z 0000000180000000     CctCharacterControllerCallbacks.obj
 0000:fffd2000       .debug$S                   0000000180000000     PhysX3Common_x64:PhysX3Common_x64.dll
 0002:fffde000       $chain$0$??_EPxFoundation@physx@@MEAAPEAXI@Z 0000000180000000     CctCharacterControllerCallbacks.obj
 0004:fffd7000       $pdata$0$??_EPxFoundation@physx@@MEAAPEAXI@Z 0000000180000000     CctCharacterControllerCallbacks.obj
 0002:fffde000       $chain$1$??_EPxFoundation@physx@@MEAAPEAXI@Z 0000000180000000     CctCharacterControllerCallbacks.obj
 0004:fffd7000       $pdata$1$??_EPxFoundation@physx@@MEAAPEAXI@Z 0000000180000000     CctCharacterControllerCallbacks.obj
 0002:fffde000       $unwind$??DPxQuat@physx@@QEBA?AV01@AEBV01@@Z 0000000180000000     CctCharacterControllerCallbacks.obj
 0004:fffd7000       $pdata$??DPxQuat@physx@@QEBA?AV01@AEBV01@@Z 0000000180000000     CctCharacterControllerCallbacks.obj
 0002:fffde000       $unwind$??_GPxControllerManager@physx@@MEAAPEAXI@Z 0000000180000000     CctCharacterControllerCallbacks.obj
 0004:fffd7000       $pdata$??_GPxControllerManager@physx@@MEAAPEAXI@Z 0000000180000000     CctCharacterControllerCallbacks.obj
 0002:fffde000       $unwind$??_EPxControllerManager@physx@@MEAAPEAXI@Z 0000000180000000     CctCharacterControllerCallbacks.obj
 0004:fffd7000       $pdata$??_EPxControllerManager@physx@@MEAAPEAXI@Z 0000000180000000     CctCharacterControllerCallbacks.obj
 0002:fffde000       $chain$0$??_EPxControllerManager@physx@@MEAAPEAXI@Z 0000000180000000     CctCharacterControllerCallbacks.obj
 0004:fffd7000       $pdata$0$??_EPxControllerManager@physx@@MEAAPEAXI@Z 0000000180000000     CctCharacterControllerCallbacks.obj
 0002:fffde000       $chain$1$??_EPxControllerManager@physx@@MEAAPEAXI@Z 0000000180000000     CctCharacterControllerCallbacks.obj
 0004:fffd7000       $pdata$1$??_EPxControllerManager@physx@@MEAAPEAXI@Z 0000000180000000     CctCharacterControllerCallbacks.obj
 0002:fffde000       $unwind$?getGlobalPose@PxShapeExt@physx@@SA?AVPxTransform@2@AEBVPxShape@2@AEBVPxRigidActor@2@@Z 0000000180000000     CctCharacterControllerCallbacks.obj
 0002:fffde000       $unwind$??_H@YAXPEAX_K1P6APEAX0@Z@Z 0000000180000000     CctCharacterControllerManager.obj
 0004:fffd7000       $pdata$??_H@YAXPEAX_K1P6APEAX0@Z@Z 0000000180000000     CctCharacterControllerManager.obj
 0002:fffde000       $unwind$??_I@YAXPEAX_K1P6AX0@Z@Z 0000000180000000     CctCharacterControllerManager.obj
 0004:fffd7000       $pdata$??_I@YAXPEAX_K1P6AX0@Z@Z 0000000180000000     CctCharacterControllerManager.obj
 0004:fffd7000       $pdata$?getGlobalPose@PxShapeExt@physx@@SA?AVPxTransform@2@AEBVPxShape@2@AEBVPxRigidActor@2@@Z 0000000180000000     CctCharacterControllerCallbacks.obj
 0004:fffd7000       $pdata$?getGlobalPose@PxShapeExt@physx@@SA?AVPxTransform@2@AEBVPxShape@2@AEBVPxRigidActor@2@@Z 0000000180000000     PhysX3Extensions:ExtRigidBodyExt.obj
 0002:fffde000       $unwind$??_GPxControllerManager@physx@@MEAAPEAXI@Z 0000000180000000     CctCharacterControllerManager.obj
 0004:fffd7000       $pdata$??_GPxControllerManager@physx@@MEAAPEAXI@Z 0000000180000000     CctCharacterControllerManager.obj
 0002:fffde000       $unwind$??_EPxControllerManager@physx@@MEAAPEAXI@Z 0000000180000000     CctCharacterControllerManager.obj
 0004:fffd7000       $pdata$??_EPxControllerManager@physx@@MEAAPEAXI@Z 0000000180000000     CctCharacterControllerManager.obj
 0002:fffde000       $chain$0$??_EPxControllerManager@physx@@MEAAPEAXI@Z 0000000180000000     CctCharacterControllerManager.obj
 0004:fffd7000       $pdata$0$??_EPxControllerManager@physx@@MEAAPEAXI@Z 0000000180000000     CctCharacterControllerManager.obj
 0002:fffde000       $chain$1$??_EPxControllerManager@physx@@MEAAPEAXI@Z 0000000180000000     CctCharacterControllerManager.obj
 0004:fffd7000       $pdata$1$??_EPxControllerManager@physx@@MEAAPEAXI@Z 0000000180000000     CctCharacterControllerManager.obj
 0002:fffde000       $unwind$??DPxQuat@physx@@QEBA?AV01@AEBV01@@Z 0000000180000000     PhysX3Extensions:ExtRigidBodyExt.obj
 0002:fffde000       $unwind$?getGlobalPose@PxShapeExt@physx@@SA?AVPxTransform@2@AEBVPxShape@2@AEBVPxRigidActor@2@@Z 0000000180000000     PhysX3Extensions:ExtRigidBodyExt.obj
 0004:fffd7000       $pdata$??DPxQuat@physx@@QEBA?AV01@AEBV01@@Z 0000000180000000     PhysX3Extensions:ExtRigidBodyExt.obj
 0002:fffde000       $unwind$?allocate@?$ReflectionAllocator@I@shdfnd@physx@@QEAAPEAX_KPEBDH@Z 0000000180000000     CctCharacterControllerCallbacks.obj
 0002:fffde000       $unwind$??_GPxFoundation@physx@@MEAAPEAXI@Z 0000000180000000     CctCharacterControllerManager.obj
 0004:fffd7000       $pdata$??_GPxFoundation@physx@@MEAAPEAXI@Z 0000000180000000     CctCharacterControllerManager.obj
 0002:fffde000       $unwind$??_EPxFoundation@physx@@MEAAPEAXI@Z 0000000180000000     CctCharacterControllerManager.obj
 0004:fffd7000       $pdata$??_EPxFoundation@physx@@MEAAPEAXI@Z 0000000180000000     CctCharacterControllerManager.obj
 0002:fffde000       $chain$0$??_EPxFoundation@physx@@MEAAPEAXI@Z 0000000180000000     CctCharacterControllerManager.obj
 0004:fffd7000       $pdata$0$??_EPxFoundation@physx@@MEAAPEAXI@Z 0000000180000000     CctCharacterControllerManager.obj
 0002:fffde000       $chain$1$??_EPxFoundation@physx@@MEAAPEAXI@Z 0000000180000000     CctCharacterControllerManager.obj
 0004:fffd7000       $pdata$1$??_EPxFoundation@physx@@MEAAPEAXI@Z 0000000180000000     CctCharacterControllerManager.obj
 0004:fffd7000       $pdata$?recreate@?$Array@IV?$ReflectionAllocator@I@shdfnd@physx@@@shdfnd@physx@@IEAAXI@Z 0000000180000000     CctCharacterControllerCallbacks.obj
 0004:fffd7000       $pdata$?allocate@?$ReflectionAllocator@I@shdfnd@physx@@QEAAPEAX_KPEBDH@Z 0000000180000000     CctCharacterControllerCallbacks.obj
 0002:fffde000       $unwind$?recreate@?$Array@IV?$ReflectionAllocator@I@shdfnd@physx@@@shdfnd@physx@@IEAAXI@Z 0000000180000000     CctCharacterControllerCallbacks.obj
 0002:fffde000       $chain$0$?allocate@?$ReflectionAllocator@I@shdfnd@physx@@QEAAPEAX_KPEBDH@Z 0000000180000000     CctCharacterControllerCallbacks.obj
 0004:fffd7000       $pdata$1$?allocate@?$ReflectionAllocator@I@shdfnd@physx@@QEAAPEAX_KPEBDH@Z 0000000180000000     CctCharacterControllerCallbacks.obj
 0004:fffd7000       $pdata$0$?allocate@?$ReflectionAllocator@I@shdfnd@physx@@QEAAPEAX_KPEBDH@Z 0000000180000000     CctCharacterControllerCallbacks.obj
 0002:fffde000       $chain$1$?allocate@?$ReflectionAllocator@I@shdfnd@physx@@QEAAPEAX_KPEBDH@Z 0000000180000000     CctCharacterControllerCallbacks.obj
 0001:00000000       ??__EmaxFError@_VecMathTests@aos@shdfnd@physx@@YAXXZ 0000000180001000 f   CctCharacterControllerCallbacks.obj
 0001:00000020       ??__EmaxV3Error@_VecMathTests@aos@shdfnd@physx@@YAXXZ 0000000180001020 f   CctCharacterControllerCallbacks.obj
 0001:00000030       ??__EmaxV4Error@_VecMathTests@aos@shdfnd@physx@@YAXXZ 0000000180001030 f   CctCharacterControllerCallbacks.obj
 0001:00000050       ??__EminFError@_VecMathTests@aos@shdfnd@physx@@YAXXZ 0000000180001050 f   CctCharacterControllerCallbacks.obj
 0001:00000070       ??__EminV3Error@_VecMathTests@aos@shdfnd@physx@@YAXXZ 0000000180001070 f   CctCharacterControllerCallbacks.obj
 0001:00000080       ??__EminV4Error@_VecMathTests@aos@shdfnd@physx@@YAXXZ 0000000180001080 f   CctCharacterControllerCallbacks.obj
 0001:000061d0       ?SweepBoxUserBox@@YA_NPEBVSweepTest@Cct@physx@@PEBVSweptVolume@23@PEBUTouchedGeom@23@AEBUPxExtendedVec3@3@AEBVPxVec3@3@AEAUSweptContact@23@@Z 00000001800071d0 f   CctCharacterController.obj
 0001:000063f0       ?SweepBoxUserCapsule@@YA_NPEBVSweepTest@Cct@physx@@PEBVSweptVolume@23@PEBUTouchedGeom@23@AEBUPxExtendedVec3@3@AEBVPxVec3@3@AEAUSweptContact@23@@Z 00000001800073f0 f   CctCharacterController.obj
 0001:000066c0       ?SweepBoxMesh@@YA_NPEBVSweepTest@Cct@physx@@PEBVSweptVolume@23@PEBUTouchedGeom@23@AEBUPxExtendedVec3@3@AEBVPxVec3@3@AEAUSweptContact@23@@Z 00000001800076c0 f   CctCharacterController.obj
 0001:000067d0       ?SweepCapsuleMesh@@YA_NPEBVSweepTest@Cct@physx@@PEBVSweptVolume@23@PEBUTouchedGeom@23@AEBUPxExtendedVec3@3@AEBVPxVec3@3@AEAUSweptContact@23@@Z 00000001800077d0 f   CctCharacterController.obj
 0001:000068e0       ?SweepBoxBox@@YA_NPEBVSweepTest@Cct@physx@@PEBVSweptVolume@23@PEBUTouchedGeom@23@AEBUPxExtendedVec3@3@AEBVPxVec3@3@AEAUSweptContact@23@@Z 00000001800078e0 f   CctCharacterController.obj
 0001:00006ae0       ?SweepBoxSphere@@YA_NPEBVSweepTest@Cct@physx@@PEBVSweptVolume@23@PEBUTouchedGeom@23@AEBUPxExtendedVec3@3@AEBVPxVec3@3@AEAUSweptContact@23@@Z 0000000180007ae0 f   CctCharacterController.obj
 0001:00006ca0       ?SweepBoxCapsule@@YA_NPEBVSweepTest@Cct@physx@@PEBVSweptVolume@23@PEBUTouchedGeom@23@AEBUPxExtendedVec3@3@AEBVPxVec3@3@AEAUSweptContact@23@@Z 0000000180007ca0 f   CctCharacterController.obj
 0001:00006ef0       ?SweepCapsuleBox@@YA_NPEBVSweepTest@Cct@physx@@PEBVSweptVolume@23@PEBUTouchedGeom@23@AEBUPxExtendedVec3@3@AEBVPxVec3@3@AEAUSweptContact@23@@Z 0000000180007ef0 f   CctCharacterController.obj
 0001:000070f0       ?SweepCapsuleSphere@@YA_NPEBVSweepTest@Cct@physx@@PEBVSweptVolume@23@PEBUTouchedGeom@23@AEBUPxExtendedVec3@3@AEBVPxVec3@3@AEAUSweptContact@23@@Z 00000001800080f0 f   CctCharacterController.obj
 0001:000072d0       ?SweepCapsuleCapsule@@YA_NPEBVSweepTest@Cct@physx@@PEBVSweptVolume@23@PEBUTouchedGeom@23@AEBUPxExtendedVec3@3@AEBVPxVec3@3@AEAUSweptContact@23@@Z 00000001800082d0 f   CctCharacterController.obj
 0001:00007520       ?SweepCapsuleUserCapsule@@YA_NPEBVSweepTest@Cct@physx@@PEBVSweptVolume@23@PEBUTouchedGeom@23@AEBUPxExtendedVec3@3@AEBVPxVec3@3@AEAUSweptContact@23@@Z 0000000180008520 f   CctCharacterController.obj
 0001:000077f0       ?SweepCapsuleUserBox@@YA_NPEBVSweepTest@Cct@physx@@PEBVSweptVolume@23@PEBUTouchedGeom@23@AEBUPxExtendedVec3@3@AEBVPxVec3@3@AEAUSweptContact@23@@Z 00000001800087f0 f   CctCharacterController.obj
 0001:000080a0       ?CollideGeoms@@YAPEBUTouchedGeom@Cct@physx@@PEBVSweepTest@23@AEBVSweptVolume@23@AEBV?$Array@IV?$ReflectionAllocator@I@shdfnd@physx@@@shdfnd@3@AEBUPxExtendedVec3@3@AEBVPxVec3@3@AEAUSweptContact@23@_N@Z 00000001800090a0 f   CctCharacterController.obj
 0001:00008590       ?collisionResponse@@YAXAEAUPxExtendedVec3@physx@@AEBU12@AEBVPxVec3@2@2MM_N@Z 0000000180009590 f   CctCharacterController.obj
 0001:00008890       ?computeMTD@@YA?AVPxVec3@physx@@PEBVSweepTest@Cct@2@AEBVSweptVolume@42@AEBV?$Array@IV?$ReflectionAllocator@I@shdfnd@physx@@@shdfnd@2@AEBUPxExtendedVec3@2@M@Z 0000000180009890 f   CctCharacterController.obj
 0001:000091c0       ?localToWorld@@YA?AVPxVec3@physx@@AEBVPxObstacle@2@AEBV12@@Z 000000018000a1c0 f   CctCharacterController.obj
 0001:00009580       ?scale@@YAXAEAUPxExtendedBounds3@physx@@AEBVPxVec3@2@@Z 000000018000a580 f   CctCharacterController.obj
 0001:000096b0       ?sweepVolumeVsMesh@@YA_NPEBVSweepTest@Cct@physx@@PEBUTouchedMesh@23@AEAUSweptContact@23@AEBVPxVec3@3@AEBVPxGeometry@3@AEBVPxTransform@3@IPEBVPxTriangle@3@I@Z 000000018000a6b0 f   CctCharacterController.obj
 0001:00009860       ?worldToLocal@@YA?AVPxVec3@physx@@AEBVPxObstacle@2@AEBUPxExtendedVec3@2@@Z 000000018000a860 f   CctCharacterController.obj
 0001:0000a810       ?createInvisibleWalls@@YAIAEBUCCTParams@Cct@physx@@AEBVPxTriangle@3@AEAVTriArray@23@AEAV?$Array@IV?$ReflectionAllocator@I@shdfnd@physx@@@shdfnd@3@@Z 000000018000b810 f   CctCharacterControllerCallbacks.obj
 0001:0000af70       ?outputBoxToStream@@YAXPEAVPxShape@physx@@PEBVPxRigidActor@2@AEBVPxTransform@2@AEAV?$Array@IV?$ReflectionAllocator@I@shdfnd@physx@@@shdfnd@2@AEAVTriArray@Cct@2@3AEBUPxExtendedVec3@2@AEBVPxBounds3@2@AEBUCCTParams@82@AEAG@Z 000000018000bf70 f   CctCharacterControllerCallbacks.obj
 0001:0000bdb0       ?outputCapsuleToStream@@YAXPEAVPxShape@physx@@PEBVPxRigidActor@2@AEBVPxTransform@2@AEAV?$Array@IV?$ReflectionAllocator@I@shdfnd@physx@@@shdfnd@2@AEBUPxExtendedVec3@2@@Z 000000018000cdb0 f   CctCharacterControllerCallbacks.obj
 0001:0000bfe0       ?outputConvexToStream@@YAXPEAVPxShape@physx@@PEBVPxRigidActor@2@AEBVPxTransform@2@AEAV?$Array@IV?$ReflectionAllocator@I@shdfnd@physx@@@shdfnd@2@AEAVTriArray@Cct@2@3AEBUPxExtendedVec3@2@AEBVPxBounds3@2@AEBUCCTParams@82@PEAVRenderBuffer@Cm@2@AEAG@Z 000000018000cfe0 f   CctCharacterControllerCallbacks.obj
 0001:0000cf50       ?outputHeightFieldToStream@@YAXPEAVPxShape@physx@@PEBVPxRigidActor@2@AEBVPxTransform@2@AEAV?$Array@IV?$ReflectionAllocator@I@shdfnd@physx@@@shdfnd@2@AEAVTriArray@Cct@2@3AEBUPxExtendedVec3@2@AEBVPxBounds3@2@AEBUCCTParams@82@PEAVRenderBuffer@Cm@2@AEAG@Z 000000018000df50 f   CctCharacterControllerCallbacks.obj
 0001:0000d9c0       ?outputMeshToStream@@YAXPEAVPxShape@physx@@PEBVPxRigidActor@2@AEBVPxTransform@2@AEAV?$Array@IV?$ReflectionAllocator@I@shdfnd@physx@@@shdfnd@2@AEAVTriArray@Cct@2@3AEBUPxExtendedVec3@2@AEBVPxBounds3@2@AEBUCCTParams@82@PEAVRenderBuffer@Cm@2@AEAG@Z 000000018000e9c0 f   CctCharacterControllerCallbacks.obj
 0001:0000e430       ?outputPlaneToStream@@YAXPEAVPxShape@physx@@PEBVPxRigidActor@2@AEBVPxTransform@2@AEAV?$Array@IV?$ReflectionAllocator@I@shdfnd@physx@@@shdfnd@2@AEAVTriArray@Cct@2@3AEBUPxExtendedVec3@2@AEBVPxBounds3@2@AEBUCCTParams@82@PEAVRenderBuffer@Cm@2@@Z 000000018000f430 f   CctCharacterControllerCallbacks.obj
 0001:0000e8f0       ?outputSphereToStream@@YAXPEAVPxShape@physx@@PEBVPxRigidActor@2@AEBVPxTransform@2@AEAV?$Array@IV?$ReflectionAllocator@I@shdfnd@physx@@@shdfnd@2@AEBUPxExtendedVec3@2@@Z 000000018000f8f0 f   CctCharacterControllerCallbacks.obj
 0001:0000eae0       ?tessellateTriangleRecursive@@YAXPEAUTessParams@@AEBVPxVec3@physx@@11@Z 000000018000fae0 f   CctCharacterControllerCallbacks.obj
 0001:0000f020       $LN134                     0000000180010020     CctCharacterControllerCallbacks.obj
 0001:00010f50       ?InteractionCharacterCharacter@@YAXPEAVController@Cct@physx@@0M@Z 0000000180011f50 f   CctCharacterControllerManager.obj
 0001:00011e70       ?computeMTD@@YA_NAEAVPxVec3@physx@@AEAMAEBV12@2AEBVPxMat33@2@223@Z 0000000180012e70 f   CctCharacterControllerManager.obj
 0001:00012324       $LN143                     0000000180013324     CctCharacterControllerManager.obj
 0001:00013060       ?fixDir@@YA?AVPxVec3@physx@@AEBV12@0@Z 0000000180014060 f   CctCharacterControllerManager.obj
 0001:000178a0       ??$computeMeshPenetrationT@VPxHeightFieldGeometry@physx@@@?A0x039ec4c9@@YA_NAEAVPxVec3@physx@@AEAMAEBVPxGeometry@2@AEBVPxTransform@2@AEBVPxHeightFieldGeometry@2@3IPEAI@Z 00000001800188a0 f   PhysX3Extensions:ExtTriangleMeshExt.obj
 0001:00017a70       ??$computeMeshPenetrationT@VPxTriangleMeshGeometry@physx@@@?A0x039ec4c9@@YA_NAEAVPxVec3@physx@@AEAMAEBVPxGeometry@2@AEBVPxTransform@2@AEBVPxTriangleMeshGeometry@2@3IPEAI@Z 0000000180018a70 f   PhysX3Extensions:ExtTriangleMeshExt.obj
 0001:0001b460       $LN276                     000000018001c460     PhysX3Extensions:ExtRigidBodyExt.obj
 0001:0001b9a0       ?computeMassAndDiagInertia@@YA_NAEAVInertiaTensorComputer@Ext@physx@@AEAVPxVec3@3@AEAVPxQuat@3@AEAM1_NAEBVPxRigidBody@3@PEBD@Z 000000018001c9a0 f   PhysX3Extensions:ExtRigidBodyExt.obj
 0001:0001be30       ?computeMassAndInertia@@YA_N_NAEAVPxRigidBody@physx@@PEBM2I0AEAVInertiaTensorComputer@Ext@2@@Z 000000018001ce30 f   PhysX3Extensions:ExtRigidBodyExt.obj
 0001:0001cb94       $LN701                     000000018001db94     PhysX3Extensions:ExtRigidBodyExt.obj
 0001:0001e360       ?setMassAndUpdateInertia@@YA_N_NAEAVPxRigidBody@physx@@PEBMIPEBVPxVec3@2@0@Z 000000018001f360 f   PhysX3Extensions:ExtRigidBodyExt.obj
 0001:0001f850       ?updateMassAndInertia@@YA_N_NAEAVPxRigidBody@physx@@PEBMIPEBVPxVec3@2@0@Z 0000000180020850 f   PhysX3Extensions:ExtRigidBodyExt.obj
 0001:0001fb90       $$000000                   0000000180020b90     MSVCRT:_chkstk_.obj
 0001:0001fbf4       ?dllmain_crt_dispatch@@YAHQEAUHINSTANCE__@@KQEAX@Z 0000000180020bf4 f   MSVCRT:dll_dllmain.obj
 0001:0001fc44       ?dllmain_crt_process_attach@@YAHQEAUHINSTANCE__@@QEAX@Z 0000000180020c44 f   MSVCRT:dll_dllmain.obj
 0001:0001fd70       ?dllmain_crt_process_detach@@YAH_N@Z 0000000180020d70 f   MSVCRT:dll_dllmain.obj
 0001:0001fdf4       ?dllmain_dispatch@@YAHQEAUHINSTANCE__@@KQEAX@Z 0000000180020df4 f   MSVCRT:dll_dllmain.obj
 0001:0001feec       ?dllmain_raw@@YAHQEAUHINSTANCE__@@KQEAX@Z 0000000180020eec f   MSVCRT:dll_dllmain.obj
 0001:0001fff0       ?find_pe_section@@YAPEAU_IMAGE_SECTION_HEADER@@QEAE_K@Z 0000000180020ff0 f   MSVCRT:utility.obj
 0001:0002003c       ?is_potentially_valid_image_base@@YA_NQEAX@Z 000000018002103c f   MSVCRT:utility.obj
 0001:00020b50       $$000000                   0000000180021b50     MSVCRT:_guard_dispatch_.obj
 0001:00020b62       ?fin$0@?0??dllmain_crt_process_attach@@YAHQEAUHINSTANCE__@@QEAX@Z@4HA 0000000180021b62 f   MSVCRT:dll_dllmain.obj
 0001:00020b79       ?fin$0@?0??dllmain_crt_process_detach@@YAH_N@Z@4HA 0000000180021b79 f   MSVCRT:dll_dllmain.obj
 0001:00020b95       ?filt$0@?0??dllmain_dispatch@@YAHQEAUHINSTANCE__@@KQEAX@Z@4HA 0000000180021b95 f   MSVCRT:dll_dllmain.obj
 0001:00020bcb       __scrt_is_nonwritable_in_current_image$filt$0 0000000180021bcb f   MSVCRT:utility.obj
 0002:00000278       ?minFError$initializer$@_VecMathTests@aos@shdfnd@physx@@3P6AXXZEA 0000000180022278     CctCharacterControllerCallbacks.obj
 0002:00000280       ?maxFError$initializer$@_VecMathTests@aos@shdfnd@physx@@3P6AXXZEA 0000000180022280     CctCharacterControllerCallbacks.obj
 0002:00000288       ?minV3Error$initializer$@_VecMathTests@aos@shdfnd@physx@@3P6AXXZEA 0000000180022288     CctCharacterControllerCallbacks.obj
 0002:00000290       ?maxV3Error$initializer$@_VecMathTests@aos@shdfnd@physx@@3P6AXXZEA 0000000180022290     CctCharacterControllerCallbacks.obj
 0002:00000298       ?minV4Error$initializer$@_VecMathTests@aos@shdfnd@physx@@3P6AXXZEA 0000000180022298     CctCharacterControllerCallbacks.obj
 0002:000002a0       ?maxV4Error$initializer$@_VecMathTests@aos@shdfnd@physx@@3P6AXXZEA 00000001800222a0     CctCharacterControllerCallbacks.obj
 0002:00000938       ?GeomSizes@@3QBIB          0000000180022938     CctCharacterController.obj
 0002:00000a50       ?gMaskXYZ@internalWindowsSimd@aos@shdfnd@physx@@3QBIB 0000000180022a50     CctCharacterControllerCallbacks.obj
 0002:00000a60       ?minus1w@?A0x3abb6208@aos@shdfnd@physx@@3QBMB 0000000180022a60     CctCharacterControllerCallbacks.obj
 0002:000019e8       $unwind$??_H@YAXPEAX_K1P6APEAX0@Z@Z 00000001800239e8     CctBoxController.obj
 0002:000019fc       $unwind$??_I@YAXPEAX_K1P6AX0@Z@Z 00000001800239fc     CctBoxController.obj
 0002:00001a10       $unwind$??_GPxController@physx@@MEAAPEAXI@Z 0000000180023a10     CctBoxController.obj
 0002:00001a18       $unwind$??_GPxControllerManager@physx@@MEAAPEAXI@Z 0000000180023a18     CctBoxController.obj
 0002:00001a20       $unwind$??_EPxControllerManager@physx@@MEAAPEAXI@Z 0000000180023a20     CctBoxController.obj
 0002:00001a28       $chain$0$??_EPxControllerManager@physx@@MEAAPEAXI@Z 0000000180023a28     CctBoxController.obj
 0002:00001a3c       $chain$1$??_EPxControllerManager@physx@@MEAAPEAXI@Z 0000000180023a3c     CctBoxController.obj
 0002:00001a4c       $unwind$??_GPxFoundation@physx@@MEAAPEAXI@Z 0000000180023a4c     CctBoxController.obj
 0002:00001a54       $unwind$??_EPxFoundation@physx@@MEAAPEAXI@Z 0000000180023a54     CctBoxController.obj
 0002:00001a5c       $chain$0$??_EPxFoundation@physx@@MEAAPEAXI@Z 0000000180023a5c     CctBoxController.obj
 0002:00001a70       $chain$1$??_EPxFoundation@physx@@MEAAPEAXI@Z 0000000180023a70     CctBoxController.obj
 0002:00001a80       $unwind$??_GPxBoxController@physx@@MEAAPEAXI@Z 0000000180023a80     CctBoxController.obj
 0002:00001a88       $unwind$??0BoxController@Cct@physx@@QEAA@AEBVPxControllerDesc@2@AEAVPxPhysics@2@PEAVPxScene@2@@Z 0000000180023a88     CctBoxController.obj
 0002:00001a9c       $unwind$??1BoxController@Cct@physx@@UEAA@XZ 0000000180023a9c     CctBoxController.obj
 0002:00001aa4       $unwind$?setFootPosition@BoxController@Cct@physx@@UEAA_NAEBUPxExtendedVec3@3@@Z 0000000180023aa4     CctBoxController.obj
 0002:00001aac       $unwind$?invalidateCache@BoxController@Cct@physx@@UEAAXXZ 0000000180023aac     CctBoxController.obj
 0002:00001ab4       $unwind$?resize@BoxController@Cct@physx@@UEAAXM@Z 0000000180023ab4     CctBoxController.obj
 0002:00001ac4       $unwind$?updateKinematicProxy@BoxController@Cct@physx@@QEAA_NXZ 0000000180023ac4     CctBoxController.obj
 0002:00001acc       $chain$0$?updateKinematicProxy@BoxController@Cct@physx@@QEAA_NXZ 0000000180023acc     CctBoxController.obj
 0002:00001ae0       $chain$1$?updateKinematicProxy@BoxController@Cct@physx@@QEAA_NXZ 0000000180023ae0     CctBoxController.obj
 0002:00001af0       $unwind$?getOBB@BoxController@Cct@physx@@QEBAXAEAVPxExtendedBox@3@@Z 0000000180023af0     CctBoxController.obj
 0002:00001b00       $unwind$??_GBoxController@Cct@physx@@UEAAPEAXI@Z 0000000180023b00     CctBoxController.obj
 0002:00001b0c       $unwind$??_GPxCapsuleController@physx@@MEAAPEAXI@Z 0000000180023b0c     CctCapsuleController.obj
 0002:00001b14       $unwind$??0CapsuleController@Cct@physx@@QEAA@AEBVPxControllerDesc@2@AEAVPxPhysics@2@PEAVPxScene@2@@Z 0000000180023b14     CctCapsuleController.obj
 0002:00001b28       $unwind$??1CapsuleController@Cct@physx@@UEAA@XZ 0000000180023b28     CctCapsuleController.obj
 0002:00001b30       $unwind$?setFootPosition@CapsuleController@Cct@physx@@UEAA_NAEBUPxExtendedVec3@3@@Z 0000000180023b30     CctCapsuleController.obj
 0002:00001b38       $unwind$?invalidateCache@CapsuleController@Cct@physx@@UEAAXXZ 0000000180023b38     CctCapsuleController.obj
 0002:00001b40       $unwind$?resize@CapsuleController@Cct@physx@@UEAAXM@Z 0000000180023b40     CctCapsuleController.obj
 0002:00001b50       $unwind$?setRadius@CapsuleController@Cct@physx@@UEAA_NM@Z 0000000180023b50     CctCapsuleController.obj
 0002:00001b5c       $chain$0$?setRadius@CapsuleController@Cct@physx@@UEAA_NM@Z 0000000180023b5c     CctCapsuleController.obj
 0002:00001b70       $chain$1$?setRadius@CapsuleController@Cct@physx@@UEAA_NM@Z 0000000180023b70     CctCapsuleController.obj
 0002:00001b80       $unwind$?setHeight@CapsuleController@Cct@physx@@UEAA_NM@Z 0000000180023b80     CctCapsuleController.obj
 0002:00001b8c       $chain$0$?setHeight@CapsuleController@Cct@physx@@UEAA_NM@Z 0000000180023b8c     CctCapsuleController.obj
 0002:00001ba0       $chain$1$?setHeight@CapsuleController@Cct@physx@@UEAA_NM@Z 0000000180023ba0     CctCapsuleController.obj
 0002:00001bb0       $unwind$?getCapsule@CapsuleController@Cct@physx@@QEBAXAEAUPxExtendedCapsule@3@@Z 0000000180023bb0     CctCapsuleController.obj
 0002:00001bc4       $unwind$??_GCapsuleController@Cct@physx@@UEAAPEAXI@Z 0000000180023bc4     CctCapsuleController.obj
 0002:00001bd0       $unwind$??DPxQuat@physx@@QEBA?AV01@AEBV01@@Z 0000000180023bd0     CctCharacterController.obj
 0002:00001bf0       $unwind$??_G?$PxHitCallback@UPxRaycastHit@physx@@@physx@@UEAAPEAXI@Z 0000000180023bf0     CctCharacterController.obj
 0002:00001bf8       $unwind$??_G?$PxHitBuffer@UPxRaycastHit@physx@@@physx@@UEAAPEAXI@Z 0000000180023bf8     CctCharacterController.obj
 0002:00001c00       $unwind$??_GPxQueryFilterCallback@physx@@UEAAPEAXI@Z 0000000180023c00     CctCharacterController.obj
 0002:00001c08       $unwind$??0PxMat44@physx@@QEAA@AEBVPxTransform@1@@Z 0000000180023c08     CctCharacterController.obj
 0002:00001c38       $unwind$?getGlobalPose@PxShapeExt@physx@@SA?AVPxTransform@2@AEBVPxShape@2@AEBVPxRigidActor@2@@Z 0000000180023c38     CctCharacterController.obj
 0002:00001c68       $unwind$?allocate@?$ReflectionAllocator@PEBX@shdfnd@physx@@QEAAPEAX_KPEBDH@Z 0000000180023c68     CctCharacterController.obj
 0002:00001c78       $chain$0$?allocate@?$ReflectionAllocator@PEBX@shdfnd@physx@@QEAAPEAX_KPEBDH@Z 0000000180023c78     CctCharacterController.obj
 0002:00001c8c       $chain$1$?allocate@?$ReflectionAllocator@PEBX@shdfnd@physx@@QEAAPEAX_KPEBDH@Z 0000000180023c8c     CctCharacterController.obj
 0002:00001c9c       $unwind$?growAndPushBack@?$Array@PEBXV?$ReflectionAllocator@PEBX@shdfnd@physx@@@shdfnd@physx@@IEAAAEAPEBXAEBQEBX@Z 0000000180023c9c     CctCharacterController.obj
 0002:00001cb0       $unwind$?allocate@?$ReflectionAllocator@VPxExtendedBox@physx@@@shdfnd@physx@@QEAAPEAX_KPEBDH@Z 0000000180023cb0     CctCharacterController.obj
 0002:00001cc0       $chain$0$?allocate@?$ReflectionAllocator@VPxExtendedBox@physx@@@shdfnd@physx@@QEAAPEAX_KPEBDH@Z 0000000180023cc0     CctCharacterController.obj
 0002:00001cd4       $chain$1$?allocate@?$ReflectionAllocator@VPxExtendedBox@physx@@@shdfnd@physx@@QEAAPEAX_KPEBDH@Z 0000000180023cd4     CctCharacterController.obj
 0002:00001ce4       $unwind$?growAndPushBack@?$Array@VPxExtendedBox@physx@@V?$ReflectionAllocator@VPxExtendedBox@physx@@@shdfnd@2@@shdfnd@physx@@IEAAAEAVPxExtendedBox@3@AEBV43@@Z 0000000180023ce4     CctCharacterController.obj
 0002:00001cf8       $unwind$?allocate@?$ReflectionAllocator@UPxExtendedCapsule@physx@@@shdfnd@physx@@QEAAPEAX_KPEBDH@Z 0000000180023cf8     CctCharacterController.obj
 0002:00001d08       $chain$0$?allocate@?$ReflectionAllocator@UPxExtendedCapsule@physx@@@shdfnd@physx@@QEAAPEAX_KPEBDH@Z 0000000180023d08     CctCharacterController.obj
 0002:00001d1c       $chain$1$?allocate@?$ReflectionAllocator@UPxExtendedCapsule@physx@@@shdfnd@physx@@QEAAPEAX_KPEBDH@Z 0000000180023d1c     CctCharacterController.obj
 0002:00001d2c       $unwind$?growAndPushBack@?$Array@UPxExtendedCapsule@physx@@V?$ReflectionAllocator@UPxExtendedCapsule@physx@@@shdfnd@2@@shdfnd@physx@@IEAAAEAUPxExtendedCapsule@3@AEBU43@@Z 0000000180023d2c     CctCharacterController.obj
 0002:00001d40       $unwind$??1SweepTest@Cct@physx@@QEAA@XZ 0000000180023d40     CctCharacterController.obj
 0002:00001d4c       $unwind$?moveCharacter@SweepTest@Cct@physx@@QEAA?AV?$PxFlags@W4Enum@PxControllerCollisionFlag@physx@@E@3@PEBUInternalCBData_FindTouchedGeom@23@PEAUInternalCBData_OnHit@23@AEAVSweptVolume@23@AEBVPxVec3@3@AEBUUserObstacles@23@MAEBVPxControllerFilters@3@_N6AEAPEBVPxRigidActor@3@AEAPEBVPxShape@3@_K@Z 0000000180023d4c     CctCharacterController.obj
 0002:00001d8c       $unwind$?doSweepTest@SweepTest@Cct@physx@@QEAA_NPEBUInternalCBData_FindTouchedGeom@23@PEAUInternalCBData_OnHit@23@AEBUUserObstacles@23@AEAVSweptVolume@23@AEBVPxVec3@3@4IPEAIMAEBVPxControllerFilters@3@W4SweepPass@23@AEAPEBVPxRigidActor@3@AEAPEBVPxShape@3@_K@Z 0000000180023d8c     CctCharacterController.obj
 0002:00001da0       $chain$12$?doSweepTest@SweepTest@Cct@physx@@QEAA_NPEBUInternalCBData_FindTouchedGeom@23@PEAUInternalCBData_OnHit@23@AEBUUserObstacles@23@AEAVSweptVolume@23@AEBVPxVec3@3@4IPEAIMAEBVPxControllerFilters@3@W4SweepPass@23@AEAPEBVPxRigidActor@3@AEAPEBVPxShape@3@_K@Z 0000000180023da0     CctCharacterController.obj
 0002:00001de4       $chain$13$?doSweepTest@SweepTest@Cct@physx@@QEAA_NPEBUInternalCBData_FindTouchedGeom@23@PEAUInternalCBData_OnHit@23@AEBUUserObstacles@23@AEAVSweptVolume@23@AEBVPxVec3@3@4IPEAIMAEBVPxControllerFilters@3@W4SweepPass@23@AEAPEBVPxRigidActor@3@AEAPEBVPxShape@3@_K@Z 0000000180023de4     CctCharacterController.obj
 0002:00001df4       $unwind$?findTouchedObstacles@SweepTest@Cct@physx@@QEAAXAEBUUserObstacles@23@AEBUPxExtendedBounds3@3@@Z 0000000180023df4     CctCharacterController.obj
 0002:00001e2c       $chain$2$?findTouchedObstacles@SweepTest@Cct@physx@@QEAAXAEBUUserObstacles@23@AEBUPxExtendedBounds3@3@@Z 0000000180023e2c     CctCharacterController.obj
 0002:00001e48       $chain$3$?findTouchedObstacles@SweepTest@Cct@physx@@QEAAXAEBUUserObstacles@23@AEBUPxExtendedBounds3@3@@Z 0000000180023e48     CctCharacterController.obj
 0002:00001e58       $unwind$?voidTestCache@SweepTest@Cct@physx@@QEAAXXZ 0000000180023e58     CctCharacterController.obj
 0002:00001e60       $unwind$?onRelease@SweepTest@Cct@physx@@QEAAXAEBVPxBase@3@@Z 0000000180023e60     CctCharacterController.obj
 0002:00001e68       $unwind$?updateCachedShapesRegistration@SweepTest@Cct@physx@@QEAAXI_N@Z 0000000180023e68     CctCharacterController.obj
 0002:00001e74       $chain$1$?updateCachedShapesRegistration@SweepTest@Cct@physx@@QEAAXI_N@Z 0000000180023e74     CctCharacterController.obj
 0002:00001e8c       $chain$2$?updateCachedShapesRegistration@SweepTest@Cct@physx@@QEAAXI_N@Z 0000000180023e8c     CctCharacterController.obj
 0002:00001ea0       $chain$3$?updateCachedShapesRegistration@SweepTest@Cct@physx@@QEAAXI_N@Z 0000000180023ea0     CctCharacterController.obj
 0002:00001eb0       $chain$4$?updateCachedShapesRegistration@SweepTest@Cct@physx@@QEAAXI_N@Z 0000000180023eb0     CctCharacterController.obj
 0002:00001ec0       $unwind$?onObstacleUpdated@SweepTest@Cct@physx@@QEAAXIPEBVPxObstacleContext@3@AEBVPxVec3@3@1M@Z 0000000180023ec0     CctCharacterController.obj
 0002:00001ecc       $unwind$?onObstacleAdded@SweepTest@Cct@physx@@QEAAXIPEBVPxObstacleContext@3@AEBVPxVec3@3@1M@Z 0000000180023ecc     CctCharacterController.obj
 0002:00001ed8       $chain$0$?onObstacleAdded@SweepTest@Cct@physx@@QEAAXIPEBVPxObstacleContext@3@AEBVPxVec3@3@1M@Z 0000000180023ed8     CctCharacterController.obj
 0002:00001eec       $chain$3$?onObstacleAdded@SweepTest@Cct@physx@@QEAAXIPEBVPxObstacleContext@3@AEBVPxVec3@3@1M@Z 0000000180023eec     CctCharacterController.obj
 0002:00001f08       $chain$4$?onObstacleAdded@SweepTest@Cct@physx@@QEAAXIPEBVPxObstacleContext@3@AEBVPxVec3@3@1M@Z 0000000180023f08     CctCharacterController.obj
 0002:00001f18       $chain$5$?onObstacleAdded@SweepTest@Cct@physx@@QEAAXIPEBVPxObstacleContext@3@AEBVPxVec3@3@1M@Z 0000000180023f18     CctCharacterController.obj
 0002:00001f28       $unwind$?updateTouchedGeoms@SweepTest@Cct@physx@@AEAAXPEBUInternalCBData_FindTouchedGeom@23@AEBUUserObstacles@23@AEBUPxExtendedBounds3@3@AEBVPxControllerFilters@3@AEBVPxVec3@3@@Z 0000000180023f28     CctCharacterController.obj
 0002:00001f3c       $chain$2$?updateTouchedGeoms@SweepTest@Cct@physx@@AEAAXPEBUInternalCBData_FindTouchedGeom@23@AEBUUserObstacles@23@AEBUPxExtendedBounds3@3@AEBVPxControllerFilters@3@AEBVPxVec3@3@@Z 0000000180023f3c     CctCharacterController.obj
 0002:00001f58       $chain$6$?updateTouchedGeoms@SweepTest@Cct@physx@@AEAAXPEBUInternalCBData_FindTouchedGeom@23@AEBUUserObstacles@23@AEBUPxExtendedBounds3@3@AEBVPxControllerFilters@3@AEBVPxVec3@3@@Z 0000000180023f58     CctCharacterController.obj
 0002:00001f78       $chain$7$?updateTouchedGeoms@SweepTest@Cct@physx@@AEAAXPEBUInternalCBData_FindTouchedGeom@23@AEBUUserObstacles@23@AEBUPxExtendedBounds3@3@AEBVPxControllerFilters@3@AEBVPxVec3@3@@Z 0000000180023f78     CctCharacterController.obj
 0002:00001f88       $chain$8$?updateTouchedGeoms@SweepTest@Cct@physx@@AEAAXPEBUInternalCBData_FindTouchedGeom@23@AEBUUserObstacles@23@AEBUPxExtendedBounds3@3@AEBVPxControllerFilters@3@AEBVPxVec3@3@@Z 0000000180023f88     CctCharacterController.obj
 0002:00001fa8       $chain$9$?updateTouchedGeoms@SweepTest@Cct@physx@@AEAAXPEBUInternalCBData_FindTouchedGeom@23@AEBUUserObstacles@23@AEBUPxExtendedBounds3@3@AEBVPxControllerFilters@3@AEBVPxVec3@3@@Z 0000000180023fa8     CctCharacterController.obj
 0002:00001fb8       $chain$10$?updateTouchedGeoms@SweepTest@Cct@physx@@AEAAXPEBUInternalCBData_FindTouchedGeom@23@AEBUUserObstacles@23@AEBUPxExtendedBounds3@3@AEBVPxControllerFilters@3@AEBVPxVec3@3@@Z 0000000180023fb8     CctCharacterController.obj
 0002:00001fc8       $unwind$?findTouchedObject@Controller@Cct@physx@@IEAAXAEBVPxControllerFilters@3@PEBVPxObstacleContext@3@AEBVPxVec3@3@@Z 0000000180023fc8     CctCharacterController.obj
 0002:00001fdc       $chain$2$?findTouchedObject@Controller@Cct@physx@@IEAAXAEBVPxControllerFilters@3@PEBVPxObstacleContext@3@AEBVPxVec3@3@@Z 0000000180023fdc     CctCharacterController.obj
 0002:00001ff8       $chain$10$?findTouchedObject@Controller@Cct@physx@@IEAAXAEBVPxControllerFilters@3@PEBVPxObstacleContext@3@AEBVPxVec3@3@@Z 0000000180023ff8     CctCharacterController.obj
 0002:00002028       $chain$11$?findTouchedObject@Controller@Cct@physx@@IEAAXAEBVPxControllerFilters@3@PEBVPxObstacleContext@3@AEBVPxVec3@3@@Z 0000000180024028     CctCharacterController.obj
 0002:00002038       $chain$12$?findTouchedObject@Controller@Cct@physx@@IEAAXAEBVPxControllerFilters@3@PEBVPxObstacleContext@3@AEBVPxVec3@3@@Z 0000000180024038     CctCharacterController.obj
 0002:00002048       $unwind$?rideOnTouchedObject@Controller@Cct@physx@@IEAA_NAEAVSweptVolume@23@AEBVPxVec3@3@AEAV53@PEBVPxObstacleContext@3@@Z 0000000180024048     CctCharacterController.obj
 0002:00002084       $chain$0$?rideOnTouchedObject@Controller@Cct@physx@@IEAA_NAEAVSweptVolume@23@AEBVPxVec3@3@AEAV53@PEBVPxObstacleContext@3@@Z 0000000180024084     CctCharacterController.obj
 0002:00002098       $chain$1$?rideOnTouchedObject@Controller@Cct@physx@@IEAA_NAEAVSweptVolume@23@AEBVPxVec3@3@AEAV53@PEBVPxObstacleContext@3@@Z 0000000180024098     CctCharacterController.obj
 0002:000020a8       $unwind$?move@Controller@Cct@physx@@IEAA?AV?$PxFlags@W4Enum@PxControllerCollisionFlag@physx@@E@3@AEAVSweptVolume@23@AEBVPxVec3@3@MMAEBVPxControllerFilters@3@PEBVPxObstacleContext@3@_N@Z 00000001800240a8     CctCharacterController.obj
 0002:000020b8       $chain$0$?move@Controller@Cct@physx@@IEAA?AV?$PxFlags@W4Enum@PxControllerCollisionFlag@physx@@E@3@AEAVSweptVolume@23@AEBVPxVec3@3@MMAEBVPxControllerFilters@3@PEBVPxObstacleContext@3@_N@Z 00000001800240b8     CctCharacterController.obj
 0002:000020cc       $chain$7$?move@Controller@Cct@physx@@IEAA?AV?$PxFlags@W4Enum@PxControllerCollisionFlag@physx@@E@3@AEAVSweptVolume@23@AEBVPxVec3@3@MMAEBVPxControllerFilters@3@PEBVPxObstacleContext@3@_N@Z 00000001800240cc     CctCharacterController.obj
 0002:000020f8       $chain$9$?move@Controller@Cct@physx@@IEAA?AV?$PxFlags@W4Enum@PxControllerCollisionFlag@physx@@E@3@AEAVSweptVolume@23@AEBVPxVec3@3@MMAEBVPxControllerFilters@3@PEBVPxObstacleContext@3@_N@Z 00000001800240f8     CctCharacterController.obj
 0002:00002110       $chain$10$?move@Controller@Cct@physx@@IEAA?AV?$PxFlags@W4Enum@PxControllerCollisionFlag@physx@@E@3@AEAVSweptVolume@23@AEBVPxVec3@3@MMAEBVPxControllerFilters@3@PEBVPxObstacleContext@3@_N@Z 0000000180024110     CctCharacterController.obj
 0002:00002120       $chain$11$?move@Controller@Cct@physx@@IEAA?AV?$PxFlags@W4Enum@PxControllerCollisionFlag@physx@@E@3@AEAVSweptVolume@23@AEBVPxVec3@3@MMAEBVPxControllerFilters@3@PEBVPxObstacleContext@3@_N@Z 0000000180024120     CctCharacterController.obj
 0002:00002134       $chain$12$?move@Controller@Cct@physx@@IEAA?AV?$PxFlags@W4Enum@PxControllerCollisionFlag@physx@@E@3@AEAVSweptVolume@23@AEBVPxVec3@3@MMAEBVPxControllerFilters@3@PEBVPxObstacleContext@3@_N@Z 0000000180024134     CctCharacterController.obj
 0002:00002148       $chain$13$?move@Controller@Cct@physx@@IEAA?AV?$PxFlags@W4Enum@PxControllerCollisionFlag@physx@@E@3@AEAVSweptVolume@23@AEBVPxVec3@3@MMAEBVPxControllerFilters@3@PEBVPxObstacleContext@3@_N@Z 0000000180024148     CctCharacterController.obj
 0002:00002158       $unwind$?filterTouchedShape@Controller@Cct@physx@@IEAA_NAEBVPxControllerFilters@3@@Z 0000000180024158     CctCharacterController.obj
 0002:00002160       $unwind$?SweepBoxUserBox@@YA_NPEBVSweepTest@Cct@physx@@PEBVSweptVolume@23@PEBUTouchedGeom@23@AEBUPxExtendedVec3@3@AEBVPxVec3@3@AEAUSweptContact@23@@Z 0000000180024160     CctCharacterController.obj
 0002:00002174       $unwind$?SweepBoxUserCapsule@@YA_NPEBVSweepTest@Cct@physx@@PEBVSweptVolume@23@PEBUTouchedGeom@23@AEBUPxExtendedVec3@3@AEBVPxVec3@3@AEAUSweptContact@23@@Z 0000000180024174     CctCharacterController.obj
 0002:0000218c       $unwind$?SweepBoxMesh@@YA_NPEBVSweepTest@Cct@physx@@PEBVSweptVolume@23@PEBUTouchedGeom@23@AEBUPxExtendedVec3@3@AEBVPxVec3@3@AEAUSweptContact@23@@Z 000000018002418c     CctCharacterController.obj
 0002:00002198       $unwind$?SweepCapsuleMesh@@YA_NPEBVSweepTest@Cct@physx@@PEBVSweptVolume@23@PEBUTouchedGeom@23@AEBUPxExtendedVec3@3@AEBVPxVec3@3@AEAUSweptContact@23@@Z 0000000180024198     CctCharacterController.obj
 0002:000021a0       $unwind$?SweepBoxBox@@YA_NPEBVSweepTest@Cct@physx@@PEBVSweptVolume@23@PEBUTouchedGeom@23@AEBUPxExtendedVec3@3@AEBVPxVec3@3@AEAUSweptContact@23@@Z 00000001800241a0     CctCharacterController.obj
 0002:000021b4       $unwind$?SweepBoxSphere@@YA_NPEBVSweepTest@Cct@physx@@PEBVSweptVolume@23@PEBUTouchedGeom@23@AEBUPxExtendedVec3@3@AEBVPxVec3@3@AEAUSweptContact@23@@Z 00000001800241b4     CctCharacterController.obj
 0002:000021c8       $unwind$?SweepBoxCapsule@@YA_NPEBVSweepTest@Cct@physx@@PEBVSweptVolume@23@PEBUTouchedGeom@23@AEBUPxExtendedVec3@3@AEBVPxVec3@3@AEAUSweptContact@23@@Z 00000001800241c8     CctCharacterController.obj
 0002:000021e0       $unwind$?SweepCapsuleBox@@YA_NPEBVSweepTest@Cct@physx@@PEBVSweptVolume@23@PEBUTouchedGeom@23@AEBUPxExtendedVec3@3@AEBVPxVec3@3@AEAUSweptContact@23@@Z 00000001800241e0     CctCharacterController.obj
 0002:000021f4       $unwind$?SweepCapsuleSphere@@YA_NPEBVSweepTest@Cct@physx@@PEBVSweptVolume@23@PEBUTouchedGeom@23@AEBUPxExtendedVec3@3@AEBVPxVec3@3@AEAUSweptContact@23@@Z 00000001800241f4     CctCharacterController.obj
 0002:00002208       $unwind$?SweepCapsuleCapsule@@YA_NPEBVSweepTest@Cct@physx@@PEBVSweptVolume@23@PEBUTouchedGeom@23@AEBUPxExtendedVec3@3@AEBVPxVec3@3@AEAUSweptContact@23@@Z 0000000180024208     CctCharacterController.obj
 0002:00002220       $unwind$?SweepCapsuleUserCapsule@@YA_NPEBVSweepTest@Cct@physx@@PEBVSweptVolume@23@PEBUTouchedGeom@23@AEBUPxExtendedVec3@3@AEBVPxVec3@3@AEAUSweptContact@23@@Z 0000000180024220     CctCharacterController.obj
 0002:00002238       $unwind$?SweepCapsuleUserBox@@YA_NPEBVSweepTest@Cct@physx@@PEBVSweptVolume@23@PEBUTouchedGeom@23@AEBUPxExtendedVec3@3@AEBVPxVec3@3@AEAUSweptContact@23@@Z 0000000180024238     CctCharacterController.obj
 0002:0000224c       $unwind$?move@BoxController@Cct@physx@@UEAA?AV?$PxFlags@W4Enum@PxControllerCollisionFlag@physx@@E@3@AEBVPxVec3@3@MMAEBVPxControllerFilters@3@PEBVPxObstacleContext@3@@Z 000000018002424c     CctCharacterController.obj
 0002:00002260       $unwind$?move@CapsuleController@Cct@physx@@UEAA?AV?$PxFlags@W4Enum@PxControllerCollisionFlag@physx@@E@3@AEBVPxVec3@3@MMAEBVPxControllerFilters@3@PEBVPxObstacleContext@3@@Z 0000000180024260     CctCharacterController.obj
 0002:00002270       $unwind$?allocate@?$ReflectionAllocator@I@shdfnd@physx@@QEAAPEAX_KPEBDH@Z 0000000180024270     CctCharacterController.obj
 0002:00002280       $chain$0$?allocate@?$ReflectionAllocator@I@shdfnd@physx@@QEAAPEAX_KPEBDH@Z 0000000180024280     CctCharacterController.obj
 0002:00002294       $chain$1$?allocate@?$ReflectionAllocator@I@shdfnd@physx@@QEAAPEAX_KPEBDH@Z 0000000180024294     CctCharacterController.obj
 0002:000022a4       $unwind$?recreate@?$Array@IV?$ReflectionAllocator@I@shdfnd@physx@@@shdfnd@physx@@IEAAXI@Z 00000001800242a4     CctCharacterController.obj
 0002:000022b8       $unwind$?worldToLocal@@YA?AVPxVec3@physx@@AEBVPxObstacle@2@AEBUPxExtendedVec3@2@@Z 00000001800242b8     CctCharacterController.obj
 0002:000022dc       $unwind$?localToWorld@@YA?AVPxVec3@physx@@AEBVPxObstacle@2@AEBV12@@Z 00000001800242dc     CctCharacterController.obj
 0002:0000230c       $unwind$?scale@@YAXAEAUPxExtendedBounds3@physx@@AEBVPxVec3@2@@Z 000000018002430c     CctCharacterController.obj
 0002:00002324       $unwind$?collisionResponse@@YAXAEAUPxExtendedVec3@physx@@AEBU12@AEBVPxVec3@2@2MM_N@Z 0000000180024324     CctCharacterController.obj
 0002:0000234c       $unwind$?sweepVolumeVsMesh@@YA_NPEBVSweepTest@Cct@physx@@PEBUTouchedMesh@23@AEAUSweptContact@23@AEBVPxVec3@3@AEBVPxGeometry@3@AEBVPxTransform@3@IPEBVPxTriangle@3@I@Z 000000018002434c     CctCharacterController.obj
 0002:00002360       $unwind$?CollideGeoms@@YAPEBUTouchedGeom@Cct@physx@@PEBVSweepTest@23@AEBVSweptVolume@23@AEBV?$Array@IV?$ReflectionAllocator@I@shdfnd@physx@@@shdfnd@3@AEBUPxExtendedVec3@3@AEBVPxVec3@3@AEAUSweptContact@23@_N@Z 0000000180024360     CctCharacterController.obj
 0002:0000237c       $unwind$?computeMTD@@YA?AVPxVec3@physx@@PEBVSweepTest@Cct@2@AEBVSweptVolume@42@AEBV?$Array@IV?$ReflectionAllocator@I@shdfnd@physx@@@shdfnd@2@AEBUPxExtendedVec3@2@M@Z 000000018002437c     CctCharacterController.obj
 0002:000023a0       $unwind$?preFilter@ControllerFilter@@UEAA?AW4Enum@PxQueryHitType@physx@@AEBUPxFilterData@4@PEBVPxShape@4@PEBVPxRigidActor@4@AEAV?$PxFlags@W4Enum@PxHitFlag@physx@@G@4@@Z 00000001800243a0     CctCharacterController.obj
 0002:000023b4       $unwind$??_GControllerFilter@@UEAAPEAXI@Z 00000001800243b4     CctCharacterController.obj
 0002:000023bc       $unwind$??_G?$PxHitCallback@UPxOverlapHit@physx@@@physx@@UEAAPEAXI@Z 00000001800243bc     CctCharacterControllerCallbacks.obj
 0002:000023c4       $unwind$??_G?$PxHitBuffer@UPxOverlapHit@physx@@@physx@@UEAAPEAXI@Z 00000001800243c4     CctCharacterControllerCallbacks.obj
 0002:000023cc       $unwind$?PxPlaneEquationFromTransform@physx@@YA?AVPxPlane@1@AEBVPxTransform@1@@Z 00000001800243cc     CctCharacterControllerCallbacks.obj
 0002:000023ec       $unwind$?allocate@?$ReflectionAllocator@VPxTriangle@physx@@@shdfnd@physx@@QEAAPEAX_KPEBDH@Z 00000001800243ec     CctCharacterControllerCallbacks.obj
 0002:000023fc       $chain$0$?allocate@?$ReflectionAllocator@VPxTriangle@physx@@@shdfnd@physx@@QEAAPEAX_KPEBDH@Z 00000001800243fc     CctCharacterControllerCallbacks.obj
 0002:00002410       $chain$1$?allocate@?$ReflectionAllocator@VPxTriangle@physx@@@shdfnd@physx@@QEAAPEAX_KPEBDH@Z 0000000180024410     CctCharacterControllerCallbacks.obj
 0002:00002420       $unwind$?recreate@?$Array@VPxTriangle@physx@@V?$ReflectionAllocator@VPxTriangle@physx@@@shdfnd@2@@shdfnd@physx@@IEAAXI@Z 0000000180024420     CctCharacterControllerCallbacks.obj
 0002:00002430       $chain$0$?recreate@?$Array@VPxTriangle@physx@@V?$ReflectionAllocator@VPxTriangle@physx@@@shdfnd@2@@shdfnd@physx@@IEAAXI@Z 0000000180024430     CctCharacterControllerCallbacks.obj
 0002:00002444       $chain$1$?recreate@?$Array@VPxTriangle@physx@@V?$ReflectionAllocator@VPxTriangle@physx@@@shdfnd@2@@shdfnd@physx@@IEAAXI@Z 0000000180024444     CctCharacterControllerCallbacks.obj
 0002:00002454       $unwind$?growAndPushBack@?$Array@IV?$ReflectionAllocator@I@shdfnd@physx@@@shdfnd@physx@@IEAAAEAIAEBI@Z 0000000180024454     CctCharacterControllerCallbacks.obj
 0002:00002468       $unwind$?findTouchedGeometry@Cct@physx@@YAXPEBUInternalCBData_FindTouchedGeom@12@AEBUPxExtendedBounds3@2@AEAVTriArray@12@AEAV?$Array@IV?$ReflectionAllocator@I@shdfnd@physx@@@shdfnd@2@3AEBVCCTFilter@12@AEBUCCTParams@12@AEAG@Z 0000000180024468     CctCharacterControllerCallbacks.obj
 0002:00002478       $chain$3$?findTouchedGeometry@Cct@physx@@YAXPEBUInternalCBData_FindTouchedGeom@12@AEBUPxExtendedBounds3@2@AEAVTriArray@12@AEAV?$Array@IV?$ReflectionAllocator@I@shdfnd@physx@@@shdfnd@2@3AEBVCCTFilter@12@AEBUCCTParams@12@AEAG@Z 0000000180024478     CctCharacterControllerCallbacks.obj
 0002:00002498       $chain$8$?findTouchedGeometry@Cct@physx@@YAXPEBUInternalCBData_FindTouchedGeom@12@AEBUPxExtendedBounds3@2@AEAVTriArray@12@AEAV?$Array@IV?$ReflectionAllocator@I@shdfnd@physx@@@shdfnd@2@3AEBVCCTFilter@12@AEBUCCTParams@12@AEAG@Z 0000000180024498     CctCharacterControllerCallbacks.obj
 0002:000024b8       $chain$4$?findTouchedGeometry@Cct@physx@@YAXPEBUInternalCBData_FindTouchedGeom@12@AEBUPxExtendedBounds3@2@AEAVTriArray@12@AEAV?$Array@IV?$ReflectionAllocator@I@shdfnd@physx@@@shdfnd@2@3AEBVCCTFilter@12@AEBUCCTParams@12@AEAG@Z 00000001800244b8     CctCharacterControllerCallbacks.obj
 0002:000024c8       $unwind$?shapeHitCallback@Cct@physx@@YAIPEBUInternalCBData_OnHit@12@AEBUSweptContact@12@AEBVPxVec3@2@M@Z 00000001800244c8     CctCharacterControllerCallbacks.obj
 0002:000024e0       $unwind$?userHitCallback@Cct@physx@@YAIPEBUInternalCBData_OnHit@12@AEBUSweptContact@12@AEBVPxVec3@2@M@Z 00000001800244e0     CctCharacterControllerCallbacks.obj
 0002:000024fc       $unwind$?tessellateTriangleRecursive@@YAXPEAUTessParams@@AEBVPxVec3@physx@@11@Z 00000001800244fc     CctCharacterControllerCallbacks.obj
 0002:00002510       $chain$9$?tessellateTriangleRecursive@@YAXPEAUTessParams@@AEBVPxVec3@physx@@11@Z 0000000180024510     CctCharacterControllerCallbacks.obj
 0002:00002548       $chain$10$?tessellateTriangleRecursive@@YAXPEAUTessParams@@AEBVPxVec3@physx@@11@Z 0000000180024548     CctCharacterControllerCallbacks.obj
 0002:00002560       $chain$11$?tessellateTriangleRecursive@@YAXPEAUTessParams@@AEBVPxVec3@physx@@11@Z 0000000180024560     CctCharacterControllerCallbacks.obj
 0002:00002570       $unwind$?outputPlaneToStream@@YAXPEAVPxShape@physx@@PEBVPxRigidActor@2@AEBVPxTransform@2@AEAV?$Array@IV?$ReflectionAllocator@I@shdfnd@physx@@@shdfnd@2@AEAVTriArray@Cct@2@3AEBUPxExtendedVec3@2@AEBVPxBounds3@2@AEBUCCTParams@82@PEAVRenderBuffer@Cm@2@@Z 0000000180024570     CctCharacterControllerCallbacks.obj
 0002:000025b0       $unwind$?outputSphereToStream@@YAXPEAVPxShape@physx@@PEBVPxRigidActor@2@AEBVPxTransform@2@AEAV?$Array@IV?$ReflectionAllocator@I@shdfnd@physx@@@shdfnd@2@AEBUPxExtendedVec3@2@@Z 00000001800245b0     CctCharacterControllerCallbacks.obj
 0002:000025d0       $unwind$?outputCapsuleToStream@@YAXPEAVPxShape@physx@@PEBVPxRigidActor@2@AEBVPxTransform@2@AEAV?$Array@IV?$ReflectionAllocator@I@shdfnd@physx@@@shdfnd@2@AEBUPxExtendedVec3@2@@Z 00000001800245d0     CctCharacterControllerCallbacks.obj
 0002:00002604       $unwind$?outputBoxToStream@@YAXPEAVPxShape@physx@@PEBVPxRigidActor@2@AEBVPxTransform@2@AEAV?$Array@IV?$ReflectionAllocator@I@shdfnd@physx@@@shdfnd@2@AEAVTriArray@Cct@2@3AEBUPxExtendedVec3@2@AEBVPxBounds3@2@AEBUCCTParams@82@AEAG@Z 0000000180024604     CctCharacterControllerCallbacks.obj
 0002:00002648       $unwind$?createInvisibleWalls@@YAIAEBUCCTParams@Cct@physx@@AEBVPxTriangle@3@AEAVTriArray@23@AEAV?$Array@IV?$ReflectionAllocator@I@shdfnd@physx@@@shdfnd@3@@Z 0000000180024648     CctCharacterControllerCallbacks.obj
 0002:00002660       $chain$8$?createInvisibleWalls@@YAIAEBUCCTParams@Cct@physx@@AEBVPxTriangle@3@AEAVTriArray@23@AEAV?$Array@IV?$ReflectionAllocator@I@shdfnd@physx@@@shdfnd@3@@Z 0000000180024660     CctCharacterControllerCallbacks.obj
 0002:00002694       $chain$9$?createInvisibleWalls@@YAIAEBUCCTParams@Cct@physx@@AEBVPxTriangle@3@AEAVTriArray@23@AEAV?$Array@IV?$ReflectionAllocator@I@shdfnd@physx@@@shdfnd@3@@Z 0000000180024694     CctCharacterControllerCallbacks.obj
 0002:000026a8       $chain$10$?createInvisibleWalls@@YAIAEBUCCTParams@Cct@physx@@AEBVPxTriangle@3@AEAVTriArray@23@AEAV?$Array@IV?$ReflectionAllocator@I@shdfnd@physx@@@shdfnd@3@@Z 00000001800246a8     CctCharacterControllerCallbacks.obj
 0002:000026b8       $chain$11$?createInvisibleWalls@@YAIAEBUCCTParams@Cct@physx@@AEBVPxTriangle@3@AEAVTriArray@23@AEAV?$Array@IV?$ReflectionAllocator@I@shdfnd@physx@@@shdfnd@3@@Z 00000001800246b8     CctCharacterControllerCallbacks.obj
 0002:000026c8       $unwind$?outputMeshToStream@@YAXPEAVPxShape@physx@@PEBVPxRigidActor@2@AEBVPxTransform@2@AEAV?$Array@IV?$ReflectionAllocator@I@shdfnd@physx@@@shdfnd@2@AEAVTriArray@Cct@2@3AEBUPxExtendedVec3@2@AEBVPxBounds3@2@AEBUCCTParams@82@PEAVRenderBuffer@Cm@2@AEAG@Z 00000001800246c8     CctCharacterControllerCallbacks.obj
 0002:000026f8       $chain$4$?outputMeshToStream@@YAXPEAVPxShape@physx@@PEBVPxRigidActor@2@AEBVPxTransform@2@AEAV?$Array@IV?$ReflectionAllocator@I@shdfnd@physx@@@shdfnd@2@AEAVTriArray@Cct@2@3AEBUPxExtendedVec3@2@AEBVPxBounds3@2@AEBUCCTParams@82@PEAVRenderBuffer@Cm@2@AEAG@Z 00000001800246f8     CctCharacterControllerCallbacks.obj
 0002:0000271c       $unwind$?outputHeightFieldToStream@@YAXPEAVPxShape@physx@@PEBVPxRigidActor@2@AEBVPxTransform@2@AEAV?$Array@IV?$ReflectionAllocator@I@shdfnd@physx@@@shdfnd@2@AEAVTriArray@Cct@2@3AEBUPxExtendedVec3@2@AEBVPxBounds3@2@AEBUCCTParams@82@PEAVRenderBuffer@Cm@2@AEAG@Z 000000018002471c     CctCharacterControllerCallbacks.obj
 0002:00002748       $chain$5$?outputHeightFieldToStream@@YAXPEAVPxShape@physx@@PEBVPxRigidActor@2@AEBVPxTransform@2@AEAV?$Array@IV?$ReflectionAllocator@I@shdfnd@physx@@@shdfnd@2@AEAVTriArray@Cct@2@3AEBUPxExtendedVec3@2@AEBVPxBounds3@2@AEBUCCTParams@82@PEAVRenderBuffer@Cm@2@AEAG@Z 0000000180024748     CctCharacterControllerCallbacks.obj
 0002:00002770       $unwind$?outputConvexToStream@@YAXPEAVPxShape@physx@@PEBVPxRigidActor@2@AEBVPxTransform@2@AEAV?$Array@IV?$ReflectionAllocator@I@shdfnd@physx@@@shdfnd@2@AEAVTriArray@Cct@2@3AEBUPxExtendedVec3@2@AEBVPxBounds3@2@AEBUCCTParams@82@PEAVRenderBuffer@Cm@2@AEAG@Z 0000000180024770     CctCharacterControllerCallbacks.obj
 0002:000027b4       $unwind$??_GPxRenderBuffer@physx@@UEAAPEAXI@Z 00000001800247b4     CctCharacterControllerManager.obj
 0002:000027bc       $unwind$PxCreateControllerManager 00000001800247bc     CctCharacterControllerManager.obj
 0002:000027cc       $unwind$??0CharacterControllerManager@Cct@physx@@QEAA@AEAVPxScene@2@_N@Z 00000001800247cc     CctCharacterControllerManager.obj
 0002:000027e4       $unwind$??1CharacterControllerManager@Cct@physx@@UEAA@XZ 00000001800247e4     CctCharacterControllerManager.obj
 0002:000027f0       $unwind$?release@CharacterControllerManager@Cct@physx@@UEAAXXZ 00000001800247f0     CctCharacterControllerManager.obj
 0002:000027f8       $chain$2$?release@CharacterControllerManager@Cct@physx@@UEAAXXZ 00000001800247f8     CctCharacterControllerManager.obj
 0002:00002814       $chain$3$?release@CharacterControllerManager@Cct@physx@@UEAAXXZ 0000000180024814     CctCharacterControllerManager.obj
 0002:00002824       $unwind$?getController@CharacterControllerManager@Cct@physx@@UEAAPEAVPxController@3@I@Z 0000000180024824     CctCharacterControllerManager.obj
 0002:0000282c       $unwind$?createController@CharacterControllerManager@Cct@physx@@UEAAPEAVPxController@3@AEBVPxControllerDesc@3@@Z 000000018002482c     CctCharacterControllerManager.obj
 0002:00002840       $unwind$?purgeControllers@CharacterControllerManager@Cct@physx@@UEAAXXZ 0000000180024840     CctCharacterControllerManager.obj
 0002:00002848       $chain$2$?purgeControllers@CharacterControllerManager@Cct@physx@@UEAAXXZ 0000000180024848     CctCharacterControllerManager.obj
 0002:00002864       $chain$3$?purgeControllers@CharacterControllerManager@Cct@physx@@UEAAXXZ 0000000180024864     CctCharacterControllerManager.obj
 0002:00002874       $unwind$?getRenderBuffer@CharacterControllerManager@Cct@physx@@UEAAAEAVPxRenderBuffer@3@XZ 0000000180024874     CctCharacterControllerManager.obj
 0002:0000287c       $chain$0$?getRenderBuffer@CharacterControllerManager@Cct@physx@@UEAAAEAVPxRenderBuffer@3@XZ 000000018002487c     CctCharacterControllerManager.obj
 0002:00002890       $chain$1$?getRenderBuffer@CharacterControllerManager@Cct@physx@@UEAAAEAVPxRenderBuffer@3@XZ 0000000180024890     CctCharacterControllerManager.obj
 0002:000028a0       $unwind$?setDebugRenderingFlags@CharacterControllerManager@Cct@physx@@UEAAXV?$PxFlags@W4Enum@PxControllerDebugRenderFlag@physx@@I@3@@Z 00000001800248a0     CctCharacterControllerManager.obj
 0002:000028a8       $unwind$?getObstacleContext@CharacterControllerManager@Cct@physx@@UEAAPEAVPxObstacleContext@3@I@Z 00000001800248a8     CctCharacterControllerManager.obj
 0002:000028b0       $unwind$?createObstacleContext@CharacterControllerManager@Cct@physx@@UEAAPEAVPxObstacleContext@3@XZ 00000001800248b0     CctCharacterControllerManager.obj
 0002:000028bc       $unwind$?computeInteractions@CharacterControllerManager@Cct@physx@@UEAAXMPEAVPxControllerFilterCallback@3@@Z 00000001800248bc     CctCharacterControllerManager.obj
 0002:000028c8       $chain$5$?computeInteractions@CharacterControllerManager@Cct@physx@@UEAAXMPEAVPxControllerFilterCallback@3@@Z 00000001800248c8     CctCharacterControllerManager.obj
 0002:000028f0       $chain$7$?computeInteractions@CharacterControllerManager@Cct@physx@@UEAAXMPEAVPxControllerFilterCallback@3@@Z 00000001800248f0     CctCharacterControllerManager.obj
 0002:00002908       $chain$8$?computeInteractions@CharacterControllerManager@Cct@physx@@UEAAXMPEAVPxControllerFilterCallback@3@@Z 0000000180024908     CctCharacterControllerManager.obj
 0002:00002918       $chain$9$?computeInteractions@CharacterControllerManager@Cct@physx@@UEAAXMPEAVPxControllerFilterCallback@3@@Z 0000000180024918     CctCharacterControllerManager.obj
 0002:0000292c       $chain$10$?computeInteractions@CharacterControllerManager@Cct@physx@@UEAAXMPEAVPxControllerFilterCallback@3@@Z 000000018002492c     CctCharacterControllerManager.obj
 0002:0000293c       $unwind$?shiftOrigin@CharacterControllerManager@Cct@physx@@UEAAXAEBVPxVec3@3@@Z 000000018002493c     CctCharacterControllerManager.obj
 0002:00002950       $unwind$?onRelease@CharacterControllerManager@Cct@physx@@UEAAXPEBVPxBase@3@PEAXW4Enum@PxDeletionEventFlag@3@@Z 0000000180024950     CctCharacterControllerManager.obj
 0002:0000295c       $chain$0$?onRelease@CharacterControllerManager@Cct@physx@@UEAAXPEBVPxBase@3@PEAXW4Enum@PxDeletionEventFlag@3@@Z 000000018002495c     CctCharacterControllerManager.obj
 0002:00002970       $chain$1$?onRelease@CharacterControllerManager@Cct@physx@@UEAAXPEBVPxBase@3@PEAXW4Enum@PxDeletionEventFlag@3@@Z 0000000180024970     CctCharacterControllerManager.obj
 0002:00002984       $chain$2$?onRelease@CharacterControllerManager@Cct@physx@@UEAAXPEBVPxBase@3@PEAXW4Enum@PxDeletionEventFlag@3@@Z 0000000180024984     CctCharacterControllerManager.obj
 0002:00002994       $chain$3$?onRelease@CharacterControllerManager@Cct@physx@@UEAAXPEBVPxBase@3@PEAXW4Enum@PxDeletionEventFlag@3@@Z 0000000180024994     CctCharacterControllerManager.obj
 0002:000029a4       $unwind$?registerObservedObject@CharacterControllerManager@Cct@physx@@QEAAXPEBVPxBase@3@@Z 00000001800249a4     CctCharacterControllerManager.obj
 0002:000029b0       $unwind$?unregisterObservedObject@CharacterControllerManager@Cct@physx@@QEAAXPEBVPxBase@3@@Z 00000001800249b0     CctCharacterControllerManager.obj
 0002:000029c0       $unwind$?onObstacleRemoved@CharacterControllerManager@Cct@physx@@QEBAXI@Z 00000001800249c0     CctCharacterControllerManager.obj
 0002:000029d0       $unwind$?onObstacleUpdated@CharacterControllerManager@Cct@physx@@QEBAXIPEBVPxObstacleContext@3@@Z 00000001800249d0     CctCharacterControllerManager.obj
 0002:000029e0       $chain$2$?onObstacleUpdated@CharacterControllerManager@Cct@physx@@QEBAXIPEBVPxObstacleContext@3@@Z 00000001800249e0     CctCharacterControllerManager.obj
 0002:000029fc       $chain$3$?onObstacleUpdated@CharacterControllerManager@Cct@physx@@QEBAXIPEBVPxObstacleContext@3@@Z 00000001800249fc     CctCharacterControllerManager.obj
 0002:00002a0c       $unwind$?onObstacleAdded@CharacterControllerManager@Cct@physx@@QEBAXIPEBVPxObstacleContext@3@@Z 0000000180024a0c     CctCharacterControllerManager.obj
 0002:00002a1c       $chain$2$?onObstacleAdded@CharacterControllerManager@Cct@physx@@QEBAXIPEBVPxObstacleContext@3@@Z 0000000180024a1c     CctCharacterControllerManager.obj
 0002:00002a38       $chain$3$?onObstacleAdded@CharacterControllerManager@Cct@physx@@QEBAXIPEBVPxObstacleContext@3@@Z 0000000180024a38     CctCharacterControllerManager.obj
 0002:00002a48       $unwind$?releaseController@CharacterControllerManager@Cct@physx@@QEAAXAEAVPxController@3@@Z 0000000180024a48     CctCharacterControllerManager.obj
 0002:00002a58       $unwind$?resetObstaclesBuffers@CharacterControllerManager@Cct@physx@@QEAAXXZ 0000000180024a58     CctCharacterControllerManager.obj
 0002:00002a68       $unwind$??_GPxDeletionListener@physx@@MEAAPEAXI@Z 0000000180024a68     CctCharacterControllerManager.obj
 0002:00002a70       $unwind$?append@RenderBuffer@Cm@physx@@UEAAXAEBVPxRenderBuffer@3@@Z 0000000180024a70     CctCharacterControllerManager.obj
 0002:00002a80       $unwind$?allocate@?$ReflectionAllocator@UPxDebugPoint@physx@@@shdfnd@physx@@QEAAPEAX_KPEBDH@Z 0000000180024a80     CctCharacterControllerManager.obj
 0002:00002a90       $chain$0$?allocate@?$ReflectionAllocator@UPxDebugPoint@physx@@@shdfnd@physx@@QEAAPEAX_KPEBDH@Z 0000000180024a90     CctCharacterControllerManager.obj
 0002:00002aa4       $chain$1$?allocate@?$ReflectionAllocator@UPxDebugPoint@physx@@@shdfnd@physx@@QEAAPEAX_KPEBDH@Z 0000000180024aa4     CctCharacterControllerManager.obj
 0002:00002ab4       $unwind$?copy@?$Array@UPxDebugPoint@physx@@V?$ReflectionAllocator@UPxDebugPoint@physx@@@shdfnd@2@@shdfnd@physx@@KAXPEAUPxDebugPoint@3@0PEBU43@@Z 0000000180024ab4     CctCharacterControllerManager.obj
 0002:00002abc       $chain$0$?copy@?$Array@UPxDebugPoint@physx@@V?$ReflectionAllocator@UPxDebugPoint@physx@@@shdfnd@2@@shdfnd@physx@@KAXPEAUPxDebugPoint@3@0PEBU43@@Z 0000000180024abc     CctCharacterControllerManager.obj
 0002:00002ad0       $chain$1$?copy@?$Array@UPxDebugPoint@physx@@V?$ReflectionAllocator@UPxDebugPoint@physx@@@shdfnd@2@@shdfnd@physx@@KAXPEAUPxDebugPoint@3@0PEBU43@@Z 0000000180024ad0     CctCharacterControllerManager.obj
 0002:00002ae0       $unwind$?growAndPushBack@?$Array@UPxDebugPoint@physx@@V?$ReflectionAllocator@UPxDebugPoint@physx@@@shdfnd@2@@shdfnd@physx@@IEAAAEAUPxDebugPoint@3@AEBU43@@Z 0000000180024ae0     CctCharacterControllerManager.obj
 0002:00002af8       $unwind$?recreate@?$Array@UPxDebugPoint@physx@@V?$ReflectionAllocator@UPxDebugPoint@physx@@@shdfnd@2@@shdfnd@physx@@IEAAXI@Z 0000000180024af8     CctCharacterControllerManager.obj
 0002:00002b0c       $unwind$?allocate@?$ReflectionAllocator@UPxDebugLine@physx@@@shdfnd@physx@@QEAAPEAX_KPEBDH@Z 0000000180024b0c     CctCharacterControllerManager.obj
 0002:00002b1c       $chain$0$?allocate@?$ReflectionAllocator@UPxDebugLine@physx@@@shdfnd@physx@@QEAAPEAX_KPEBDH@Z 0000000180024b1c     CctCharacterControllerManager.obj
 0002:00002b30       $chain$1$?allocate@?$ReflectionAllocator@UPxDebugLine@physx@@@shdfnd@physx@@QEAAPEAX_KPEBDH@Z 0000000180024b30     CctCharacterControllerManager.obj
 0002:00002b40       $unwind$?copy@?$Array@UPxDebugLine@physx@@V?$ReflectionAllocator@UPxDebugLine@physx@@@shdfnd@2@@shdfnd@physx@@KAXPEAUPxDebugLine@3@0PEBU43@@Z 0000000180024b40     CctCharacterControllerManager.obj
 0002:00002b48       $chain$0$?copy@?$Array@UPxDebugLine@physx@@V?$ReflectionAllocator@UPxDebugLine@physx@@@shdfnd@2@@shdfnd@physx@@KAXPEAUPxDebugLine@3@0PEBU43@@Z 0000000180024b48     CctCharacterControllerManager.obj
 0002:00002b5c       $chain$1$?copy@?$Array@UPxDebugLine@physx@@V?$ReflectionAllocator@UPxDebugLine@physx@@@shdfnd@2@@shdfnd@physx@@KAXPEAUPxDebugLine@3@0PEBU43@@Z 0000000180024b5c     CctCharacterControllerManager.obj
 0002:00002b6c       $unwind$?growAndPushBack@?$Array@UPxDebugLine@physx@@V?$ReflectionAllocator@UPxDebugLine@physx@@@shdfnd@2@@shdfnd@physx@@IEAAAEAUPxDebugLine@3@AEBU43@@Z 0000000180024b6c     CctCharacterControllerManager.obj
 0002:00002b84       $unwind$?recreate@?$Array@UPxDebugLine@physx@@V?$ReflectionAllocator@UPxDebugLine@physx@@@shdfnd@2@@shdfnd@physx@@IEAAXI@Z 0000000180024b84     CctCharacterControllerManager.obj
 0002:00002b98       $unwind$?allocate@?$ReflectionAllocator@UPxDebugTriangle@physx@@@shdfnd@physx@@QEAAPEAX_KPEBDH@Z 0000000180024b98     CctCharacterControllerManager.obj
 0002:00002ba8       $chain$0$?allocate@?$ReflectionAllocator@UPxDebugTriangle@physx@@@shdfnd@physx@@QEAAPEAX_KPEBDH@Z 0000000180024ba8     CctCharacterControllerManager.obj
 0002:00002bbc       $chain$1$?allocate@?$ReflectionAllocator@UPxDebugTriangle@physx@@@shdfnd@physx@@QEAAPEAX_KPEBDH@Z 0000000180024bbc     CctCharacterControllerManager.obj
 0002:00002bcc       $unwind$?copy@?$Array@UPxDebugTriangle@physx@@V?$ReflectionAllocator@UPxDebugTriangle@physx@@@shdfnd@2@@shdfnd@physx@@KAXPEAUPxDebugTriangle@3@0PEBU43@@Z 0000000180024bcc     CctCharacterControllerManager.obj
 0002:00002bd4       $chain$0$?copy@?$Array@UPxDebugTriangle@physx@@V?$ReflectionAllocator@UPxDebugTriangle@physx@@@shdfnd@2@@shdfnd@physx@@KAXPEAUPxDebugTriangle@3@0PEBU43@@Z 0000000180024bd4     CctCharacterControllerManager.obj
 0002:00002be8       $chain$1$?copy@?$Array@UPxDebugTriangle@physx@@V?$ReflectionAllocator@UPxDebugTriangle@physx@@@shdfnd@2@@shdfnd@physx@@KAXPEAUPxDebugTriangle@3@0PEBU43@@Z 0000000180024be8     CctCharacterControllerManager.obj
 0002:00002bf8       $unwind$?growAndPushBack@?$Array@UPxDebugTriangle@physx@@V?$ReflectionAllocator@UPxDebugTriangle@physx@@@shdfnd@2@@shdfnd@physx@@IEAAAEAUPxDebugTriangle@3@AEBU43@@Z 0000000180024bf8     CctCharacterControllerManager.obj
 0002:00002c10       $unwind$?recreate@?$Array@UPxDebugTriangle@physx@@V?$ReflectionAllocator@UPxDebugTriangle@physx@@@shdfnd@2@@shdfnd@physx@@IEAAXI@Z 0000000180024c10     CctCharacterControllerManager.obj
 0002:00002c24       $unwind$?allocate@?$ReflectionAllocator@UPxDebugText@physx@@@shdfnd@physx@@QEAAPEAX_KPEBDH@Z 0000000180024c24     CctCharacterControllerManager.obj
 0002:00002c34       $chain$0$?allocate@?$ReflectionAllocator@UPxDebugText@physx@@@shdfnd@physx@@QEAAPEAX_KPEBDH@Z 0000000180024c34     CctCharacterControllerManager.obj
 0002:00002c48       $chain$1$?allocate@?$ReflectionAllocator@UPxDebugText@physx@@@shdfnd@physx@@QEAAPEAX_KPEBDH@Z 0000000180024c48     CctCharacterControllerManager.obj
 0002:00002c58       $unwind$?copy@?$Array@UPxDebugText@physx@@V?$ReflectionAllocator@UPxDebugText@physx@@@shdfnd@2@@shdfnd@physx@@KAXPEAUPxDebugText@3@0PEBU43@@Z 0000000180024c58     CctCharacterControllerManager.obj
 0002:00002c60       $chain$0$?copy@?$Array@UPxDebugText@physx@@V?$ReflectionAllocator@UPxDebugText@physx@@@shdfnd@2@@shdfnd@physx@@KAXPEAUPxDebugText@3@0PEBU43@@Z 0000000180024c60     CctCharacterControllerManager.obj
 0002:00002c74       $chain$1$?copy@?$Array@UPxDebugText@physx@@V?$ReflectionAllocator@UPxDebugText@physx@@@shdfnd@2@@shdfnd@physx@@KAXPEAUPxDebugText@3@0PEBU43@@Z 0000000180024c74     CctCharacterControllerManager.obj
 0002:00002c84       $unwind$?growAndPushBack@?$Array@UPxDebugText@physx@@V?$ReflectionAllocator@UPxDebugText@physx@@@shdfnd@2@@shdfnd@physx@@IEAAAEAUPxDebugText@3@AEBU43@@Z 0000000180024c84     CctCharacterControllerManager.obj
 0002:00002c9c       $unwind$?recreate@?$Array@UPxDebugText@physx@@V?$ReflectionAllocator@UPxDebugText@physx@@@shdfnd@2@@shdfnd@physx@@IEAAXI@Z 0000000180024c9c     CctCharacterControllerManager.obj
 0002:00002cb0       $unwind$??1RenderBuffer@Cm@physx@@UEAA@XZ 0000000180024cb0     CctCharacterControllerManager.obj
 0002:00002cbc       $unwind$??_GRenderBuffer@Cm@physx@@UEAAPEAXI@Z 0000000180024cbc     CctCharacterControllerManager.obj
 0002:00002cc8       $unwind$??$append@UPxDebugPoint@physx@@@RenderBuffer@Cm@physx@@AEAAXAEAV?$Array@UPxDebugPoint@physx@@V?$ReflectionAllocator@UPxDebugPoint@physx@@@shdfnd@2@@shdfnd@2@PEBUPxDebugPoint@2@I@Z 0000000180024cc8     CctCharacterControllerManager.obj
 0002:00002cd8       $unwind$??$append@UPxDebugLine@physx@@@RenderBuffer@Cm@physx@@AEAAXAEAV?$Array@UPxDebugLine@physx@@V?$ReflectionAllocator@UPxDebugLine@physx@@@shdfnd@2@@shdfnd@2@PEBUPxDebugLine@2@I@Z 0000000180024cd8     CctCharacterControllerManager.obj
 0002:00002ce8       $unwind$??$append@UPxDebugTriangle@physx@@@RenderBuffer@Cm@physx@@AEAAXAEAV?$Array@UPxDebugTriangle@physx@@V?$ReflectionAllocator@UPxDebugTriangle@physx@@@shdfnd@2@@shdfnd@2@PEBUPxDebugTriangle@2@I@Z 0000000180024ce8     CctCharacterControllerManager.obj
 0002:00002cf8       $unwind$??$append@UPxDebugText@physx@@@RenderBuffer@Cm@physx@@AEAAXAEAV?$Array@UPxDebugText@physx@@V?$ReflectionAllocator@UPxDebugText@physx@@@shdfnd@2@@shdfnd@2@PEBUPxDebugText@2@I@Z 0000000180024cf8     CctCharacterControllerManager.obj
 0002:00002d08       $unwind$?resize@?$Array@PEBXV?$ReflectionAllocator@PEBX@shdfnd@physx@@@shdfnd@physx@@QEAAXIAEBQEBX@Z 0000000180024d08     CctCharacterControllerManager.obj
 0002:00002d18       $unwind$?recreate@?$Array@PEBXV?$ReflectionAllocator@PEBX@shdfnd@physx@@@shdfnd@physx@@IEAAXI@Z 0000000180024d18     CctCharacterControllerManager.obj
 0002:00002d2c       $unwind$?resize@?$Array@VPxExtendedBox@physx@@V?$ReflectionAllocator@VPxExtendedBox@physx@@@shdfnd@2@@shdfnd@physx@@QEAAXIAEBVPxExtendedBox@3@@Z 0000000180024d2c     CctCharacterControllerManager.obj
 0002:00002d3c       $unwind$?recreate@?$Array@VPxExtendedBox@physx@@V?$ReflectionAllocator@VPxExtendedBox@physx@@@shdfnd@2@@shdfnd@physx@@IEAAXI@Z 0000000180024d3c     CctCharacterControllerManager.obj
 0002:00002d4c       $chain$0$?recreate@?$Array@VPxExtendedBox@physx@@V?$ReflectionAllocator@VPxExtendedBox@physx@@@shdfnd@2@@shdfnd@physx@@IEAAXI@Z 0000000180024d4c     CctCharacterControllerManager.obj
 0002:00002d60       $chain$1$?recreate@?$Array@VPxExtendedBox@physx@@V?$ReflectionAllocator@VPxExtendedBox@physx@@@shdfnd@2@@shdfnd@physx@@IEAAXI@Z 0000000180024d60     CctCharacterControllerManager.obj
 0002:00002d70       $unwind$?resize@?$Array@UPxExtendedCapsule@physx@@V?$ReflectionAllocator@UPxExtendedCapsule@physx@@@shdfnd@2@@shdfnd@physx@@QEAAXIAEBUPxExtendedCapsule@3@@Z 0000000180024d70     CctCharacterControllerManager.obj
 0002:00002d80       $unwind$?recreate@?$Array@UPxExtendedCapsule@physx@@V?$ReflectionAllocator@UPxExtendedCapsule@physx@@@shdfnd@2@@shdfnd@physx@@IEAAXI@Z 0000000180024d80     CctCharacterControllerManager.obj
 0002:00002d94       $unwind$?allocate@?$ReflectionAllocator@PEAVController@Cct@physx@@@shdfnd@physx@@QEAAPEAX_KPEBDH@Z 0000000180024d94     CctCharacterControllerManager.obj
 0002:00002da4       $chain$0$?allocate@?$ReflectionAllocator@PEAVController@Cct@physx@@@shdfnd@physx@@QEAAPEAX_KPEBDH@Z 0000000180024da4     CctCharacterControllerManager.obj
 0002:00002db8       $chain$1$?allocate@?$ReflectionAllocator@PEAVController@Cct@physx@@@shdfnd@physx@@QEAAPEAX_KPEBDH@Z 0000000180024db8     CctCharacterControllerManager.obj
 0002:00002dc8       $unwind$?growAndPushBack@?$Array@PEAVController@Cct@physx@@V?$ReflectionAllocator@PEAVController@Cct@physx@@@shdfnd@3@@shdfnd@physx@@IEAAAEAPEAVController@Cct@3@AEBQEAV453@@Z 0000000180024dc8     CctCharacterControllerManager.obj
 0002:00002ddc       $unwind$?create@?$HashBase@PEAVPxShape@physx@@PEAV12@U?$Hash@PEAVPxShape@physx@@@shdfnd@2@UGetKey@?$HashSetBase@PEAVPxShape@physx@@U?$Hash@PEAVPxShape@physx@@@shdfnd@2@VNonTrackingAllocator@42@$0A@@internal@42@VNonTrackingAllocator@42@$0A@@internal@shdfnd@physx@@QEAAPEAPEAVPxShape@4@AEBQEAV54@AEA_N@Z 0000000180024ddc     CctCharacterControllerManager.obj
 0002:00002de8       $unwind$?freeListAdd@?$HashBase@PEAVPxShape@physx@@PEAV12@U?$Hash@PEAVPxShape@physx@@@shdfnd@2@UGetKey@?$HashSetBase@PEAVPxShape@physx@@U?$Hash@PEAVPxShape@physx@@@shdfnd@2@VNonTrackingAllocator@42@$0A@@internal@42@VNonTrackingAllocator@42@$0A@@internal@shdfnd@physx@@AEAAXII@Z 0000000180024de8     CctCharacterControllerManager.obj
 0002:00002df0       $chain$2$?freeListAdd@?$HashBase@PEAVPxShape@physx@@PEAV12@U?$Hash@PEAVPxShape@physx@@@shdfnd@2@UGetKey@?$HashSetBase@PEAVPxShape@physx@@U?$Hash@PEAVPxShape@physx@@@shdfnd@2@VNonTrackingAllocator@42@$0A@@internal@42@VNonTrackingAllocator@42@$0A@@internal@shdfnd@physx@@AEAAXII@Z 0000000180024df0     CctCharacterControllerManager.obj
 0002:00002e0c       $chain$3$?freeListAdd@?$HashBase@PEAVPxShape@physx@@PEAV12@U?$Hash@PEAVPxShape@physx@@@shdfnd@2@UGetKey@?$HashSetBase@PEAVPxShape@physx@@U?$Hash@PEAVPxShape@physx@@@shdfnd@2@VNonTrackingAllocator@42@$0A@@internal@42@VNonTrackingAllocator@42@$0A@@internal@shdfnd@physx@@AEAAXII@Z 0000000180024e0c     CctCharacterControllerManager.obj
 0002:00002e1c       $unwind$?reserveInternal@?$HashBase@PEAVPxShape@physx@@PEAV12@U?$Hash@PEAVPxShape@physx@@@shdfnd@2@UGetKey@?$HashSetBase@PEAVPxShape@physx@@U?$Hash@PEAVPxShape@physx@@@shdfnd@2@VNonTrackingAllocator@42@$0A@@internal@42@VNonTrackingAllocator@42@$0A@@internal@shdfnd@physx@@AEAAXI@Z 0000000180024e1c     CctCharacterControllerManager.obj
 0002:00002e34       $unwind$?allocate@?$ReflectionAllocator@PEAVObstacleContext@Cct@physx@@@shdfnd@physx@@QEAAPEAX_KPEBDH@Z 0000000180024e34     CctCharacterControllerManager.obj
 0002:00002e44       $chain$0$?allocate@?$ReflectionAllocator@PEAVObstacleContext@Cct@physx@@@shdfnd@physx@@QEAAPEAX_KPEBDH@Z 0000000180024e44     CctCharacterControllerManager.obj
 0002:00002e58       $chain$1$?allocate@?$ReflectionAllocator@PEAVObstacleContext@Cct@physx@@@shdfnd@physx@@QEAAPEAX_KPEBDH@Z 0000000180024e58     CctCharacterControllerManager.obj
 0002:00002e68       $unwind$?growAndPushBack@?$Array@PEAVObstacleContext@Cct@physx@@V?$ReflectionAllocator@PEAVObstacleContext@Cct@physx@@@shdfnd@3@@shdfnd@physx@@IEAAAEAPEAVObstacleContext@Cct@3@AEBQEAV453@@Z 0000000180024e68     CctCharacterControllerManager.obj
 0002:00002e7c       $unwind$?create@?$HashBase@V?$Pair@QEBVPxBase@physx@@UObservedRefCounter@Cct@2@@shdfnd@physx@@PEBVPxBase@3@U?$Hash@PEBVPxBase@physx@@@23@UGetKey@?$HashMapBase@PEBVPxBase@physx@@UObservedRefCounter@Cct@2@U?$Hash@PEBVPxBase@physx@@@shdfnd@2@VNonTrackingAllocator@62@@internal@23@VNonTrackingAllocator@23@$00@internal@shdfnd@physx@@QEAAPEAV?$Pair@QEBVPxBase@physx@@UObservedRefCounter@Cct@2@@34@AEBQEBVPxBase@4@AEA_N@Z 0000000180024e7c     CctCharacterControllerManager.obj
 0002:00002e88       $unwind$?erase@?$HashBase@V?$Pair@QEBVPxBase@physx@@UObservedRefCounter@Cct@2@@shdfnd@physx@@PEBVPxBase@3@U?$Hash@PEBVPxBase@physx@@@23@UGetKey@?$HashMapBase@PEBVPxBase@physx@@UObservedRefCounter@Cct@2@U?$Hash@PEBVPxBase@physx@@@shdfnd@2@VNonTrackingAllocator@62@@internal@23@VNonTrackingAllocator@23@$00@internal@shdfnd@physx@@QEAA_NAEBQEBVPxBase@4@@Z 0000000180024e88     CctCharacterControllerManager.obj
 0002:00002e90       $unwind$?replaceWithLast@?$HashBase@V?$Pair@QEBVPxBase@physx@@UObservedRefCounter@Cct@2@@shdfnd@physx@@PEBVPxBase@3@U?$Hash@PEBVPxBase@physx@@@23@UGetKey@?$HashMapBase@PEBVPxBase@physx@@UObservedRefCounter@Cct@2@U?$Hash@PEBVPxBase@physx@@@shdfnd@2@VNonTrackingAllocator@62@@internal@23@VNonTrackingAllocator@23@$00@internal@shdfnd@physx@@AEAAXI@Z 0000000180024e90     CctCharacterControllerManager.obj
 0002:00002e98       $unwind$?reserveInternal@?$HashBase@V?$Pair@QEBVPxBase@physx@@UObservedRefCounter@Cct@2@@shdfnd@physx@@PEBVPxBase@3@U?$Hash@PEBVPxBase@physx@@@23@UGetKey@?$HashMapBase@PEBVPxBase@physx@@UObservedRefCounter@Cct@2@U?$Hash@PEBVPxBase@physx@@@shdfnd@2@VNonTrackingAllocator@62@@internal@23@VNonTrackingAllocator@23@$00@internal@shdfnd@physx@@AEAAXI@Z 0000000180024e98     CctCharacterControllerManager.obj
 0002:00002eb4       $unwind$??_GCharacterControllerManager@Cct@physx@@UEAAPEAXI@Z 0000000180024eb4     CctCharacterControllerManager.obj
 0002:00002ec0       $unwind$??$resetOrClear@V?$Array@PEBXV?$ReflectionAllocator@PEBX@shdfnd@physx@@@shdfnd@physx@@@@YAXAEAV?$Array@PEBXV?$ReflectionAllocator@PEBX@shdfnd@physx@@@shdfnd@physx@@@Z 0000000180024ec0     CctCharacterControllerManager.obj
 0002:00002ec8       $unwind$??$resetOrClear@V?$Array@VPxExtendedBox@physx@@V?$ReflectionAllocator@VPxExtendedBox@physx@@@shdfnd@2@@shdfnd@physx@@@@YAXAEAV?$Array@VPxExtendedBox@physx@@V?$ReflectionAllocator@VPxExtendedBox@physx@@@shdfnd@2@@shdfnd@physx@@@Z 0000000180024ec8     CctCharacterControllerManager.obj
 0002:00002ed0       $unwind$??$resetOrClear@V?$Array@UPxExtendedCapsule@physx@@V?$ReflectionAllocator@UPxExtendedCapsule@physx@@@shdfnd@2@@shdfnd@physx@@@@YAXAEAV?$Array@UPxExtendedCapsule@physx@@V?$ReflectionAllocator@UPxExtendedCapsule@physx@@@shdfnd@2@@shdfnd@physx@@@Z 0000000180024ed0     CctCharacterControllerManager.obj
 0002:00002ed8       $unwind$?computeMTD@@YA_NAEAVPxVec3@physx@@AEAMAEBV12@2AEBVPxMat33@2@223@Z 0000000180024ed8     CctCharacterControllerManager.obj
 0002:00002f18       $unwind$?fixDir@@YA?AVPxVec3@physx@@AEBV12@0@Z 0000000180024f18     CctCharacterControllerManager.obj
 0002:00002f2c       $unwind$?InteractionCharacterCharacter@@YAXPEAVController@Cct@physx@@0M@Z 0000000180024f2c     CctCharacterControllerManager.obj
 0002:00002f64       $unwind$??0Controller@Cct@physx@@QEAA@AEBVPxControllerDesc@2@PEAVPxScene@2@@Z 0000000180024f64     CctController.obj
 0002:00002f7c       $unwind$??1Controller@Cct@physx@@UEAA@XZ 0000000180024f7c     CctController.obj
 0002:00002f88       $unwind$?releaseInternal@Controller@Cct@physx@@QEAAXXZ 0000000180024f88     CctController.obj
 0002:00002f90       $unwind$?getInternalState@Controller@Cct@physx@@QEBAXAEAUPxControllerState@3@@Z 0000000180024f90     CctController.obj
 0002:00002f9c       $unwind$?onOriginShift@Controller@Cct@physx@@QEAAXAEBVPxVec3@3@@Z 0000000180024f9c     CctController.obj
 0002:00002fa8       $unwind$?setUpDirectionInternal@Controller@Cct@physx@@IEAAXAEBVPxVec3@3@@Z 0000000180024fa8     CctController.obj
 0002:00002fb4       $unwind$?getKineShape@Controller@Cct@physx@@IEBAPEAVPxShape@3@XZ 0000000180024fb4     CctController.obj
 0002:00002fbc       $unwind$?createProxyActor@Controller@Cct@physx@@IEAA_NAEAVPxPhysics@3@AEBVPxGeometry@3@AEBVPxMaterial@3@@Z 0000000180024fbc     CctController.obj
 0002:00002fcc       $unwind$?setPos@Controller@Cct@physx@@IEAA_NAEBUPxExtendedVec3@3@@Z 0000000180024fcc     CctController.obj
 0002:00002fd4       $unwind$??_GController@Cct@physx@@UEAAPEAXI@Z 0000000180024fd4     CctController.obj
 0002:00002fe0       $unwind$??_GPxObstacleContext@physx@@UEAAPEAXI@Z 0000000180024fe0     CctObstacleContext.obj
 0002:00002fe8       $unwind$??0HandleManager@Cct@physx@@QEAA@XZ 0000000180024fe8     CctObstacleContext.obj
 0002:00002ff8       $unwind$??1HandleManager@Cct@physx@@QEAA@XZ 0000000180024ff8     CctObstacleContext.obj
 0002:00003000       $unwind$?Add@HandleManager@Cct@physx@@QEAAIPEAX@Z 0000000180025000     CctObstacleContext.obj
 0002:0000300c       $chain$4$?Add@HandleManager@Cct@physx@@QEAAIPEAX@Z 000000018002500c     CctObstacleContext.obj
 0002:00003030       $chain$5$?Add@HandleManager@Cct@physx@@QEAAIPEAX@Z 0000000180025030     CctObstacleContext.obj
 0002:00003040       $unwind$?Remove@HandleManager@Cct@physx@@QEAAXI@Z 0000000180025040     CctObstacleContext.obj
 0002:00003048       $chain$1$?Remove@HandleManager@Cct@physx@@QEAAXI@Z 0000000180025048     CctObstacleContext.obj
 0002:00003060       $chain$2$?Remove@HandleManager@Cct@physx@@QEAAXI@Z 0000000180025060     CctObstacleContext.obj
 0002:00003070       $unwind$?SetupLists@HandleManager@Cct@physx@@AEAA_NPEAPEAXPEAG11@Z 0000000180025070     CctObstacleContext.obj
 0002:00003088       $unwind$??0ObstacleContext@Cct@physx@@QEAA@AEAVCharacterControllerManager@12@@Z 0000000180025088     CctObstacleContext.obj
 0002:00003094       $unwind$??1ObstacleContext@Cct@physx@@UEAA@XZ 0000000180025094     CctObstacleContext.obj
 0002:000030a0       $unwind$?addObstacle@ObstacleContext@Cct@physx@@UEAAIAEBVPxObstacle@3@@Z 00000001800250a0     CctObstacleContext.obj
 0002:000030c4       $chain$0$?addObstacle@ObstacleContext@Cct@physx@@UEAAIAEBVPxObstacle@3@@Z 00000001800250c4     CctObstacleContext.obj
 0002:000030d8       $chain$1$?addObstacle@ObstacleContext@Cct@physx@@UEAAIAEBVPxObstacle@3@@Z 00000001800250d8     CctObstacleContext.obj
 0002:000030e8       $unwind$?removeObstacle@ObstacleContext@Cct@physx@@UEAA_NI@Z 00000001800250e8     CctObstacleContext.obj
 0002:000030fc       $chain$1$?removeObstacle@ObstacleContext@Cct@physx@@UEAA_NI@Z 00000001800250fc     CctObstacleContext.obj
 0002:00003114       $chain$2$?removeObstacle@ObstacleContext@Cct@physx@@UEAA_NI@Z 0000000180025114     CctObstacleContext.obj
 0002:00003124       $chain$3$?removeObstacle@ObstacleContext@Cct@physx@@UEAA_NI@Z 0000000180025124     CctObstacleContext.obj
 0002:0000313c       $chain$4$?removeObstacle@ObstacleContext@Cct@physx@@UEAA_NI@Z 000000018002513c     CctObstacleContext.obj
 0002:0000314c       $unwind$?updateObstacle@ObstacleContext@Cct@physx@@UEAA_NIAEBVPxObstacle@3@@Z 000000018002514c     CctObstacleContext.obj
 0002:00003154       $unwind$?raycastSingle@ObstacleContext@Cct@physx@@QEBAPEBVPxObstacle@3@AEAUPxRaycastHit@3@AEBVPxVec3@3@1MAEAI@Z 0000000180025154     CctObstacleContext.obj
 0002:00003178       $unwind$?raycastSingle@ObstacleContext@Cct@physx@@QEBAPEBVPxObstacle@3@AEAUPxRaycastHit@3@AEBIAEBVPxVec3@3@2M@Z 0000000180025178     CctObstacleContext.obj
 0002:0000318c       $unwind$?allocate@?$ReflectionAllocator@UInternalBoxObstacle@ObstacleContext@Cct@physx@@@shdfnd@physx@@QEAAPEAX_KPEBDH@Z 000000018002518c     CctObstacleContext.obj
 0002:0000319c       $chain$0$?allocate@?$ReflectionAllocator@UInternalBoxObstacle@ObstacleContext@Cct@physx@@@shdfnd@physx@@QEAAPEAX_KPEBDH@Z 000000018002519c     CctObstacleContext.obj
 0002:000031b0       $chain$1$?allocate@?$ReflectionAllocator@UInternalBoxObstacle@ObstacleContext@Cct@physx@@@shdfnd@physx@@QEAAPEAX_KPEBDH@Z 00000001800251b0     CctObstacleContext.obj
 0002:000031c0       $unwind$?copy@?$Array@UInternalBoxObstacle@ObstacleContext@Cct@physx@@V?$ReflectionAllocator@UInternalBoxObstacle@ObstacleContext@Cct@physx@@@shdfnd@4@@shdfnd@physx@@KAXPEAUInternalBoxObstacle@ObstacleContext@Cct@3@0PEBU4563@@Z 00000001800251c0     CctObstacleContext.obj
 0002:000031c8       $chain$0$?copy@?$Array@UInternalBoxObstacle@ObstacleContext@Cct@physx@@V?$ReflectionAllocator@UInternalBoxObstacle@ObstacleContext@Cct@physx@@@shdfnd@4@@shdfnd@physx@@KAXPEAUInternalBoxObstacle@ObstacleContext@Cct@3@0PEBU4563@@Z 00000001800251c8     CctObstacleContext.obj
 0002:000031dc       $chain$1$?copy@?$Array@UInternalBoxObstacle@ObstacleContext@Cct@physx@@V?$ReflectionAllocator@UInternalBoxObstacle@ObstacleContext@Cct@physx@@@shdfnd@4@@shdfnd@physx@@KAXPEAUInternalBoxObstacle@ObstacleContext@Cct@3@0PEBU4563@@Z 00000001800251dc     CctObstacleContext.obj
 0002:000031ec       $unwind$?growAndPushBack@?$Array@UInternalBoxObstacle@ObstacleContext@Cct@physx@@V?$ReflectionAllocator@UInternalBoxObstacle@ObstacleContext@Cct@physx@@@shdfnd@4@@shdfnd@physx@@IEAAAEAUInternalBoxObstacle@ObstacleContext@Cct@3@AEBU4563@@Z 00000001800251ec     CctObstacleContext.obj
 0002:00003204       $unwind$?allocate@?$ReflectionAllocator@UInternalCapsuleObstacle@ObstacleContext@Cct@physx@@@shdfnd@physx@@QEAAPEAX_KPEBDH@Z 0000000180025204     CctObstacleContext.obj
 0002:00003214       $chain$0$?allocate@?$ReflectionAllocator@UInternalCapsuleObstacle@ObstacleContext@Cct@physx@@@shdfnd@physx@@QEAAPEAX_KPEBDH@Z 0000000180025214     CctObstacleContext.obj
 0002:00003228       $chain$1$?allocate@?$ReflectionAllocator@UInternalCapsuleObstacle@ObstacleContext@Cct@physx@@@shdfnd@physx@@QEAAPEAX_KPEBDH@Z 0000000180025228     CctObstacleContext.obj
 0002:00003238       $unwind$?copy@?$Array@UInternalCapsuleObstacle@ObstacleContext@Cct@physx@@V?$ReflectionAllocator@UInternalCapsuleObstacle@ObstacleContext@Cct@physx@@@shdfnd@4@@shdfnd@physx@@KAXPEAUInternalCapsuleObstacle@ObstacleContext@Cct@3@0PEBU4563@@Z 0000000180025238     CctObstacleContext.obj
 0002:00003240       $chain$0$?copy@?$Array@UInternalCapsuleObstacle@ObstacleContext@Cct@physx@@V?$ReflectionAllocator@UInternalCapsuleObstacle@ObstacleContext@Cct@physx@@@shdfnd@4@@shdfnd@physx@@KAXPEAUInternalCapsuleObstacle@ObstacleContext@Cct@3@0PEBU4563@@Z 0000000180025240     CctObstacleContext.obj
 0002:00003254       $chain$1$?copy@?$Array@UInternalCapsuleObstacle@ObstacleContext@Cct@physx@@V?$ReflectionAllocator@UInternalCapsuleObstacle@ObstacleContext@Cct@physx@@@shdfnd@4@@shdfnd@physx@@KAXPEAUInternalCapsuleObstacle@ObstacleContext@Cct@3@0PEBU4563@@Z 0000000180025254     CctObstacleContext.obj
 0002:00003264       $unwind$?growAndPushBack@?$Array@UInternalCapsuleObstacle@ObstacleContext@Cct@physx@@V?$ReflectionAllocator@UInternalCapsuleObstacle@ObstacleContext@Cct@physx@@@shdfnd@4@@shdfnd@physx@@IEAAAEAUInternalCapsuleObstacle@ObstacleContext@Cct@3@AEBU4563@@Z 0000000180025264     CctObstacleContext.obj
 0002:0000327c       $unwind$??_GObstacleContext@Cct@physx@@UEAAPEAXI@Z 000000018002527c     CctObstacleContext.obj
 0002:00003288       $unwind$??0SweptBox@Cct@physx@@QEAA@XZ 0000000180025288     CctSweptBox.obj
 0002:00003290       $unwind$?computeTemporalBox@SweptBox@Cct@physx@@UEBAXAEBVSweepTest@23@AEAUPxExtendedBounds3@3@AEBUPxExtendedVec3@3@AEBVPxVec3@3@@Z 0000000180025290     CctSweptBox.obj
 0002:00003298       $unwind$??_GSweptBox@Cct@physx@@UEAAPEAXI@Z 0000000180025298     CctSweptBox.obj
 0002:000032a4       $unwind$??0SweptCapsule@Cct@physx@@QEAA@XZ 00000001800252a4     CctSweptCapsule.obj
 0002:000032ac       $unwind$?computeTemporalBox@SweptCapsule@Cct@physx@@UEBAXAEBVSweepTest@23@AEAUPxExtendedBounds3@3@AEBUPxExtendedVec3@3@AEBVPxVec3@3@@Z 00000001800252ac     CctSweptCapsule.obj
 0002:000032b4       $unwind$??_GSweptCapsule@Cct@physx@@UEAAPEAXI@Z 00000001800252b4     CctSweptCapsule.obj
 0002:000032c0       $unwind$??_GSweptVolume@Cct@physx@@UEAAPEAXI@Z 00000001800252c0     CctSweptVolume.obj
 0002:000032c8       $unwind$?computeTemporalBox@Cct@physx@@YAXAEAUPxExtendedBounds3@2@MMMMAEBVPxVec3@2@AEBUPxExtendedVec3@2@1@Z 00000001800252c8     CctSweptVolume.obj
 0002:000032fc       $unwind$??1PxMeshOverlapUtil@physx@@QEAA@XZ 00000001800252fc     PhysX3Extensions:ExtTriangleMeshExt.obj
 0002:00003304       $unwind$?findOverlap@PxMeshOverlapUtil@physx@@QEAAIAEBVPxGeometry@2@AEBVPxTransform@2@AEBVPxTriangleMeshGeometry@2@1@Z 0000000180025304     PhysX3Extensions:ExtTriangleMeshExt.obj
 0002:00003318       $chain$0$?findOverlap@PxMeshOverlapUtil@physx@@QEAAIAEBVPxGeometry@2@AEBVPxTransform@2@AEBVPxTriangleMeshGeometry@2@1@Z 0000000180025318     PhysX3Extensions:ExtTriangleMeshExt.obj
 0002:0000332c       $chain$1$?findOverlap@PxMeshOverlapUtil@physx@@QEAAIAEBVPxGeometry@2@AEBVPxTransform@2@AEBVPxTriangleMeshGeometry@2@1@Z 000000018002532c     PhysX3Extensions:ExtTriangleMeshExt.obj
 0002:0000333c       $unwind$?findOverlap@PxMeshOverlapUtil@physx@@QEAAIAEBVPxGeometry@2@AEBVPxTransform@2@AEBVPxHeightFieldGeometry@2@1@Z 000000018002533c     PhysX3Extensions:ExtTriangleMeshExt.obj
 0002:00003358       $unwind$?PxComputeMeshPenetration@physx@@YA?AVPxVec3@1@IAEBVPxGeometry@1@AEBVPxTransform@1@AEBVPxTriangleMeshGeometry@1@1AEAI@Z 0000000180025358     PhysX3Extensions:ExtTriangleMeshExt.obj
 0002:00003360       $unwind$?PxComputeHeightFieldPenetration@physx@@YA?AVPxVec3@1@IAEBVPxGeometry@1@AEBVPxTransform@1@AEBVPxHeightFieldGeometry@1@1AEAI@Z 0000000180025360     PhysX3Extensions:ExtTriangleMeshExt.obj
 0002:00003368       $unwind$??$computeMeshPenetrationT@VPxTriangleMeshGeometry@physx@@@?A0x039ec4c9@@YA_NAEAVPxVec3@physx@@AEAMAEBVPxGeometry@2@AEBVPxTransform@2@AEBVPxTriangleMeshGeometry@2@3IPEAI@Z 0000000180025368     PhysX3Extensions:ExtTriangleMeshExt.obj
 0002:00003374       $chain$3$??$computeMeshPenetrationT@VPxTriangleMeshGeometry@physx@@@?A0x039ec4c9@@YA_NAEAVPxVec3@physx@@AEAMAEBVPxGeometry@2@AEBVPxTransform@2@AEBVPxTriangleMeshGeometry@2@3IPEAI@Z 0000000180025374     PhysX3Extensions:ExtTriangleMeshExt.obj
 0002:00003394       $chain$5$??$computeMeshPenetrationT@VPxTriangleMeshGeometry@physx@@@?A0x039ec4c9@@YA_NAEAVPxVec3@physx@@AEAMAEBVPxGeometry@2@AEBVPxTransform@2@AEBVPxTriangleMeshGeometry@2@3IPEAI@Z 0000000180025394     PhysX3Extensions:ExtTriangleMeshExt.obj
 0002:000033ac       $chain$6$??$computeMeshPenetrationT@VPxTriangleMeshGeometry@physx@@@?A0x039ec4c9@@YA_NAEAVPxVec3@physx@@AEAMAEBVPxGeometry@2@AEBVPxTransform@2@AEBVPxTriangleMeshGeometry@2@3IPEAI@Z 00000001800253ac     PhysX3Extensions:ExtTriangleMeshExt.obj
 0002:000033bc       $chain$7$??$computeMeshPenetrationT@VPxTriangleMeshGeometry@physx@@@?A0x039ec4c9@@YA_NAEAVPxVec3@physx@@AEAMAEBVPxGeometry@2@AEBVPxTransform@2@AEBVPxTriangleMeshGeometry@2@3IPEAI@Z 00000001800253bc     PhysX3Extensions:ExtTriangleMeshExt.obj
 0002:000033d4       $chain$8$??$computeMeshPenetrationT@VPxTriangleMeshGeometry@physx@@@?A0x039ec4c9@@YA_NAEAVPxVec3@physx@@AEAMAEBVPxGeometry@2@AEBVPxTransform@2@AEBVPxTriangleMeshGeometry@2@3IPEAI@Z 00000001800253d4     PhysX3Extensions:ExtTriangleMeshExt.obj
 0002:000033e4       $unwind$??$computeMeshPenetrationT@VPxHeightFieldGeometry@physx@@@?A0x039ec4c9@@YA_NAEAVPxVec3@physx@@AEAMAEBVPxGeometry@2@AEBVPxTransform@2@AEBVPxHeightFieldGeometry@2@3IPEAI@Z 00000001800253e4     PhysX3Extensions:ExtTriangleMeshExt.obj
 0002:000033f0       $chain$3$??$computeMeshPenetrationT@VPxHeightFieldGeometry@physx@@@?A0x039ec4c9@@YA_NAEAVPxVec3@physx@@AEAMAEBVPxGeometry@2@AEBVPxTransform@2@AEBVPxHeightFieldGeometry@2@3IPEAI@Z 00000001800253f0     PhysX3Extensions:ExtTriangleMeshExt.obj
 0002:00003410       $chain$5$??$computeMeshPenetrationT@VPxHeightFieldGeometry@physx@@@?A0x039ec4c9@@YA_NAEAVPxVec3@physx@@AEAMAEBVPxGeometry@2@AEBVPxTransform@2@AEBVPxHeightFieldGeometry@2@3IPEAI@Z 0000000180025410     PhysX3Extensions:ExtTriangleMeshExt.obj
 0002:00003428       $chain$6$??$computeMeshPenetrationT@VPxHeightFieldGeometry@physx@@@?A0x039ec4c9@@YA_NAEAVPxVec3@physx@@AEAMAEBVPxGeometry@2@AEBVPxTransform@2@AEBVPxHeightFieldGeometry@2@3IPEAI@Z 0000000180025428     PhysX3Extensions:ExtTriangleMeshExt.obj
 0002:00003438       $chain$7$??$computeMeshPenetrationT@VPxHeightFieldGeometry@physx@@@?A0x039ec4c9@@YA_NAEAVPxVec3@physx@@AEAMAEBVPxGeometry@2@AEBVPxTransform@2@AEBVPxHeightFieldGeometry@2@3IPEAI@Z 0000000180025438     PhysX3Extensions:ExtTriangleMeshExt.obj
 0002:00003450       $chain$8$??$computeMeshPenetrationT@VPxHeightFieldGeometry@physx@@@?A0x039ec4c9@@YA_NAEAVPxVec3@physx@@AEAMAEBVPxGeometry@2@AEBVPxTransform@2@AEBVPxHeightFieldGeometry@2@3IPEAI@Z 0000000180025450     PhysX3Extensions:ExtTriangleMeshExt.obj
 0002:00003460       $unwind$?transformFast@PxBounds3@physx@@SA?AV12@AEBVPxTransform@2@AEBV12@@Z 0000000180025460     PhysX3Extensions:ExtRigidBodyExt.obj
 0002:00003490       $unwind$??_G?$PxHitCallback@UPxSweepHit@physx@@@physx@@UEAAPEAXI@Z 0000000180025490     PhysX3Extensions:ExtRigidBodyExt.obj
 0002:00003498       $unwind$??_G?$PxHitBuffer@UPxSweepHit@physx@@@physx@@UEAAPEAXI@Z 0000000180025498     PhysX3Extensions:ExtRigidBodyExt.obj
 0002:000034a0       $unwind$??0PxMassProperties@physx@@QEAA@AEBVPxGeometry@1@@Z 00000001800254a0     PhysX3Extensions:ExtRigidBodyExt.obj
 0002:000034bc       $chain$6$??0PxMassProperties@physx@@QEAA@AEBVPxGeometry@1@@Z 00000001800254bc     PhysX3Extensions:ExtRigidBodyExt.obj
 0002:000034e8       $chain$7$??0PxMassProperties@physx@@QEAA@AEBVPxGeometry@1@@Z 00000001800254e8     PhysX3Extensions:ExtRigidBodyExt.obj
 0002:000034f8       $unwind$?scaleInertia@PxMassProperties@physx@@SA?AVPxMat33@2@AEBV32@AEBVPxQuat@2@AEBVPxVec3@2@@Z 00000001800254f8     PhysX3Extensions:ExtRigidBodyExt.obj
 0002:00003528       $unwind$?sum@PxMassProperties@physx@@SA?AV12@PEBV12@PEBVPxTransform@2@I@Z 0000000180025528     PhysX3Extensions:ExtRigidBodyExt.obj
 0002:00003558       $unwind$?updateMassAndInertia@PxRigidBodyExt@physx@@SA_NAEAVPxRigidBody@2@PEBMIPEBVPxVec3@2@_N@Z 0000000180025558     PhysX3Extensions:ExtRigidBodyExt.obj
 0002:00003560       $unwind$?updateMassAndInertia@PxRigidBodyExt@physx@@SA_NAEAVPxRigidBody@2@MPEBVPxVec3@2@_N@Z 0000000180025560     PhysX3Extensions:ExtRigidBodyExt.obj
 0002:00003568       $unwind$?setMassAndUpdateInertia@PxRigidBodyExt@physx@@SA_NAEAVPxRigidBody@2@PEBMIPEBVPxVec3@2@_N@Z 0000000180025568     PhysX3Extensions:ExtRigidBodyExt.obj
 0002:00003570       $unwind$?setMassAndUpdateInertia@PxRigidBodyExt@physx@@SA_NAEAVPxRigidBody@2@MPEBVPxVec3@2@_N@Z 0000000180025570     PhysX3Extensions:ExtRigidBodyExt.obj
 0002:00003578       $unwind$?computeMassPropertiesFromShapes@PxRigidBodyExt@physx@@SA?AVPxMassProperties@2@PEBQEBVPxShape@2@I@Z 0000000180025578     PhysX3Extensions:ExtRigidBodyExt.obj
 0002:00003588       $chain$1$?computeMassPropertiesFromShapes@PxRigidBodyExt@physx@@SA?AVPxMassProperties@2@PEBQEBVPxShape@2@I@Z 0000000180025588     PhysX3Extensions:ExtRigidBodyExt.obj
 0002:000035a0       $chain$2$?computeMassPropertiesFromShapes@PxRigidBodyExt@physx@@SA?AVPxMassProperties@2@PEBQEBVPxShape@2@I@Z 00000001800255a0     PhysX3Extensions:ExtRigidBodyExt.obj
 0002:000035b4       $chain$3$?computeMassPropertiesFromShapes@PxRigidBodyExt@physx@@SA?AVPxMassProperties@2@PEBQEBVPxShape@2@I@Z 00000001800255b4     PhysX3Extensions:ExtRigidBodyExt.obj
 0002:000035c4       $chain$4$?computeMassPropertiesFromShapes@PxRigidBodyExt@physx@@SA?AVPxMassProperties@2@PEBQEBVPxShape@2@I@Z 00000001800255c4     PhysX3Extensions:ExtRigidBodyExt.obj
 0002:000035d4       $unwind$?addForceAtLocalPos@PxRigidBodyExt@physx@@SAXAEAVPxRigidBody@2@AEBVPxVec3@2@1W4Enum@PxForceMode@2@_N@Z 00000001800255d4     PhysX3Extensions:ExtRigidBodyExt.obj
 0002:00003608       $unwind$?addLocalForceAtPos@PxRigidBodyExt@physx@@SAXAEAVPxRigidBody@2@AEBVPxVec3@2@1W4Enum@PxForceMode@2@_N@Z 0000000180025608     PhysX3Extensions:ExtRigidBodyExt.obj
 0002:0000363c       $unwind$?addLocalForceAtLocalPos@PxRigidBodyExt@physx@@SAXAEAVPxRigidBody@2@AEBVPxVec3@2@1W4Enum@PxForceMode@2@_N@Z 000000018002563c     PhysX3Extensions:ExtRigidBodyExt.obj
 0002:00003674       $unwind$?getVelocityAtPos@PxRigidBodyExt@physx@@SA?AVPxVec3@2@AEBVPxRigidBody@2@AEBV32@@Z 0000000180025674     PhysX3Extensions:ExtRigidBodyExt.obj
 0002:000036a4       $unwind$?getLocalVelocityAtLocalPos@PxRigidBodyExt@physx@@SA?AVPxVec3@2@AEBVPxRigidBody@2@AEBV32@@Z 00000001800256a4     PhysX3Extensions:ExtRigidBodyExt.obj
 0002:000036e0       $unwind$?getVelocityAtOffset@PxRigidBodyExt@physx@@SA?AVPxVec3@2@AEBVPxRigidBody@2@AEBV32@@Z 00000001800256e0     PhysX3Extensions:ExtRigidBodyExt.obj
 0002:00003710       $unwind$?linearSweepSingle@PxRigidBodyExt@physx@@SA_NAEAVPxRigidBody@2@AEAVPxScene@2@AEBVPxVec3@2@MV?$PxFlags@W4Enum@PxHitFlag@physx@@G@2@AEAUPxSweepHit@2@AEAIAEBUPxQueryFilterData@2@PEAVPxQueryFilterCallback@2@PEBUPxQueryCache@2@M@Z 0000000180025710     PhysX3Extensions:ExtRigidBodyExt.obj
 0002:0000372c       $chain$2$?linearSweepSingle@PxRigidBodyExt@physx@@SA_NAEAVPxRigidBody@2@AEAVPxScene@2@AEBVPxVec3@2@MV?$PxFlags@W4Enum@PxHitFlag@physx@@G@2@AEAUPxSweepHit@2@AEAIAEBUPxQueryFilterData@2@PEAVPxQueryFilterCallback@2@PEBUPxQueryCache@2@M@Z 000000018002572c     PhysX3Extensions:ExtRigidBodyExt.obj
 0002:00003748       $chain$3$?linearSweepSingle@PxRigidBodyExt@physx@@SA_NAEAVPxRigidBody@2@AEAVPxScene@2@AEBVPxVec3@2@MV?$PxFlags@W4Enum@PxHitFlag@physx@@G@2@AEAUPxSweepHit@2@AEAIAEBUPxQueryFilterData@2@PEAVPxQueryFilterCallback@2@PEBUPxQueryCache@2@M@Z 0000000180025748     PhysX3Extensions:ExtRigidBodyExt.obj
 0002:00003758       $unwind$?linearSweepMultiple@PxRigidBodyExt@physx@@SAIAEAVPxRigidBody@2@AEAVPxScene@2@AEBVPxVec3@2@MV?$PxFlags@W4Enum@PxHitFlag@physx@@G@2@PEAUPxSweepHit@2@PEAIIAEAU72@AEAHAEA_NAEBUPxQueryFilterData@2@PEAVPxQueryFilterCallback@2@PEBUPxQueryCache@2@M@Z 0000000180025758     PhysX3Extensions:ExtRigidBodyExt.obj
 0002:00003774       $chain$1$?linearSweepMultiple@PxRigidBodyExt@physx@@SAIAEAVPxRigidBody@2@AEAVPxScene@2@AEBVPxVec3@2@MV?$PxFlags@W4Enum@PxHitFlag@physx@@G@2@PEAUPxSweepHit@2@PEAIIAEAU72@AEAHAEA_NAEBUPxQueryFilterData@2@PEAVPxQueryFilterCallback@2@PEBUPxQueryCache@2@M@Z 0000000180025774     PhysX3Extensions:ExtRigidBodyExt.obj
 0002:0000378c       $chain$2$?linearSweepMultiple@PxRigidBodyExt@physx@@SAIAEAVPxRigidBody@2@AEAVPxScene@2@AEBVPxVec3@2@MV?$PxFlags@W4Enum@PxHitFlag@physx@@G@2@PEAUPxSweepHit@2@PEAIIAEAU72@AEAHAEA_NAEBUPxQueryFilterData@2@PEAVPxQueryFilterCallback@2@PEBUPxQueryCache@2@M@Z 000000018002578c     PhysX3Extensions:ExtRigidBodyExt.obj
 0002:0000379c       $unwind$?computeVelocityDeltaFromImpulse@PxRigidBodyExt@physx@@SAXAEBVPxRigidBody@2@AEBVPxVec3@2@1AEAV42@2@Z 000000018002579c     PhysX3Extensions:ExtRigidBodyExt.obj
 0002:000037d4       $unwind$?computeVelocityDeltaFromImpulse@PxRigidBodyExt@physx@@SAXAEBVPxRigidBody@2@AEBVPxTransform@2@AEBVPxVec3@2@2MMAEAV52@3@Z 00000001800257d4     PhysX3Extensions:ExtRigidBodyExt.obj
 0002:00003814       $unwind$?computeLinearAngularImpulse@PxRigidBodyExt@physx@@SAXAEBVPxRigidBody@2@AEBVPxTransform@2@AEBVPxVec3@2@2MMAEAV52@3@Z 0000000180025814     PhysX3Extensions:ExtRigidBodyExt.obj
 0002:00003844       $unwind$?translate@InertiaTensorComputer@Ext@physx@@QEAAXAEBVPxVec3@3@@Z 0000000180025844     PhysX3Extensions:ExtRigidBodyExt.obj
 0002:00003854       $chain$7$?translate@InertiaTensorComputer@Ext@physx@@QEAAXAEBVPxVec3@3@@Z 0000000180025854     PhysX3Extensions:ExtRigidBodyExt.obj
 0002:00003884       $chain$8$?translate@InertiaTensorComputer@Ext@physx@@QEAAXAEBVPxVec3@3@@Z 0000000180025884     PhysX3Extensions:ExtRigidBodyExt.obj
 0002:00003894       $unwind$?setCapsule@InertiaTensorComputer@Ext@physx@@QEAAXHMM@Z 0000000180025894     PhysX3Extensions:ExtRigidBodyExt.obj
 0002:000038a8       $unwind$?setEllipsoid@InertiaTensorComputer@Ext@physx@@QEAAXMMM@Z 00000001800258a8     PhysX3Extensions:ExtRigidBodyExt.obj
 0002:000038b4       $unwind$?rotate@InertiaTensorComputer@Ext@physx@@QEAAXAEBVPxMat33@3@@Z 00000001800258b4     PhysX3Extensions:ExtRigidBodyExt.obj
 0002:000038e4       $unwind$?transform@InertiaTensorComputer@Ext@physx@@QEAAXAEBVPxTransform@3@@Z 00000001800258e4     PhysX3Extensions:ExtRigidBodyExt.obj
 0002:00003914       $unwind$?transformInertiaTensor@Cm@physx@@YAXAEBVPxVec3@2@AEBVPxMat33@2@AEAV42@@Z 0000000180025914     PhysX3Extensions:ExtRigidBodyExt.obj
 0002:00003934       $unwind$?computeMassAndDiagInertia@@YA_NAEAVInertiaTensorComputer@Ext@physx@@AEAVPxVec3@3@AEAVPxQuat@3@AEAM1_NAEBVPxRigidBody@3@PEBD@Z 0000000180025934     PhysX3Extensions:ExtRigidBodyExt.obj
 0002:00003954       $chain$8$?computeMassAndDiagInertia@@YA_NAEAVInertiaTensorComputer@Ext@physx@@AEAVPxVec3@3@AEAVPxQuat@3@AEAM1_NAEBVPxRigidBody@3@PEBD@Z 0000000180025954     PhysX3Extensions:ExtRigidBodyExt.obj
 0002:00003988       $chain$9$?computeMassAndDiagInertia@@YA_NAEAVInertiaTensorComputer@Ext@physx@@AEAVPxVec3@3@AEAVPxQuat@3@AEAM1_NAEBVPxRigidBody@3@PEBD@Z 0000000180025988     PhysX3Extensions:ExtRigidBodyExt.obj
 0002:00003998       $unwind$?computeMassAndInertia@@YA_N_NAEAVPxRigidBody@physx@@PEBM2I0AEAVInertiaTensorComputer@Ext@2@@Z 0000000180025998     PhysX3Extensions:ExtRigidBodyExt.obj
 0002:000039a8       $chain$11$?computeMassAndInertia@@YA_N_NAEAVPxRigidBody@physx@@PEBM2I0AEAVInertiaTensorComputer@Ext@2@@Z 00000001800259a8     PhysX3Extensions:ExtRigidBodyExt.obj
 0002:000039e8       $chain$14$?computeMassAndInertia@@YA_N_NAEAVPxRigidBody@physx@@PEBM2I0AEAVInertiaTensorComputer@Ext@2@@Z 00000001800259e8     PhysX3Extensions:ExtRigidBodyExt.obj
 0002:00003a04       $chain$15$?computeMassAndInertia@@YA_N_NAEAVPxRigidBody@physx@@PEBM2I0AEAVInertiaTensorComputer@Ext@2@@Z 0000000180025a04     PhysX3Extensions:ExtRigidBodyExt.obj
 0002:00003a14       $unwind$?allocate@?$ReflectionAllocator@PEAVPxShape@physx@@@shdfnd@physx@@QEAAPEAX_KPEBDH@Z 0000000180025a14     PhysX3Extensions:ExtRigidBodyExt.obj
 0002:00003a24       $chain$0$?allocate@?$ReflectionAllocator@PEAVPxShape@physx@@@shdfnd@physx@@QEAAPEAX_KPEBDH@Z 0000000180025a24     PhysX3Extensions:ExtRigidBodyExt.obj
 0002:00003a38       $chain$1$?allocate@?$ReflectionAllocator@PEAVPxShape@physx@@@shdfnd@physx@@QEAAPEAX_KPEBDH@Z 0000000180025a38     PhysX3Extensions:ExtRigidBodyExt.obj
 0002:00003a48       $unwind$?resize@?$Array@PEAVPxShape@physx@@V?$InlineAllocator@$0IA@V?$ReflectionAllocator@PEAVPxShape@physx@@@shdfnd@physx@@@shdfnd@2@@shdfnd@physx@@QEAAXIAEBQEAVPxShape@3@@Z 0000000180025a48     PhysX3Extensions:ExtRigidBodyExt.obj
 0002:00003a58       $unwind$?recreate@?$Array@PEAVPxShape@physx@@V?$InlineAllocator@$0IA@V?$ReflectionAllocator@PEAVPxShape@physx@@@shdfnd@physx@@@shdfnd@2@@shdfnd@physx@@IEAAXI@Z 0000000180025a58     PhysX3Extensions:ExtRigidBodyExt.obj
 0002:00003a6c       $unwind$?updateMassAndInertia@@YA_N_NAEAVPxRigidBody@physx@@PEBMIPEBVPxVec3@2@0@Z 0000000180025a6c     PhysX3Extensions:ExtRigidBodyExt.obj
 0002:00003a84       $unwind$?setMassAndUpdateInertia@@YA_N_NAEAVPxRigidBody@physx@@PEBMIPEBVPxVec3@2@0@Z 0000000180025a84     PhysX3Extensions:ExtRigidBodyExt.obj
 0002:00003ab4       $unwind$?allocate@?$ReflectionAllocator@VPxMassProperties@physx@@@shdfnd@physx@@QEAAPEAX_KPEBDH@Z 0000000180025ab4     PhysX3Extensions:ExtRigidBodyExt.obj
 0002:00003ac4       $chain$0$?allocate@?$ReflectionAllocator@VPxMassProperties@physx@@@shdfnd@physx@@QEAAPEAX_KPEBDH@Z 0000000180025ac4     PhysX3Extensions:ExtRigidBodyExt.obj
 0002:00003ad8       $chain$1$?allocate@?$ReflectionAllocator@VPxMassProperties@physx@@@shdfnd@physx@@QEAAPEAX_KPEBDH@Z 0000000180025ad8     PhysX3Extensions:ExtRigidBodyExt.obj
 0002:00003ae8       $unwind$?copy@?$Array@VPxMassProperties@physx@@V?$InlineAllocator@$0DEA@V?$ReflectionAllocator@VPxMassProperties@physx@@@shdfnd@physx@@@shdfnd@2@@shdfnd@physx@@KAXPEAVPxMassProperties@3@0PEBV43@@Z 0000000180025ae8     PhysX3Extensions:ExtRigidBodyExt.obj
 0002:00003af0       $chain$0$?copy@?$Array@VPxMassProperties@physx@@V?$InlineAllocator@$0DEA@V?$ReflectionAllocator@VPxMassProperties@physx@@@shdfnd@physx@@@shdfnd@2@@shdfnd@physx@@KAXPEAVPxMassProperties@3@0PEBV43@@Z 0000000180025af0     PhysX3Extensions:ExtRigidBodyExt.obj
 0002:00003b04       $chain$1$?copy@?$Array@VPxMassProperties@physx@@V?$InlineAllocator@$0DEA@V?$ReflectionAllocator@VPxMassProperties@physx@@@shdfnd@physx@@@shdfnd@2@@shdfnd@physx@@KAXPEAVPxMassProperties@3@0PEBV43@@Z 0000000180025b04     PhysX3Extensions:ExtRigidBodyExt.obj
 0002:00003b14       $unwind$?growAndPushBack@?$Array@VPxMassProperties@physx@@V?$InlineAllocator@$0DEA@V?$ReflectionAllocator@VPxMassProperties@physx@@@shdfnd@physx@@@shdfnd@2@@shdfnd@physx@@IEAAAEAVPxMassProperties@3@AEBV43@@Z 0000000180025b14     PhysX3Extensions:ExtRigidBodyExt.obj
 0002:00003b2c       $unwind$?recreate@?$Array@VPxMassProperties@physx@@V?$InlineAllocator@$0DEA@V?$ReflectionAllocator@VPxMassProperties@physx@@@shdfnd@physx@@@shdfnd@2@@shdfnd@physx@@IEAAXI@Z 0000000180025b2c     PhysX3Extensions:ExtRigidBodyExt.obj
 0002:00003b40       $unwind$?allocate@?$ReflectionAllocator@VPxTransform@physx@@@shdfnd@physx@@QEAAPEAX_KPEBDH@Z 0000000180025b40     PhysX3Extensions:ExtRigidBodyExt.obj
 0002:00003b50       $chain$0$?allocate@?$ReflectionAllocator@VPxTransform@physx@@@shdfnd@physx@@QEAAPEAX_KPEBDH@Z 0000000180025b50     PhysX3Extensions:ExtRigidBodyExt.obj
 0002:00003b64       $chain$1$?allocate@?$ReflectionAllocator@VPxTransform@physx@@@shdfnd@physx@@QEAAPEAX_KPEBDH@Z 0000000180025b64     PhysX3Extensions:ExtRigidBodyExt.obj
 0002:00003b74       $unwind$?copy@?$Array@VPxTransform@physx@@V?$InlineAllocator@$0BMA@V?$ReflectionAllocator@VPxTransform@physx@@@shdfnd@physx@@@shdfnd@2@@shdfnd@physx@@KAXPEAVPxTransform@3@0PEBV43@@Z 0000000180025b74     PhysX3Extensions:ExtRigidBodyExt.obj
 0002:00003b7c       $chain$0$?copy@?$Array@VPxTransform@physx@@V?$InlineAllocator@$0BMA@V?$ReflectionAllocator@VPxTransform@physx@@@shdfnd@physx@@@shdfnd@2@@shdfnd@physx@@KAXPEAVPxTransform@3@0PEBV43@@Z 0000000180025b7c     PhysX3Extensions:ExtRigidBodyExt.obj
 0002:00003b90       $chain$1$?copy@?$Array@VPxTransform@physx@@V?$InlineAllocator@$0BMA@V?$ReflectionAllocator@VPxTransform@physx@@@shdfnd@physx@@@shdfnd@2@@shdfnd@physx@@KAXPEAVPxTransform@3@0PEBV43@@Z 0000000180025b90     PhysX3Extensions:ExtRigidBodyExt.obj
 0002:00003ba0       $unwind$?growAndPushBack@?$Array@VPxTransform@physx@@V?$InlineAllocator@$0BMA@V?$ReflectionAllocator@VPxTransform@physx@@@shdfnd@physx@@@shdfnd@2@@shdfnd@physx@@IEAAAEAVPxTransform@3@AEBV43@@Z 0000000180025ba0     PhysX3Extensions:ExtRigidBodyExt.obj
 0002:00003bb8       $unwind$?recreate@?$Array@VPxTransform@physx@@V?$InlineAllocator@$0BMA@V?$ReflectionAllocator@VPxTransform@physx@@@shdfnd@physx@@@shdfnd@2@@shdfnd@physx@@IEAAXI@Z 0000000180025bb8     PhysX3Extensions:ExtRigidBodyExt.obj
 0002:00003bcc       $unwind$?addForceAtPosInternal@@YAXAEAVPxRigidBody@physx@@AEBVPxVec3@2@1W4Enum@PxForceMode@2@_N@Z 0000000180025bcc     PhysX3Extensions:ExtRigidBodyExt.obj
 0002:00003be4       $chain$6$?addForceAtPosInternal@@YAXAEAVPxRigidBody@physx@@AEBVPxVec3@2@1W4Enum@PxForceMode@2@_N@Z 0000000180025be4     PhysX3Extensions:ExtRigidBodyExt.obj
 0002:00003c10       $chain$7$?addForceAtPosInternal@@YAXAEAVPxRigidBody@physx@@AEBVPxVec3@2@1W4Enum@PxForceMode@2@_N@Z 0000000180025c10     PhysX3Extensions:ExtRigidBodyExt.obj
 0002:00003c20       $unwind$?getVelocityAtPosInternal@@YA?AVPxVec3@physx@@AEBVPxRigidBody@2@AEBV12@@Z 0000000180025c20     PhysX3Extensions:ExtRigidBodyExt.obj
 0002:00003c38       $unwind$??_Gtype_info@@UEAAPEAXI@Z 0000000180025c38     MSVCRT:std_type_info_static.obj
 0002:00003c40       $xdatasym                  0000000180025c40     MSVCRT:_chkstk_.obj
 0002:00003c48       $unwind$?dllmain_crt_process_attach@@YAHQEAUHINSTANCE__@@QEAX@Z 0000000180025c48     MSVCRT:dll_dllmain.obj
 0002:00003c74       $unwind$?fin$0@?0??dllmain_crt_process_attach@@YAHQEAUHINSTANCE__@@QEAX@Z@4HA 0000000180025c74     MSVCRT:dll_dllmain.obj
 0002:00003c7c       $unwind$?dllmain_crt_process_detach@@YAH_N@Z 0000000180025c7c     MSVCRT:dll_dllmain.obj
 0002:00003ca4       $unwind$?fin$0@?0??dllmain_crt_process_detach@@YAH_N@Z@4HA 0000000180025ca4     MSVCRT:dll_dllmain.obj
 0002:00003cac       $unwind$?dllmain_crt_dispatch@@YAHQEAUHINSTANCE__@@KQEAX@Z 0000000180025cac     MSVCRT:dll_dllmain.obj
 0002:00003cb4       $unwind$?dllmain_raw@@YAHQEAUHINSTANCE__@@KQEAX@Z 0000000180025cb4     MSVCRT:dll_dllmain.obj
 0002:00003cc8       $unwind$?dllmain_dispatch@@YAHQEAUHINSTANCE__@@KQEAX@Z 0000000180025cc8     MSVCRT:dll_dllmain.obj
 0002:00003cf0       $unwind$?filt$0@?0??dllmain_dispatch@@YAHQEAUHINSTANCE__@@KQEAX@Z@4HA 0000000180025cf0     MSVCRT:dll_dllmain.obj
 0002:00003cf8       $unwind$_DllMainCRTStartup 0000000180025cf8     MSVCRT:dll_dllmain.obj
 0002:00003d08       $unwind$atexit             0000000180025d08     MSVCRT:utility.obj
 0002:00003d10       $unwind$_onexit            0000000180025d10     MSVCRT:utility.obj
 0002:00003d18       $unwind$__scrt_is_nonwritable_in_current_image 0000000180025d18     MSVCRT:utility.obj
 0002:00003d38       $unwind$__scrt_is_nonwritable_in_current_image$filt$0 0000000180025d38     MSVCRT:utility.obj
 0002:00003d40       $unwind$__scrt_acquire_startup_lock 0000000180025d40     MSVCRT:utility.obj
 0002:00003d48       $unwind$__scrt_release_startup_lock 0000000180025d48     MSVCRT:utility.obj
 0002:00003d50       $unwind$__scrt_initialize_crt 0000000180025d50     MSVCRT:utility.obj
 0002:00003d58       $unwind$__scrt_uninitialize_crt 0000000180025d58     MSVCRT:utility.obj
 0002:00003d60       $unwind$__scrt_initialize_onexit_tables 0000000180025d60     MSVCRT:utility.obj
 0002:00003d6c       $unwind$__scrt_dllmain_exception_filter 0000000180025d6c     MSVCRT:utility.obj
 0002:00003d80       $unwind$__scrt_dllmain_before_initialize_c 0000000180025d80     MSVCRT:utility.obj
 0002:00003d88       $unwind$__scrt_dllmain_after_initialize_c 0000000180025d88     MSVCRT:utility.obj
 0002:00003d90       $unwind$__scrt_dllmain_uninitialize_c 0000000180025d90     MSVCRT:utility.obj
 0002:00003d98       $unwind$__scrt_dllmain_uninitialize_critical 0000000180025d98     MSVCRT:utility.obj
 0002:00003da0       $unwind$__scrt_dllmain_crt_thread_attach 0000000180025da0     MSVCRT:utility.obj
 0002:00003da8       $unwind$__scrt_dllmain_crt_thread_detach 0000000180025da8     MSVCRT:utility.obj
 0002:00003db0       $unwind$?configure_argv@__scrt_narrow_argv_policy@@SAHXZ 0000000180025db0     MSVCRT:utility.obj
 0002:00003db8       $unwind$__security_init_cookie 0000000180025db8     MSVCRT:gs_support.obj
 0002:00003dc4       $unwind$DllMain            0000000180025dc4     MSVCRT:dll_dllmain_stub.obj
 0002:00003dcc       $unwind$__scrt_initialize_default_local_stdio_options 0000000180025dcc     MSVCRT:default_local_stdio_options.obj
 0002:00003dd4       $unwind$__scrt_get_show_window_mode 0000000180025dd4     MSVCRT:utility_desktop.obj
 0002:00003ddc       $unwind$__scrt_is_managed_app 0000000180025ddc     MSVCRT:utility_desktop.obj
 0002:00003de4       $unwind$__scrt_fastfail    0000000180025de4     MSVCRT:utility_desktop.obj
 0002:00003df4       $unwind$__scrt_unhandled_exception_filter 0000000180025df4     MSVCRT:utility_desktop.obj
 0002:00003dfc       $unwind$_RTC_Initialize    0000000180025dfc     MSVCRT:_initsect_.obj
 0002:00003e0c       $unwind$_RTC_Terminate     0000000180025e0c     MSVCRT:_initsect_.obj
 0002:00003e1c       $unwind$__isa_available_init 0000000180025e1c     MSVCRT:_cpu_disp_.obj
 0002:00003e30       $xdatasym                  0000000180025e30     MSVCRT:_guard_dispatch_.obj
 0002:00003e40       .edata                     0000000180025e40     PhysX3CharacterKinematic_x64.exp
 0002:00003e68       rgpv                       0000000180025e68     PhysX3CharacterKinematic_x64.exp
 0002:00003edc       rgszName                   0000000180025edc     PhysX3CharacterKinematic_x64.exp
 0002:00003f50       rgwOrd                     0000000180025f50     PhysX3CharacterKinematic_x64.exp
 0002:00003f8a       szName                     0000000180025f8a     PhysX3CharacterKinematic_x64.exp
 0002:00003fab       $N00001                    0000000180025fab     PhysX3CharacterKinematic_x64.exp
 0002:00003fd2       $N00002                    0000000180025fd2     PhysX3CharacterKinematic_x64.exp
 0002:00003ff8       $N00003                    0000000180025ff8     PhysX3CharacterKinematic_x64.exp
 0002:00004025       $N00004                    0000000180026025     PhysX3CharacterKinematic_x64.exp
 0002:0000404b       $N00005                    000000018002604b     PhysX3CharacterKinematic_x64.exp
 0002:0000406a       $N00006                    000000018002606a     PhysX3CharacterKinematic_x64.exp
 0002:00004090       $N00007                    0000000180026090     PhysX3CharacterKinematic_x64.exp
 0002:000040af       $N00008                    00000001800260af     PhysX3CharacterKinematic_x64.exp
 0002:000040e3       $N00009                    00000001800260e3     PhysX3CharacterKinematic_x64.exp
 0002:00004115       $N00010                    0000000180026115     PhysX3CharacterKinematic_x64.exp
 0002:00004146       $N00011                    0000000180026146     PhysX3CharacterKinematic_x64.exp
 0002:00004178       $N00012                    0000000180026178     PhysX3CharacterKinematic_x64.exp
 0002:000041ab       $N00013                    00000001800261ab     PhysX3CharacterKinematic_x64.exp
 0002:000041d7       $N00014                    00000001800261d7     PhysX3CharacterKinematic_x64.exp
 0002:000041fa       $N00015                    00000001800261fa     PhysX3CharacterKinematic_x64.exp
 0002:00004216       $N00016                    0000000180026216     PhysX3CharacterKinematic_x64.exp
 0002:0000423a       $N00017                    000000018002623a     PhysX3CharacterKinematic_x64.exp
 0002:00004282       $N00018                    0000000180026282     PhysX3CharacterKinematic_x64.exp
 0002:000042d2       $N00019                    00000001800262d2     PhysX3CharacterKinematic_x64.exp
 0002:0000431a       $N00020                    000000018002631a     PhysX3CharacterKinematic_x64.exp
 0002:00004360       $N00021                    0000000180026360     PhysX3CharacterKinematic_x64.exp
 0002:000043b0       $N00022                    00000001800263b0     PhysX3CharacterKinematic_x64.exp
 0002:0000445f       $N00023                    000000018002645f     PhysX3CharacterKinematic_x64.exp
 0002:000044bd       $N00024                    00000001800264bd     PhysX3CharacterKinematic_x64.exp
 0002:000044f9       $N00025                    00000001800264f9     PhysX3CharacterKinematic_x64.exp
 0002:00004573       $N00026                    0000000180026573     PhysX3CharacterKinematic_x64.exp
 0002:000045d0       $N00027                    00000001800265d0     PhysX3CharacterKinematic_x64.exp
 0002:00004615       $N00028                    0000000180026615     PhysX3CharacterKinematic_x64.exp
 0002:00004652       $N00029                    0000000180026652     PhysX3CharacterKinematic_x64.exp
 0002:00004be0       .idata$6                   0000000180026be0     PxFoundation_x64:PxFoundation_x64.dll
 0002:000053a0       .idata$6                   00000001800273a0     PhysX3Common_x64:PhysX3Common_x64.dll
 0002:00005426       .idata$6                   0000000180027426     vcruntime:VCRUNTIME140.dll
 0002:0000553e       .idata$6                   000000018002753e     ucrt:api-ms-win-crt-math-l1-1-0.dll
 0002:0000555e       .idata$6                   000000018002755e     ucrt:api-ms-win-crt-runtime-l1-1-0.dll
 0002:00005580       .idata$6                   0000000180027580     ucrt:api-ms-win-crt-heap-l1-1-0.dll
 0002:00005704       .idata$6                   0000000180027704     kernel32:KERNEL32.dll
 0003:00000000       ?gSweepMap@@3PAY05P6A_NPEBVSweepTest@Cct@physx@@PEBVSweptVolume@23@PEBUTouchedGeom@23@AEBUPxExtendedVec3@3@AEBVPxVec3@3@AEAUSweptContact@23@@ZA 0000000180028000     CctCharacterController.obj
 0003:00000500       ?maxV3Error@_VecMathTests@aos@shdfnd@physx@@3T__m128@@B 0000000180028500     CctCharacterControllerCallbacks.obj
 0003:00000510       ?minFError@_VecMathTests@aos@shdfnd@physx@@3T__m128@@B 0000000180028510     CctCharacterControllerCallbacks.obj
 0003:00000520       ?maxV4Error@_VecMathTests@aos@shdfnd@physx@@3T__m128@@B 0000000180028520     CctCharacterControllerCallbacks.obj
 0003:00000530       ?minV4Error@_VecMathTests@aos@shdfnd@physx@@3T__m128@@B 0000000180028530     CctCharacterControllerCallbacks.obj
 0003:00000540       ?minV3Error@_VecMathTests@aos@shdfnd@physx@@3T__m128@@B 0000000180028540     CctCharacterControllerCallbacks.obj
 0003:00000550       ?maxFError@_VecMathTests@aos@shdfnd@physx@@3T__m128@@B 0000000180028550     CctCharacterControllerCallbacks.obj
 0003:00000570       ?__proc_attached@@3HA      0000000180028570     MSVCRT:dll_dllmain.obj
 0003:00000588       ?module_local_atexit_table@@3U_onexit_table_t@@A 0000000180028588     MSVCRT:utility.obj
 0003:000005a0       ?module_local_at_quick_exit_table@@3U_onexit_table_t@@A 00000001800285a0     MSVCRT:utility.obj
 0003:000005b8       ?is_initialized_as_dll@@3_NA 00000001800285b8     MSVCRT:utility.obj
 0004:00000000       $pdata$??0BoxController@Cct@physx@@QEAA@AEBVPxControllerDesc@2@AEAVPxPhysics@2@PEAVPxScene@2@@Z 0000000180029000     CctBoxController.obj
 0004:0000000c       $pdata$??1BoxController@Cct@physx@@UEAA@XZ 000000018002900c     CctBoxController.obj
 0004:00000018       $pdata$?setFootPosition@BoxController@Cct@physx@@UEAA_NAEBUPxExtendedVec3@3@@Z 0000000180029018     CctBoxController.obj
 0004:00000024       $pdata$?invalidateCache@BoxController@Cct@physx@@UEAAXXZ 0000000180029024     CctBoxController.obj
 0004:00000030       $pdata$?resize@BoxController@Cct@physx@@UEAAXM@Z 0000000180029030     CctBoxController.obj
 0004:0000003c       $pdata$?updateKinematicProxy@BoxController@Cct@physx@@QEAA_NXZ 000000018002903c     CctBoxController.obj
 0004:00000048       $pdata$0$?updateKinematicProxy@BoxController@Cct@physx@@QEAA_NXZ 0000000180029048     CctBoxController.obj
 0004:00000054       $pdata$1$?updateKinematicProxy@BoxController@Cct@physx@@QEAA_NXZ 0000000180029054     CctBoxController.obj
 0004:00000060       $pdata$?getOBB@BoxController@Cct@physx@@QEBAXAEAVPxExtendedBox@3@@Z 0000000180029060     CctBoxController.obj
 0004:0000006c       $pdata$??_EPxControllerManager@physx@@MEAAPEAXI@Z 000000018002906c     CctBoxController.obj
 0004:00000078       $pdata$0$??_EPxControllerManager@physx@@MEAAPEAXI@Z 0000000180029078     CctBoxController.obj
 0004:00000084       $pdata$1$??_EPxControllerManager@physx@@MEAAPEAXI@Z 0000000180029084     CctBoxController.obj
 0004:00000090       $pdata$??_EPxFoundation@physx@@MEAAPEAXI@Z 0000000180029090     CctBoxController.obj
 0004:0000009c       $pdata$0$??_EPxFoundation@physx@@MEAAPEAXI@Z 000000018002909c     CctBoxController.obj
 0004:000000a8       $pdata$1$??_EPxFoundation@physx@@MEAAPEAXI@Z 00000001800290a8     CctBoxController.obj
 0004:000000b4       $pdata$??_GBoxController@Cct@physx@@UEAAPEAXI@Z 00000001800290b4     CctBoxController.obj
 0004:000000c0       $pdata$??_GPxBoxController@physx@@MEAAPEAXI@Z 00000001800290c0     CctBoxController.obj
 0004:000000cc       $pdata$??_GPxController@physx@@MEAAPEAXI@Z 00000001800290cc     CctBoxController.obj
 0004:000000d8       $pdata$??_GPxControllerManager@physx@@MEAAPEAXI@Z 00000001800290d8     CctBoxController.obj
 0004:000000e4       $pdata$??_GPxFoundation@physx@@MEAAPEAXI@Z 00000001800290e4     CctBoxController.obj
 0004:000000f0       $pdata$??_H@YAXPEAX_K1P6APEAX0@Z@Z 00000001800290f0     CctBoxController.obj
 0004:000000fc       $pdata$??_I@YAXPEAX_K1P6AX0@Z@Z 00000001800290fc     CctBoxController.obj
 0004:00000108       $pdata$??0CapsuleController@Cct@physx@@QEAA@AEBVPxControllerDesc@2@AEAVPxPhysics@2@PEAVPxScene@2@@Z 0000000180029108     CctCapsuleController.obj
 0004:00000114       $pdata$??1CapsuleController@Cct@physx@@UEAA@XZ 0000000180029114     CctCapsuleController.obj
 0004:00000120       $pdata$?setFootPosition@CapsuleController@Cct@physx@@UEAA_NAEBUPxExtendedVec3@3@@Z 0000000180029120     CctCapsuleController.obj
 0004:0000012c       $pdata$?invalidateCache@CapsuleController@Cct@physx@@UEAAXXZ 000000018002912c     CctCapsuleController.obj
 0004:00000138       $pdata$?resize@CapsuleController@Cct@physx@@UEAAXM@Z 0000000180029138     CctCapsuleController.obj
 0004:00000144       $pdata$?setRadius@CapsuleController@Cct@physx@@UEAA_NM@Z 0000000180029144     CctCapsuleController.obj
 0004:00000150       $pdata$0$?setRadius@CapsuleController@Cct@physx@@UEAA_NM@Z 0000000180029150     CctCapsuleController.obj
 0004:0000015c       $pdata$1$?setRadius@CapsuleController@Cct@physx@@UEAA_NM@Z 000000018002915c     CctCapsuleController.obj
 0004:00000168       $pdata$?setHeight@CapsuleController@Cct@physx@@UEAA_NM@Z 0000000180029168     CctCapsuleController.obj
 0004:00000174       $pdata$0$?setHeight@CapsuleController@Cct@physx@@UEAA_NM@Z 0000000180029174     CctCapsuleController.obj
 0004:00000180       $pdata$1$?setHeight@CapsuleController@Cct@physx@@UEAA_NM@Z 0000000180029180     CctCapsuleController.obj
 0004:0000018c       $pdata$?getCapsule@CapsuleController@Cct@physx@@QEBAXAEAUPxExtendedCapsule@3@@Z 000000018002918c     CctCapsuleController.obj
 0004:00000198       $pdata$??_GCapsuleController@Cct@physx@@UEAAPEAXI@Z 0000000180029198     CctCapsuleController.obj
 0004:000001a4       $pdata$??_GPxCapsuleController@physx@@MEAAPEAXI@Z 00000001800291a4     CctCapsuleController.obj
 0004:000001b0       $pdata$??1SweepTest@Cct@physx@@QEAA@XZ 00000001800291b0     CctCharacterController.obj
 0004:000001bc       $pdata$?moveCharacter@SweepTest@Cct@physx@@QEAA?AV?$PxFlags@W4Enum@PxControllerCollisionFlag@physx@@E@3@PEBUInternalCBData_FindTouchedGeom@23@PEAUInternalCBData_OnHit@23@AEAVSweptVolume@23@AEBVPxVec3@3@AEBUUserObstacles@23@MAEBVPxControllerFilters@3@_N6AEAPEBVPxRigidActor@3@AEAPEBVPxShape@3@_K@Z 00000001800291bc     CctCharacterController.obj
 0004:000001c8       $pdata$?doSweepTest@SweepTest@Cct@physx@@QEAA_NPEBUInternalCBData_FindTouchedGeom@23@PEAUInternalCBData_OnHit@23@AEBUUserObstacles@23@AEAVSweptVolume@23@AEBVPxVec3@3@4IPEAIMAEBVPxControllerFilters@3@W4SweepPass@23@AEAPEBVPxRigidActor@3@AEAPEBVPxShape@3@_K@Z 00000001800291c8     CctCharacterController.obj
 0004:000001d4       $pdata$12$?doSweepTest@SweepTest@Cct@physx@@QEAA_NPEBUInternalCBData_FindTouchedGeom@23@PEAUInternalCBData_OnHit@23@AEBUUserObstacles@23@AEAVSweptVolume@23@AEBVPxVec3@3@4IPEAIMAEBVPxControllerFilters@3@W4SweepPass@23@AEAPEBVPxRigidActor@3@AEAPEBVPxShape@3@_K@Z 00000001800291d4     CctCharacterController.obj
 0004:000001e0       $pdata$13$?doSweepTest@SweepTest@Cct@physx@@QEAA_NPEBUInternalCBData_FindTouchedGeom@23@PEAUInternalCBData_OnHit@23@AEBUUserObstacles@23@AEAVSweptVolume@23@AEBVPxVec3@3@4IPEAIMAEBVPxControllerFilters@3@W4SweepPass@23@AEAPEBVPxRigidActor@3@AEAPEBVPxShape@3@_K@Z 00000001800291e0     CctCharacterController.obj
 0004:000001ec       $pdata$?findTouchedObstacles@SweepTest@Cct@physx@@QEAAXAEBUUserObstacles@23@AEBUPxExtendedBounds3@3@@Z 00000001800291ec     CctCharacterController.obj
 0004:000001f8       $pdata$2$?findTouchedObstacles@SweepTest@Cct@physx@@QEAAXAEBUUserObstacles@23@AEBUPxExtendedBounds3@3@@Z 00000001800291f8     CctCharacterController.obj
 0004:00000204       $pdata$3$?findTouchedObstacles@SweepTest@Cct@physx@@QEAAXAEBUUserObstacles@23@AEBUPxExtendedBounds3@3@@Z 0000000180029204     CctCharacterController.obj
 0004:00000210       $pdata$?voidTestCache@SweepTest@Cct@physx@@QEAAXXZ 0000000180029210     CctCharacterController.obj
 0004:0000021c       $pdata$?onRelease@SweepTest@Cct@physx@@QEAAXAEBVPxBase@3@@Z 000000018002921c     CctCharacterController.obj
 0004:00000228       $pdata$?updateCachedShapesRegistration@SweepTest@Cct@physx@@QEAAXI_N@Z 0000000180029228     CctCharacterController.obj
 0004:00000234       $pdata$1$?updateCachedShapesRegistration@SweepTest@Cct@physx@@QEAAXI_N@Z 0000000180029234     CctCharacterController.obj
 0004:00000240       $pdata$2$?updateCachedShapesRegistration@SweepTest@Cct@physx@@QEAAXI_N@Z 0000000180029240     CctCharacterController.obj
 0004:0000024c       $pdata$3$?updateCachedShapesRegistration@SweepTest@Cct@physx@@QEAAXI_N@Z 000000018002924c     CctCharacterController.obj
 0004:00000258       $pdata$4$?updateCachedShapesRegistration@SweepTest@Cct@physx@@QEAAXI_N@Z 0000000180029258     CctCharacterController.obj
 0004:00000264       $pdata$?onObstacleUpdated@SweepTest@Cct@physx@@QEAAXIPEBVPxObstacleContext@3@AEBVPxVec3@3@1M@Z 0000000180029264     CctCharacterController.obj
 0004:00000270       $pdata$?onObstacleAdded@SweepTest@Cct@physx@@QEAAXIPEBVPxObstacleContext@3@AEBVPxVec3@3@1M@Z 0000000180029270     CctCharacterController.obj
 0004:0000027c       $pdata$0$?onObstacleAdded@SweepTest@Cct@physx@@QEAAXIPEBVPxObstacleContext@3@AEBVPxVec3@3@1M@Z 000000018002927c     CctCharacterController.obj
 0004:00000288       $pdata$3$?onObstacleAdded@SweepTest@Cct@physx@@QEAAXIPEBVPxObstacleContext@3@AEBVPxVec3@3@1M@Z 0000000180029288     CctCharacterController.obj
 0004:00000294       $pdata$4$?onObstacleAdded@SweepTest@Cct@physx@@QEAAXIPEBVPxObstacleContext@3@AEBVPxVec3@3@1M@Z 0000000180029294     CctCharacterController.obj
 0004:000002a0       $pdata$5$?onObstacleAdded@SweepTest@Cct@physx@@QEAAXIPEBVPxObstacleContext@3@AEBVPxVec3@3@1M@Z 00000001800292a0     CctCharacterController.obj
 0004:000002ac       $pdata$?updateTouchedGeoms@SweepTest@Cct@physx@@AEAAXPEBUInternalCBData_FindTouchedGeom@23@AEBUUserObstacles@23@AEBUPxExtendedBounds3@3@AEBVPxControllerFilters@3@AEBVPxVec3@3@@Z 00000001800292ac     CctCharacterController.obj
 0004:000002b8       $pdata$2$?updateTouchedGeoms@SweepTest@Cct@physx@@AEAAXPEBUInternalCBData_FindTouchedGeom@23@AEBUUserObstacles@23@AEBUPxExtendedBounds3@3@AEBVPxControllerFilters@3@AEBVPxVec3@3@@Z 00000001800292b8     CctCharacterController.obj
 0004:000002c4       $pdata$6$?updateTouchedGeoms@SweepTest@Cct@physx@@AEAAXPEBUInternalCBData_FindTouchedGeom@23@AEBUUserObstacles@23@AEBUPxExtendedBounds3@3@AEBVPxControllerFilters@3@AEBVPxVec3@3@@Z 00000001800292c4     CctCharacterController.obj
 0004:000002d0       $pdata$7$?updateTouchedGeoms@SweepTest@Cct@physx@@AEAAXPEBUInternalCBData_FindTouchedGeom@23@AEBUUserObstacles@23@AEBUPxExtendedBounds3@3@AEBVPxControllerFilters@3@AEBVPxVec3@3@@Z 00000001800292d0     CctCharacterController.obj
 0004:000002dc       $pdata$8$?updateTouchedGeoms@SweepTest@Cct@physx@@AEAAXPEBUInternalCBData_FindTouchedGeom@23@AEBUUserObstacles@23@AEBUPxExtendedBounds3@3@AEBVPxControllerFilters@3@AEBVPxVec3@3@@Z 00000001800292dc     CctCharacterController.obj
 0004:000002e8       $pdata$9$?updateTouchedGeoms@SweepTest@Cct@physx@@AEAAXPEBUInternalCBData_FindTouchedGeom@23@AEBUUserObstacles@23@AEBUPxExtendedBounds3@3@AEBVPxControllerFilters@3@AEBVPxVec3@3@@Z 00000001800292e8     CctCharacterController.obj
 0004:000002f4       $pdata$10$?updateTouchedGeoms@SweepTest@Cct@physx@@AEAAXPEBUInternalCBData_FindTouchedGeom@23@AEBUUserObstacles@23@AEBUPxExtendedBounds3@3@AEBVPxControllerFilters@3@AEBVPxVec3@3@@Z 00000001800292f4     CctCharacterController.obj
 0004:00000300       $pdata$?findTouchedObject@Controller@Cct@physx@@IEAAXAEBVPxControllerFilters@3@PEBVPxObstacleContext@3@AEBVPxVec3@3@@Z 0000000180029300     CctCharacterController.obj
 0004:0000030c       $pdata$2$?findTouchedObject@Controller@Cct@physx@@IEAAXAEBVPxControllerFilters@3@PEBVPxObstacleContext@3@AEBVPxVec3@3@@Z 000000018002930c     CctCharacterController.obj
 0004:00000318       $pdata$10$?findTouchedObject@Controller@Cct@physx@@IEAAXAEBVPxControllerFilters@3@PEBVPxObstacleContext@3@AEBVPxVec3@3@@Z 0000000180029318     CctCharacterController.obj
 0004:00000324       $pdata$11$?findTouchedObject@Controller@Cct@physx@@IEAAXAEBVPxControllerFilters@3@PEBVPxObstacleContext@3@AEBVPxVec3@3@@Z 0000000180029324     CctCharacterController.obj
 0004:00000330       $pdata$12$?findTouchedObject@Controller@Cct@physx@@IEAAXAEBVPxControllerFilters@3@PEBVPxObstacleContext@3@AEBVPxVec3@3@@Z 0000000180029330     CctCharacterController.obj
 0004:0000033c       $pdata$?rideOnTouchedObject@Controller@Cct@physx@@IEAA_NAEAVSweptVolume@23@AEBVPxVec3@3@AEAV53@PEBVPxObstacleContext@3@@Z 000000018002933c     CctCharacterController.obj
 0004:00000348       $pdata$0$?rideOnTouchedObject@Controller@Cct@physx@@IEAA_NAEAVSweptVolume@23@AEBVPxVec3@3@AEAV53@PEBVPxObstacleContext@3@@Z 0000000180029348     CctCharacterController.obj
 0004:00000354       $pdata$1$?rideOnTouchedObject@Controller@Cct@physx@@IEAA_NAEAVSweptVolume@23@AEBVPxVec3@3@AEAV53@PEBVPxObstacleContext@3@@Z 0000000180029354     CctCharacterController.obj
 0004:00000360       $pdata$?move@Controller@Cct@physx@@IEAA?AV?$PxFlags@W4Enum@PxControllerCollisionFlag@physx@@E@3@AEAVSweptVolume@23@AEBVPxVec3@3@MMAEBVPxControllerFilters@3@PEBVPxObstacleContext@3@_N@Z 0000000180029360     CctCharacterController.obj
 0004:0000036c       $pdata$0$?move@Controller@Cct@physx@@IEAA?AV?$PxFlags@W4Enum@PxControllerCollisionFlag@physx@@E@3@AEAVSweptVolume@23@AEBVPxVec3@3@MMAEBVPxControllerFilters@3@PEBVPxObstacleContext@3@_N@Z 000000018002936c     CctCharacterController.obj
 0004:00000378       $pdata$7$?move@Controller@Cct@physx@@IEAA?AV?$PxFlags@W4Enum@PxControllerCollisionFlag@physx@@E@3@AEAVSweptVolume@23@AEBVPxVec3@3@MMAEBVPxControllerFilters@3@PEBVPxObstacleContext@3@_N@Z 0000000180029378     CctCharacterController.obj
 0004:00000384       $pdata$9$?move@Controller@Cct@physx@@IEAA?AV?$PxFlags@W4Enum@PxControllerCollisionFlag@physx@@E@3@AEAVSweptVolume@23@AEBVPxVec3@3@MMAEBVPxControllerFilters@3@PEBVPxObstacleContext@3@_N@Z 0000000180029384     CctCharacterController.obj
 0004:00000390       $pdata$10$?move@Controller@Cct@physx@@IEAA?AV?$PxFlags@W4Enum@PxControllerCollisionFlag@physx@@E@3@AEAVSweptVolume@23@AEBVPxVec3@3@MMAEBVPxControllerFilters@3@PEBVPxObstacleContext@3@_N@Z 0000000180029390     CctCharacterController.obj
 0004:0000039c       $pdata$11$?move@Controller@Cct@physx@@IEAA?AV?$PxFlags@W4Enum@PxControllerCollisionFlag@physx@@E@3@AEAVSweptVolume@23@AEBVPxVec3@3@MMAEBVPxControllerFilters@3@PEBVPxObstacleContext@3@_N@Z 000000018002939c     CctCharacterController.obj
 0004:000003a8       $pdata$12$?move@Controller@Cct@physx@@IEAA?AV?$PxFlags@W4Enum@PxControllerCollisionFlag@physx@@E@3@AEAVSweptVolume@23@AEBVPxVec3@3@MMAEBVPxControllerFilters@3@PEBVPxObstacleContext@3@_N@Z 00000001800293a8     CctCharacterController.obj
 0004:000003b4       $pdata$13$?move@Controller@Cct@physx@@IEAA?AV?$PxFlags@W4Enum@PxControllerCollisionFlag@physx@@E@3@AEAVSweptVolume@23@AEBVPxVec3@3@MMAEBVPxControllerFilters@3@PEBVPxObstacleContext@3@_N@Z 00000001800293b4     CctCharacterController.obj
 0004:000003c0       $pdata$?filterTouchedShape@Controller@Cct@physx@@IEAA_NAEBVPxControllerFilters@3@@Z 00000001800293c0     CctCharacterController.obj
 0004:000003cc       $pdata$?SweepBoxUserBox@@YA_NPEBVSweepTest@Cct@physx@@PEBVSweptVolume@23@PEBUTouchedGeom@23@AEBUPxExtendedVec3@3@AEBVPxVec3@3@AEAUSweptContact@23@@Z 00000001800293cc     CctCharacterController.obj
 0004:000003d8       $pdata$?SweepBoxUserCapsule@@YA_NPEBVSweepTest@Cct@physx@@PEBVSweptVolume@23@PEBUTouchedGeom@23@AEBUPxExtendedVec3@3@AEBVPxVec3@3@AEAUSweptContact@23@@Z 00000001800293d8     CctCharacterController.obj
 0004:000003e4       $pdata$?SweepBoxMesh@@YA_NPEBVSweepTest@Cct@physx@@PEBVSweptVolume@23@PEBUTouchedGeom@23@AEBUPxExtendedVec3@3@AEBVPxVec3@3@AEAUSweptContact@23@@Z 00000001800293e4     CctCharacterController.obj
 0004:000003f0       $pdata$?SweepCapsuleMesh@@YA_NPEBVSweepTest@Cct@physx@@PEBVSweptVolume@23@PEBUTouchedGeom@23@AEBUPxExtendedVec3@3@AEBVPxVec3@3@AEAUSweptContact@23@@Z 00000001800293f0     CctCharacterController.obj
 0004:000003fc       $pdata$?SweepBoxBox@@YA_NPEBVSweepTest@Cct@physx@@PEBVSweptVolume@23@PEBUTouchedGeom@23@AEBUPxExtendedVec3@3@AEBVPxVec3@3@AEAUSweptContact@23@@Z 00000001800293fc     CctCharacterController.obj
 0004:00000408       $pdata$?SweepBoxSphere@@YA_NPEBVSweepTest@Cct@physx@@PEBVSweptVolume@23@PEBUTouchedGeom@23@AEBUPxExtendedVec3@3@AEBVPxVec3@3@AEAUSweptContact@23@@Z 0000000180029408     CctCharacterController.obj
 0004:00000414       $pdata$?SweepBoxCapsule@@YA_NPEBVSweepTest@Cct@physx@@PEBVSweptVolume@23@PEBUTouchedGeom@23@AEBUPxExtendedVec3@3@AEBVPxVec3@3@AEAUSweptContact@23@@Z 0000000180029414     CctCharacterController.obj
 0004:00000420       $pdata$?SweepCapsuleBox@@YA_NPEBVSweepTest@Cct@physx@@PEBVSweptVolume@23@PEBUTouchedGeom@23@AEBUPxExtendedVec3@3@AEBVPxVec3@3@AEAUSweptContact@23@@Z 0000000180029420     CctCharacterController.obj
 0004:0000042c       $pdata$?SweepCapsuleSphere@@YA_NPEBVSweepTest@Cct@physx@@PEBVSweptVolume@23@PEBUTouchedGeom@23@AEBUPxExtendedVec3@3@AEBVPxVec3@3@AEAUSweptContact@23@@Z 000000018002942c     CctCharacterController.obj
 0004:00000438       $pdata$?SweepCapsuleCapsule@@YA_NPEBVSweepTest@Cct@physx@@PEBVSweptVolume@23@PEBUTouchedGeom@23@AEBUPxExtendedVec3@3@AEBVPxVec3@3@AEAUSweptContact@23@@Z 0000000180029438     CctCharacterController.obj
 0004:00000444       $pdata$?SweepCapsuleUserCapsule@@YA_NPEBVSweepTest@Cct@physx@@PEBVSweptVolume@23@PEBUTouchedGeom@23@AEBUPxExtendedVec3@3@AEBVPxVec3@3@AEAUSweptContact@23@@Z 0000000180029444     CctCharacterController.obj
 0004:00000450       $pdata$?SweepCapsuleUserBox@@YA_NPEBVSweepTest@Cct@physx@@PEBVSweptVolume@23@PEBUTouchedGeom@23@AEBUPxExtendedVec3@3@AEBVPxVec3@3@AEAUSweptContact@23@@Z 0000000180029450     CctCharacterController.obj
 0004:0000045c       $pdata$?move@BoxController@Cct@physx@@UEAA?AV?$PxFlags@W4Enum@PxControllerCollisionFlag@physx@@E@3@AEBVPxVec3@3@MMAEBVPxControllerFilters@3@PEBVPxObstacleContext@3@@Z 000000018002945c     CctCharacterController.obj
 0004:00000468       $pdata$?move@CapsuleController@Cct@physx@@UEAA?AV?$PxFlags@W4Enum@PxControllerCollisionFlag@physx@@E@3@AEBVPxVec3@3@MMAEBVPxControllerFilters@3@PEBVPxObstacleContext@3@@Z 0000000180029468     CctCharacterController.obj
 0004:00000474       $pdata$??0PxMat44@physx@@QEAA@AEBVPxTransform@1@@Z 0000000180029474     CctCharacterController.obj
 0004:00000480       $pdata$??DPxQuat@physx@@QEBA?AV01@AEBV01@@Z 0000000180029480     CctCharacterController.obj
 0004:0000048c       $pdata$??_G?$PxHitBuffer@UPxRaycastHit@physx@@@physx@@UEAAPEAXI@Z 000000018002948c     CctCharacterController.obj
 0004:00000498       $pdata$??_G?$PxHitCallback@UPxRaycastHit@physx@@@physx@@UEAAPEAXI@Z 0000000180029498     CctCharacterController.obj
 0004:000004a4       $pdata$??_GControllerFilter@@UEAAPEAXI@Z 00000001800294a4     CctCharacterController.obj
 0004:000004b0       $pdata$??_GPxQueryFilterCallback@physx@@UEAAPEAXI@Z 00000001800294b0     CctCharacterController.obj
 0004:000004bc       $pdata$?CollideGeoms@@YAPEBUTouchedGeom@Cct@physx@@PEBVSweepTest@23@AEBVSweptVolume@23@AEBV?$Array@IV?$ReflectionAllocator@I@shdfnd@physx@@@shdfnd@3@AEBUPxExtendedVec3@3@AEBVPxVec3@3@AEAUSweptContact@23@_N@Z 00000001800294bc     CctCharacterController.obj
 0004:000004c8       $pdata$?allocate@?$ReflectionAllocator@I@shdfnd@physx@@QEAAPEAX_KPEBDH@Z 00000001800294c8     CctCharacterController.obj
 0004:000004d4       $pdata$0$?allocate@?$ReflectionAllocator@I@shdfnd@physx@@QEAAPEAX_KPEBDH@Z 00000001800294d4     CctCharacterController.obj
 0004:000004e0       $pdata$1$?allocate@?$ReflectionAllocator@I@shdfnd@physx@@QEAAPEAX_KPEBDH@Z 00000001800294e0     CctCharacterController.obj
 0004:000004ec       $pdata$?allocate@?$ReflectionAllocator@PEBX@shdfnd@physx@@QEAAPEAX_KPEBDH@Z 00000001800294ec     CctCharacterController.obj
 0004:000004f8       $pdata$0$?allocate@?$ReflectionAllocator@PEBX@shdfnd@physx@@QEAAPEAX_KPEBDH@Z 00000001800294f8     CctCharacterController.obj
 0004:00000504       $pdata$1$?allocate@?$ReflectionAllocator@PEBX@shdfnd@physx@@QEAAPEAX_KPEBDH@Z 0000000180029504     CctCharacterController.obj
 0004:00000510       $pdata$?allocate@?$ReflectionAllocator@UPxExtendedCapsule@physx@@@shdfnd@physx@@QEAAPEAX_KPEBDH@Z 0000000180029510     CctCharacterController.obj
 0004:0000051c       $pdata$0$?allocate@?$ReflectionAllocator@UPxExtendedCapsule@physx@@@shdfnd@physx@@QEAAPEAX_KPEBDH@Z 000000018002951c     CctCharacterController.obj
 0004:00000528       $pdata$1$?allocate@?$ReflectionAllocator@UPxExtendedCapsule@physx@@@shdfnd@physx@@QEAAPEAX_KPEBDH@Z 0000000180029528     CctCharacterController.obj
 0004:00000534       $pdata$?allocate@?$ReflectionAllocator@VPxExtendedBox@physx@@@shdfnd@physx@@QEAAPEAX_KPEBDH@Z 0000000180029534     CctCharacterController.obj
 0004:00000540       $pdata$0$?allocate@?$ReflectionAllocator@VPxExtendedBox@physx@@@shdfnd@physx@@QEAAPEAX_KPEBDH@Z 0000000180029540     CctCharacterController.obj
 0004:0000054c       $pdata$1$?allocate@?$ReflectionAllocator@VPxExtendedBox@physx@@@shdfnd@physx@@QEAAPEAX_KPEBDH@Z 000000018002954c     CctCharacterController.obj
 0004:00000558       $pdata$?collisionResponse@@YAXAEAUPxExtendedVec3@physx@@AEBU12@AEBVPxVec3@2@2MM_N@Z 0000000180029558     CctCharacterController.obj
 0004:00000564       $pdata$?computeMTD@@YA?AVPxVec3@physx@@PEBVSweepTest@Cct@2@AEBVSweptVolume@42@AEBV?$Array@IV?$ReflectionAllocator@I@shdfnd@physx@@@shdfnd@2@AEBUPxExtendedVec3@2@M@Z 0000000180029564     CctCharacterController.obj
 0004:00000570       $pdata$?getGlobalPose@PxShapeExt@physx@@SA?AVPxTransform@2@AEBVPxShape@2@AEBVPxRigidActor@2@@Z 0000000180029570     CctCharacterController.obj
 0004:0000057c       $pdata$?growAndPushBack@?$Array@PEBXV?$ReflectionAllocator@PEBX@shdfnd@physx@@@shdfnd@physx@@IEAAAEAPEBXAEBQEBX@Z 000000018002957c     CctCharacterController.obj
 0004:00000588       $pdata$?growAndPushBack@?$Array@UPxExtendedCapsule@physx@@V?$ReflectionAllocator@UPxExtendedCapsule@physx@@@shdfnd@2@@shdfnd@physx@@IEAAAEAUPxExtendedCapsule@3@AEBU43@@Z 0000000180029588     CctCharacterController.obj
 0004:00000594       $pdata$?growAndPushBack@?$Array@VPxExtendedBox@physx@@V?$ReflectionAllocator@VPxExtendedBox@physx@@@shdfnd@2@@shdfnd@physx@@IEAAAEAVPxExtendedBox@3@AEBV43@@Z 0000000180029594     CctCharacterController.obj
 0004:000005a0       $pdata$?localToWorld@@YA?AVPxVec3@physx@@AEBVPxObstacle@2@AEBV12@@Z 00000001800295a0     CctCharacterController.obj
 0004:000005ac       $pdata$?preFilter@ControllerFilter@@UEAA?AW4Enum@PxQueryHitType@physx@@AEBUPxFilterData@4@PEBVPxShape@4@PEBVPxRigidActor@4@AEAV?$PxFlags@W4Enum@PxHitFlag@physx@@G@4@@Z 00000001800295ac     CctCharacterController.obj
 0004:000005b8       $pdata$?recreate@?$Array@IV?$ReflectionAllocator@I@shdfnd@physx@@@shdfnd@physx@@IEAAXI@Z 00000001800295b8     CctCharacterController.obj
 0004:000005c4       $pdata$?scale@@YAXAEAUPxExtendedBounds3@physx@@AEBVPxVec3@2@@Z 00000001800295c4     CctCharacterController.obj
 0004:000005d0       $pdata$?sweepVolumeVsMesh@@YA_NPEBVSweepTest@Cct@physx@@PEBUTouchedMesh@23@AEAUSweptContact@23@AEBVPxVec3@3@AEBVPxGeometry@3@AEBVPxTransform@3@IPEBVPxTriangle@3@I@Z 00000001800295d0     CctCharacterController.obj
 0004:000005dc       $pdata$?worldToLocal@@YA?AVPxVec3@physx@@AEBVPxObstacle@2@AEBUPxExtendedVec3@2@@Z 00000001800295dc     CctCharacterController.obj
 0004:000005e8       $pdata$?findTouchedGeometry@Cct@physx@@YAXPEBUInternalCBData_FindTouchedGeom@12@AEBUPxExtendedBounds3@2@AEAVTriArray@12@AEAV?$Array@IV?$ReflectionAllocator@I@shdfnd@physx@@@shdfnd@2@3AEBVCCTFilter@12@AEBUCCTParams@12@AEAG@Z 00000001800295e8     CctCharacterControllerCallbacks.obj
 0004:000005f4       $pdata$3$?findTouchedGeometry@Cct@physx@@YAXPEBUInternalCBData_FindTouchedGeom@12@AEBUPxExtendedBounds3@2@AEAVTriArray@12@AEAV?$Array@IV?$ReflectionAllocator@I@shdfnd@physx@@@shdfnd@2@3AEBVCCTFilter@12@AEBUCCTParams@12@AEAG@Z 00000001800295f4     CctCharacterControllerCallbacks.obj
 0004:00000600       $pdata$8$?findTouchedGeometry@Cct@physx@@YAXPEBUInternalCBData_FindTouchedGeom@12@AEBUPxExtendedBounds3@2@AEAVTriArray@12@AEAV?$Array@IV?$ReflectionAllocator@I@shdfnd@physx@@@shdfnd@2@3AEBVCCTFilter@12@AEBUCCTParams@12@AEAG@Z 0000000180029600     CctCharacterControllerCallbacks.obj
 0004:0000060c       $pdata$4$?findTouchedGeometry@Cct@physx@@YAXPEBUInternalCBData_FindTouchedGeom@12@AEBUPxExtendedBounds3@2@AEAVTriArray@12@AEAV?$Array@IV?$ReflectionAllocator@I@shdfnd@physx@@@shdfnd@2@3AEBVCCTFilter@12@AEBUCCTParams@12@AEAG@Z 000000018002960c     CctCharacterControllerCallbacks.obj
 0004:00000618       $pdata$?shapeHitCallback@Cct@physx@@YAIPEBUInternalCBData_OnHit@12@AEBUSweptContact@12@AEBVPxVec3@2@M@Z 0000000180029618     CctCharacterControllerCallbacks.obj
 0004:00000624       $pdata$?userHitCallback@Cct@physx@@YAIPEBUInternalCBData_OnHit@12@AEBUSweptContact@12@AEBVPxVec3@2@M@Z 0000000180029624     CctCharacterControllerCallbacks.obj
 0004:00000630       $pdata$??_G?$PxHitBuffer@UPxOverlapHit@physx@@@physx@@UEAAPEAXI@Z 0000000180029630     CctCharacterControllerCallbacks.obj
 0004:0000063c       $pdata$??_G?$PxHitCallback@UPxOverlapHit@physx@@@physx@@UEAAPEAXI@Z 000000018002963c     CctCharacterControllerCallbacks.obj
 0004:00000648       $pdata$?PxPlaneEquationFromTransform@physx@@YA?AVPxPlane@1@AEBVPxTransform@1@@Z 0000000180029648     CctCharacterControllerCallbacks.obj
 0004:00000654       $pdata$?allocate@?$ReflectionAllocator@VPxTriangle@physx@@@shdfnd@physx@@QEAAPEAX_KPEBDH@Z 0000000180029654     CctCharacterControllerCallbacks.obj
 0004:00000660       $pdata$0$?allocate@?$ReflectionAllocator@VPxTriangle@physx@@@shdfnd@physx@@QEAAPEAX_KPEBDH@Z 0000000180029660     CctCharacterControllerCallbacks.obj
 0004:0000066c       $pdata$1$?allocate@?$ReflectionAllocator@VPxTriangle@physx@@@shdfnd@physx@@QEAAPEAX_KPEBDH@Z 000000018002966c     CctCharacterControllerCallbacks.obj
 0004:00000678       $pdata$?createInvisibleWalls@@YAIAEBUCCTParams@Cct@physx@@AEBVPxTriangle@3@AEAVTriArray@23@AEAV?$Array@IV?$ReflectionAllocator@I@shdfnd@physx@@@shdfnd@3@@Z 0000000180029678     CctCharacterControllerCallbacks.obj
 0004:00000684       $pdata$8$?createInvisibleWalls@@YAIAEBUCCTParams@Cct@physx@@AEBVPxTriangle@3@AEAVTriArray@23@AEAV?$Array@IV?$ReflectionAllocator@I@shdfnd@physx@@@shdfnd@3@@Z 0000000180029684     CctCharacterControllerCallbacks.obj
 0004:00000690       $pdata$9$?createInvisibleWalls@@YAIAEBUCCTParams@Cct@physx@@AEBVPxTriangle@3@AEAVTriArray@23@AEAV?$Array@IV?$ReflectionAllocator@I@shdfnd@physx@@@shdfnd@3@@Z 0000000180029690     CctCharacterControllerCallbacks.obj
 0004:0000069c       $pdata$10$?createInvisibleWalls@@YAIAEBUCCTParams@Cct@physx@@AEBVPxTriangle@3@AEAVTriArray@23@AEAV?$Array@IV?$ReflectionAllocator@I@shdfnd@physx@@@shdfnd@3@@Z 000000018002969c     CctCharacterControllerCallbacks.obj
 0004:000006a8       $pdata$11$?createInvisibleWalls@@YAIAEBUCCTParams@Cct@physx@@AEBVPxTriangle@3@AEAVTriArray@23@AEAV?$Array@IV?$ReflectionAllocator@I@shdfnd@physx@@@shdfnd@3@@Z 00000001800296a8     CctCharacterControllerCallbacks.obj
 0004:000006b4       $pdata$?growAndPushBack@?$Array@IV?$ReflectionAllocator@I@shdfnd@physx@@@shdfnd@physx@@IEAAAEAIAEBI@Z 00000001800296b4     CctCharacterControllerCallbacks.obj
 0004:000006c0       $pdata$?outputBoxToStream@@YAXPEAVPxShape@physx@@PEBVPxRigidActor@2@AEBVPxTransform@2@AEAV?$Array@IV?$ReflectionAllocator@I@shdfnd@physx@@@shdfnd@2@AEAVTriArray@Cct@2@3AEBUPxExtendedVec3@2@AEBVPxBounds3@2@AEBUCCTParams@82@AEAG@Z 00000001800296c0     CctCharacterControllerCallbacks.obj
 0004:000006cc       $pdata$?outputCapsuleToStream@@YAXPEAVPxShape@physx@@PEBVPxRigidActor@2@AEBVPxTransform@2@AEAV?$Array@IV?$ReflectionAllocator@I@shdfnd@physx@@@shdfnd@2@AEBUPxExtendedVec3@2@@Z 00000001800296cc     CctCharacterControllerCallbacks.obj
 0004:000006d8       $pdata$?outputConvexToStream@@YAXPEAVPxShape@physx@@PEBVPxRigidActor@2@AEBVPxTransform@2@AEAV?$Array@IV?$ReflectionAllocator@I@shdfnd@physx@@@shdfnd@2@AEAVTriArray@Cct@2@3AEBUPxExtendedVec3@2@AEBVPxBounds3@2@AEBUCCTParams@82@PEAVRenderBuffer@Cm@2@AEAG@Z 00000001800296d8     CctCharacterControllerCallbacks.obj
 0004:000006e4       $pdata$?outputHeightFieldToStream@@YAXPEAVPxShape@physx@@PEBVPxRigidActor@2@AEBVPxTransform@2@AEAV?$Array@IV?$ReflectionAllocator@I@shdfnd@physx@@@shdfnd@2@AEAVTriArray@Cct@2@3AEBUPxExtendedVec3@2@AEBVPxBounds3@2@AEBUCCTParams@82@PEAVRenderBuffer@Cm@2@AEAG@Z 00000001800296e4     CctCharacterControllerCallbacks.obj
 0004:000006f0       $pdata$5$?outputHeightFieldToStream@@YAXPEAVPxShape@physx@@PEBVPxRigidActor@2@AEBVPxTransform@2@AEAV?$Array@IV?$ReflectionAllocator@I@shdfnd@physx@@@shdfnd@2@AEAVTriArray@Cct@2@3AEBUPxExtendedVec3@2@AEBVPxBounds3@2@AEBUCCTParams@82@PEAVRenderBuffer@Cm@2@AEAG@Z 00000001800296f0     CctCharacterControllerCallbacks.obj
 0004:000006fc       $pdata$?outputMeshToStream@@YAXPEAVPxShape@physx@@PEBVPxRigidActor@2@AEBVPxTransform@2@AEAV?$Array@IV?$ReflectionAllocator@I@shdfnd@physx@@@shdfnd@2@AEAVTriArray@Cct@2@3AEBUPxExtendedVec3@2@AEBVPxBounds3@2@AEBUCCTParams@82@PEAVRenderBuffer@Cm@2@AEAG@Z 00000001800296fc     CctCharacterControllerCallbacks.obj
 0004:00000708       $pdata$4$?outputMeshToStream@@YAXPEAVPxShape@physx@@PEBVPxRigidActor@2@AEBVPxTransform@2@AEAV?$Array@IV?$ReflectionAllocator@I@shdfnd@physx@@@shdfnd@2@AEAVTriArray@Cct@2@3AEBUPxExtendedVec3@2@AEBVPxBounds3@2@AEBUCCTParams@82@PEAVRenderBuffer@Cm@2@AEAG@Z 0000000180029708     CctCharacterControllerCallbacks.obj
 0004:00000714       $pdata$?outputPlaneToStream@@YAXPEAVPxShape@physx@@PEBVPxRigidActor@2@AEBVPxTransform@2@AEAV?$Array@IV?$ReflectionAllocator@I@shdfnd@physx@@@shdfnd@2@AEAVTriArray@Cct@2@3AEBUPxExtendedVec3@2@AEBVPxBounds3@2@AEBUCCTParams@82@PEAVRenderBuffer@Cm@2@@Z 0000000180029714     CctCharacterControllerCallbacks.obj
 0004:00000720       $pdata$?outputSphereToStream@@YAXPEAVPxShape@physx@@PEBVPxRigidActor@2@AEBVPxTransform@2@AEAV?$Array@IV?$ReflectionAllocator@I@shdfnd@physx@@@shdfnd@2@AEBUPxExtendedVec3@2@@Z 0000000180029720     CctCharacterControllerCallbacks.obj
 0004:0000072c       $pdata$?recreate@?$Array@VPxTriangle@physx@@V?$ReflectionAllocator@VPxTriangle@physx@@@shdfnd@2@@shdfnd@physx@@IEAAXI@Z 000000018002972c     CctCharacterControllerCallbacks.obj
 0004:00000738       $pdata$0$?recreate@?$Array@VPxTriangle@physx@@V?$ReflectionAllocator@VPxTriangle@physx@@@shdfnd@2@@shdfnd@physx@@IEAAXI@Z 0000000180029738     CctCharacterControllerCallbacks.obj
 0004:00000744       $pdata$1$?recreate@?$Array@VPxTriangle@physx@@V?$ReflectionAllocator@VPxTriangle@physx@@@shdfnd@2@@shdfnd@physx@@IEAAXI@Z 0000000180029744     CctCharacterControllerCallbacks.obj
 0004:00000750       $pdata$?tessellateTriangleRecursive@@YAXPEAUTessParams@@AEBVPxVec3@physx@@11@Z 0000000180029750     CctCharacterControllerCallbacks.obj
 0004:0000075c       $pdata$9$?tessellateTriangleRecursive@@YAXPEAUTessParams@@AEBVPxVec3@physx@@11@Z 000000018002975c     CctCharacterControllerCallbacks.obj
 0004:00000768       $pdata$10$?tessellateTriangleRecursive@@YAXPEAUTessParams@@AEBVPxVec3@physx@@11@Z 0000000180029768     CctCharacterControllerCallbacks.obj
 0004:00000774       $pdata$11$?tessellateTriangleRecursive@@YAXPEAUTessParams@@AEBVPxVec3@physx@@11@Z 0000000180029774     CctCharacterControllerCallbacks.obj
 0004:00000780       $pdata$PxCreateControllerManager 0000000180029780     CctCharacterControllerManager.obj
 0004:0000078c       $pdata$??0CharacterControllerManager@Cct@physx@@QEAA@AEAVPxScene@2@_N@Z 000000018002978c     CctCharacterControllerManager.obj
 0004:00000798       $pdata$??1CharacterControllerManager@Cct@physx@@UEAA@XZ 0000000180029798     CctCharacterControllerManager.obj
 0004:000007a4       $pdata$?release@CharacterControllerManager@Cct@physx@@UEAAXXZ 00000001800297a4     CctCharacterControllerManager.obj
 0004:000007b0       $pdata$2$?release@CharacterControllerManager@Cct@physx@@UEAAXXZ 00000001800297b0     CctCharacterControllerManager.obj
 0004:000007bc       $pdata$3$?release@CharacterControllerManager@Cct@physx@@UEAAXXZ 00000001800297bc     CctCharacterControllerManager.obj
 0004:000007c8       $pdata$?getController@CharacterControllerManager@Cct@physx@@UEAAPEAVPxController@3@I@Z 00000001800297c8     CctCharacterControllerManager.obj
 0004:000007d4       $pdata$?createController@CharacterControllerManager@Cct@physx@@UEAAPEAVPxController@3@AEBVPxControllerDesc@3@@Z 00000001800297d4     CctCharacterControllerManager.obj
 0004:000007e0       $pdata$?purgeControllers@CharacterControllerManager@Cct@physx@@UEAAXXZ 00000001800297e0     CctCharacterControllerManager.obj
 0004:000007ec       $pdata$2$?purgeControllers@CharacterControllerManager@Cct@physx@@UEAAXXZ 00000001800297ec     CctCharacterControllerManager.obj
 0004:000007f8       $pdata$3$?purgeControllers@CharacterControllerManager@Cct@physx@@UEAAXXZ 00000001800297f8     CctCharacterControllerManager.obj
 0004:00000804       $pdata$?getRenderBuffer@CharacterControllerManager@Cct@physx@@UEAAAEAVPxRenderBuffer@3@XZ 0000000180029804     CctCharacterControllerManager.obj
 0004:00000810       $pdata$0$?getRenderBuffer@CharacterControllerManager@Cct@physx@@UEAAAEAVPxRenderBuffer@3@XZ 0000000180029810     CctCharacterControllerManager.obj
 0004:0000081c       $pdata$1$?getRenderBuffer@CharacterControllerManager@Cct@physx@@UEAAAEAVPxRenderBuffer@3@XZ 000000018002981c     CctCharacterControllerManager.obj
 0004:00000828       $pdata$?setDebugRenderingFlags@CharacterControllerManager@Cct@physx@@UEAAXV?$PxFlags@W4Enum@PxControllerDebugRenderFlag@physx@@I@3@@Z 0000000180029828     CctCharacterControllerManager.obj
 0004:00000834       $pdata$?getObstacleContext@CharacterControllerManager@Cct@physx@@UEAAPEAVPxObstacleContext@3@I@Z 0000000180029834     CctCharacterControllerManager.obj
 0004:00000840       $pdata$?createObstacleContext@CharacterControllerManager@Cct@physx@@UEAAPEAVPxObstacleContext@3@XZ 0000000180029840     CctCharacterControllerManager.obj
 0004:0000084c       $pdata$?computeInteractions@CharacterControllerManager@Cct@physx@@UEAAXMPEAVPxControllerFilterCallback@3@@Z 000000018002984c     CctCharacterControllerManager.obj
 0004:00000858       $pdata$5$?computeInteractions@CharacterControllerManager@Cct@physx@@UEAAXMPEAVPxControllerFilterCallback@3@@Z 0000000180029858     CctCharacterControllerManager.obj
 0004:00000864       $pdata$7$?computeInteractions@CharacterControllerManager@Cct@physx@@UEAAXMPEAVPxControllerFilterCallback@3@@Z 0000000180029864     CctCharacterControllerManager.obj
 0004:00000870       $pdata$8$?computeInteractions@CharacterControllerManager@Cct@physx@@UEAAXMPEAVPxControllerFilterCallback@3@@Z 0000000180029870     CctCharacterControllerManager.obj
 0004:0000087c       $pdata$9$?computeInteractions@CharacterControllerManager@Cct@physx@@UEAAXMPEAVPxControllerFilterCallback@3@@Z 000000018002987c     CctCharacterControllerManager.obj
 0004:00000888       $pdata$10$?computeInteractions@CharacterControllerManager@Cct@physx@@UEAAXMPEAVPxControllerFilterCallback@3@@Z 0000000180029888     CctCharacterControllerManager.obj
 0004:00000894       $pdata$?shiftOrigin@CharacterControllerManager@Cct@physx@@UEAAXAEBVPxVec3@3@@Z 0000000180029894     CctCharacterControllerManager.obj
 0004:000008a0       $pdata$?onRelease@CharacterControllerManager@Cct@physx@@UEAAXPEBVPxBase@3@PEAXW4Enum@PxDeletionEventFlag@3@@Z 00000001800298a0     CctCharacterControllerManager.obj
 0004:000008ac       $pdata$0$?onRelease@CharacterControllerManager@Cct@physx@@UEAAXPEBVPxBase@3@PEAXW4Enum@PxDeletionEventFlag@3@@Z 00000001800298ac     CctCharacterControllerManager.obj
 0004:000008b8       $pdata$1$?onRelease@CharacterControllerManager@Cct@physx@@UEAAXPEBVPxBase@3@PEAXW4Enum@PxDeletionEventFlag@3@@Z 00000001800298b8     CctCharacterControllerManager.obj
 0004:000008c4       $pdata$2$?onRelease@CharacterControllerManager@Cct@physx@@UEAAXPEBVPxBase@3@PEAXW4Enum@PxDeletionEventFlag@3@@Z 00000001800298c4     CctCharacterControllerManager.obj
 0004:000008d0       $pdata$3$?onRelease@CharacterControllerManager@Cct@physx@@UEAAXPEBVPxBase@3@PEAXW4Enum@PxDeletionEventFlag@3@@Z 00000001800298d0     CctCharacterControllerManager.obj
 0004:000008dc       $pdata$?registerObservedObject@CharacterControllerManager@Cct@physx@@QEAAXPEBVPxBase@3@@Z 00000001800298dc     CctCharacterControllerManager.obj
 0004:000008e8       $pdata$?unregisterObservedObject@CharacterControllerManager@Cct@physx@@QEAAXPEBVPxBase@3@@Z 00000001800298e8     CctCharacterControllerManager.obj
 0004:000008f4       $pdata$?onObstacleRemoved@CharacterControllerManager@Cct@physx@@QEBAXI@Z 00000001800298f4     CctCharacterControllerManager.obj
 0004:00000900       $pdata$?onObstacleUpdated@CharacterControllerManager@Cct@physx@@QEBAXIPEBVPxObstacleContext@3@@Z 0000000180029900     CctCharacterControllerManager.obj
 0004:0000090c       $pdata$2$?onObstacleUpdated@CharacterControllerManager@Cct@physx@@QEBAXIPEBVPxObstacleContext@3@@Z 000000018002990c     CctCharacterControllerManager.obj
 0004:00000918       $pdata$3$?onObstacleUpdated@CharacterControllerManager@Cct@physx@@QEBAXIPEBVPxObstacleContext@3@@Z 0000000180029918     CctCharacterControllerManager.obj
 0004:00000924       $pdata$?onObstacleAdded@CharacterControllerManager@Cct@physx@@QEBAXIPEBVPxObstacleContext@3@@Z 0000000180029924     CctCharacterControllerManager.obj
 0004:00000930       $pdata$2$?onObstacleAdded@CharacterControllerManager@Cct@physx@@QEBAXIPEBVPxObstacleContext@3@@Z 0000000180029930     CctCharacterControllerManager.obj
 0004:0000093c       $pdata$3$?onObstacleAdded@CharacterControllerManager@Cct@physx@@QEBAXIPEBVPxObstacleContext@3@@Z 000000018002993c     CctCharacterControllerManager.obj
 0004:00000948       $pdata$?releaseController@CharacterControllerManager@Cct@physx@@QEAAXAEAVPxController@3@@Z 0000000180029948     CctCharacterControllerManager.obj
 0004:00000954       $pdata$?resetObstaclesBuffers@CharacterControllerManager@Cct@physx@@QEAAXXZ 0000000180029954     CctCharacterControllerManager.obj
 0004:00000960       $pdata$??$append@UPxDebugLine@physx@@@RenderBuffer@Cm@physx@@AEAAXAEAV?$Array@UPxDebugLine@physx@@V?$ReflectionAllocator@UPxDebugLine@physx@@@shdfnd@2@@shdfnd@2@PEBUPxDebugLine@2@I@Z 0000000180029960     CctCharacterControllerManager.obj
 0004:0000096c       $pdata$??$append@UPxDebugPoint@physx@@@RenderBuffer@Cm@physx@@AEAAXAEAV?$Array@UPxDebugPoint@physx@@V?$ReflectionAllocator@UPxDebugPoint@physx@@@shdfnd@2@@shdfnd@2@PEBUPxDebugPoint@2@I@Z 000000018002996c     CctCharacterControllerManager.obj
 0004:00000978       $pdata$??$append@UPxDebugText@physx@@@RenderBuffer@Cm@physx@@AEAAXAEAV?$Array@UPxDebugText@physx@@V?$ReflectionAllocator@UPxDebugText@physx@@@shdfnd@2@@shdfnd@2@PEBUPxDebugText@2@I@Z 0000000180029978     CctCharacterControllerManager.obj
 0004:00000984       $pdata$??$append@UPxDebugTriangle@physx@@@RenderBuffer@Cm@physx@@AEAAXAEAV?$Array@UPxDebugTriangle@physx@@V?$ReflectionAllocator@UPxDebugTriangle@physx@@@shdfnd@2@@shdfnd@2@PEBUPxDebugTriangle@2@I@Z 0000000180029984     CctCharacterControllerManager.obj
 0004:00000990       $pdata$??$resetOrClear@V?$Array@PEBXV?$ReflectionAllocator@PEBX@shdfnd@physx@@@shdfnd@physx@@@@YAXAEAV?$Array@PEBXV?$ReflectionAllocator@PEBX@shdfnd@physx@@@shdfnd@physx@@@Z 0000000180029990     CctCharacterControllerManager.obj
 0004:0000099c       $pdata$??$resetOrClear@V?$Array@UPxExtendedCapsule@physx@@V?$ReflectionAllocator@UPxExtendedCapsule@physx@@@shdfnd@2@@shdfnd@physx@@@@YAXAEAV?$Array@UPxExtendedCapsule@physx@@V?$ReflectionAllocator@UPxExtendedCapsule@physx@@@shdfnd@2@@shdfnd@physx@@@Z 000000018002999c     CctCharacterControllerManager.obj
 0004:000009a8       $pdata$??$resetOrClear@V?$Array@VPxExtendedBox@physx@@V?$ReflectionAllocator@VPxExtendedBox@physx@@@shdfnd@2@@shdfnd@physx@@@@YAXAEAV?$Array@VPxExtendedBox@physx@@V?$ReflectionAllocator@VPxExtendedBox@physx@@@shdfnd@2@@shdfnd@physx@@@Z 00000001800299a8     CctCharacterControllerManager.obj
 0004:000009b4       $pdata$??1RenderBuffer@Cm@physx@@UEAA@XZ 00000001800299b4     CctCharacterControllerManager.obj
 0004:000009c0       $pdata$??_GCharacterControllerManager@Cct@physx@@UEAAPEAXI@Z 00000001800299c0     CctCharacterControllerManager.obj
 0004:000009cc       $pdata$??_GPxDeletionListener@physx@@MEAAPEAXI@Z 00000001800299cc     CctCharacterControllerManager.obj
 0004:000009d8       $pdata$??_GPxRenderBuffer@physx@@UEAAPEAXI@Z 00000001800299d8     CctCharacterControllerManager.obj
 0004:000009e4       $pdata$??_GRenderBuffer@Cm@physx@@UEAAPEAXI@Z 00000001800299e4     CctCharacterControllerManager.obj
 0004:000009f0       $pdata$?InteractionCharacterCharacter@@YAXPEAVController@Cct@physx@@0M@Z 00000001800299f0     CctCharacterControllerManager.obj
 0004:000009fc       $pdata$?allocate@?$ReflectionAllocator@PEAVController@Cct@physx@@@shdfnd@physx@@QEAAPEAX_KPEBDH@Z 00000001800299fc     CctCharacterControllerManager.obj
 0004:00000a08       $pdata$0$?allocate@?$ReflectionAllocator@PEAVController@Cct@physx@@@shdfnd@physx@@QEAAPEAX_KPEBDH@Z 0000000180029a08     CctCharacterControllerManager.obj
 0004:00000a14       $pdata$1$?allocate@?$ReflectionAllocator@PEAVController@Cct@physx@@@shdfnd@physx@@QEAAPEAX_KPEBDH@Z 0000000180029a14     CctCharacterControllerManager.obj
 0004:00000a20       $pdata$?allocate@?$ReflectionAllocator@PEAVObstacleContext@Cct@physx@@@shdfnd@physx@@QEAAPEAX_KPEBDH@Z 0000000180029a20     CctCharacterControllerManager.obj
 0004:00000a2c       $pdata$0$?allocate@?$ReflectionAllocator@PEAVObstacleContext@Cct@physx@@@shdfnd@physx@@QEAAPEAX_KPEBDH@Z 0000000180029a2c     CctCharacterControllerManager.obj
 0004:00000a38       $pdata$1$?allocate@?$ReflectionAllocator@PEAVObstacleContext@Cct@physx@@@shdfnd@physx@@QEAAPEAX_KPEBDH@Z 0000000180029a38     CctCharacterControllerManager.obj
 0004:00000a44       $pdata$?allocate@?$ReflectionAllocator@UPxDebugLine@physx@@@shdfnd@physx@@QEAAPEAX_KPEBDH@Z 0000000180029a44     CctCharacterControllerManager.obj
 0004:00000a50       $pdata$0$?allocate@?$ReflectionAllocator@UPxDebugLine@physx@@@shdfnd@physx@@QEAAPEAX_KPEBDH@Z 0000000180029a50     CctCharacterControllerManager.obj
 0004:00000a5c       $pdata$1$?allocate@?$ReflectionAllocator@UPxDebugLine@physx@@@shdfnd@physx@@QEAAPEAX_KPEBDH@Z 0000000180029a5c     CctCharacterControllerManager.obj
 0004:00000a68       $pdata$?allocate@?$ReflectionAllocator@UPxDebugPoint@physx@@@shdfnd@physx@@QEAAPEAX_KPEBDH@Z 0000000180029a68     CctCharacterControllerManager.obj
 0004:00000a74       $pdata$0$?allocate@?$ReflectionAllocator@UPxDebugPoint@physx@@@shdfnd@physx@@QEAAPEAX_KPEBDH@Z 0000000180029a74     CctCharacterControllerManager.obj
 0004:00000a80       $pdata$1$?allocate@?$ReflectionAllocator@UPxDebugPoint@physx@@@shdfnd@physx@@QEAAPEAX_KPEBDH@Z 0000000180029a80     CctCharacterControllerManager.obj
 0004:00000a8c       $pdata$?allocate@?$ReflectionAllocator@UPxDebugText@physx@@@shdfnd@physx@@QEAAPEAX_KPEBDH@Z 0000000180029a8c     CctCharacterControllerManager.obj
 0004:00000a98       $pdata$0$?allocate@?$ReflectionAllocator@UPxDebugText@physx@@@shdfnd@physx@@QEAAPEAX_KPEBDH@Z 0000000180029a98     CctCharacterControllerManager.obj
 0004:00000aa4       $pdata$1$?allocate@?$ReflectionAllocator@UPxDebugText@physx@@@shdfnd@physx@@QEAAPEAX_KPEBDH@Z 0000000180029aa4     CctCharacterControllerManager.obj
 0004:00000ab0       $pdata$?allocate@?$ReflectionAllocator@UPxDebugTriangle@physx@@@shdfnd@physx@@QEAAPEAX_KPEBDH@Z 0000000180029ab0     CctCharacterControllerManager.obj
 0004:00000abc       $pdata$0$?allocate@?$ReflectionAllocator@UPxDebugTriangle@physx@@@shdfnd@physx@@QEAAPEAX_KPEBDH@Z 0000000180029abc     CctCharacterControllerManager.obj
 0004:00000ac8       $pdata$1$?allocate@?$ReflectionAllocator@UPxDebugTriangle@physx@@@shdfnd@physx@@QEAAPEAX_KPEBDH@Z 0000000180029ac8     CctCharacterControllerManager.obj
 0004:00000ad4       $pdata$?append@RenderBuffer@Cm@physx@@UEAAXAEBVPxRenderBuffer@3@@Z 0000000180029ad4     CctCharacterControllerManager.obj
 0004:00000ae0       $pdata$?computeMTD@@YA_NAEAVPxVec3@physx@@AEAMAEBV12@2AEBVPxMat33@2@223@Z 0000000180029ae0     CctCharacterControllerManager.obj
 0004:00000aec       $pdata$?copy@?$Array@UPxDebugLine@physx@@V?$ReflectionAllocator@UPxDebugLine@physx@@@shdfnd@2@@shdfnd@physx@@KAXPEAUPxDebugLine@3@0PEBU43@@Z 0000000180029aec     CctCharacterControllerManager.obj
 0004:00000af8       $pdata$0$?copy@?$Array@UPxDebugLine@physx@@V?$ReflectionAllocator@UPxDebugLine@physx@@@shdfnd@2@@shdfnd@physx@@KAXPEAUPxDebugLine@3@0PEBU43@@Z 0000000180029af8     CctCharacterControllerManager.obj
 0004:00000b04       $pdata$1$?copy@?$Array@UPxDebugLine@physx@@V?$ReflectionAllocator@UPxDebugLine@physx@@@shdfnd@2@@shdfnd@physx@@KAXPEAUPxDebugLine@3@0PEBU43@@Z 0000000180029b04     CctCharacterControllerManager.obj
 0004:00000b10       $pdata$?copy@?$Array@UPxDebugPoint@physx@@V?$ReflectionAllocator@UPxDebugPoint@physx@@@shdfnd@2@@shdfnd@physx@@KAXPEAUPxDebugPoint@3@0PEBU43@@Z 0000000180029b10     CctCharacterControllerManager.obj
 0004:00000b1c       $pdata$0$?copy@?$Array@UPxDebugPoint@physx@@V?$ReflectionAllocator@UPxDebugPoint@physx@@@shdfnd@2@@shdfnd@physx@@KAXPEAUPxDebugPoint@3@0PEBU43@@Z 0000000180029b1c     CctCharacterControllerManager.obj
 0004:00000b28       $pdata$1$?copy@?$Array@UPxDebugPoint@physx@@V?$ReflectionAllocator@UPxDebugPoint@physx@@@shdfnd@2@@shdfnd@physx@@KAXPEAUPxDebugPoint@3@0PEBU43@@Z 0000000180029b28     CctCharacterControllerManager.obj
 0004:00000b34       $pdata$?copy@?$Array@UPxDebugText@physx@@V?$ReflectionAllocator@UPxDebugText@physx@@@shdfnd@2@@shdfnd@physx@@KAXPEAUPxDebugText@3@0PEBU43@@Z 0000000180029b34     CctCharacterControllerManager.obj
 0004:00000b40       $pdata$0$?copy@?$Array@UPxDebugText@physx@@V?$ReflectionAllocator@UPxDebugText@physx@@@shdfnd@2@@shdfnd@physx@@KAXPEAUPxDebugText@3@0PEBU43@@Z 0000000180029b40     CctCharacterControllerManager.obj
 0004:00000b4c       $pdata$1$?copy@?$Array@UPxDebugText@physx@@V?$ReflectionAllocator@UPxDebugText@physx@@@shdfnd@2@@shdfnd@physx@@KAXPEAUPxDebugText@3@0PEBU43@@Z 0000000180029b4c     CctCharacterControllerManager.obj
 0004:00000b58       $pdata$?copy@?$Array@UPxDebugTriangle@physx@@V?$ReflectionAllocator@UPxDebugTriangle@physx@@@shdfnd@2@@shdfnd@physx@@KAXPEAUPxDebugTriangle@3@0PEBU43@@Z 0000000180029b58     CctCharacterControllerManager.obj
 0004:00000b64       $pdata$0$?copy@?$Array@UPxDebugTriangle@physx@@V?$ReflectionAllocator@UPxDebugTriangle@physx@@@shdfnd@2@@shdfnd@physx@@KAXPEAUPxDebugTriangle@3@0PEBU43@@Z 0000000180029b64     CctCharacterControllerManager.obj
 0004:00000b70       $pdata$1$?copy@?$Array@UPxDebugTriangle@physx@@V?$ReflectionAllocator@UPxDebugTriangle@physx@@@shdfnd@2@@shdfnd@physx@@KAXPEAUPxDebugTriangle@3@0PEBU43@@Z 0000000180029b70     CctCharacterControllerManager.obj
 0004:00000b7c       $pdata$?create@?$HashBase@PEAVPxShape@physx@@PEAV12@U?$Hash@PEAVPxShape@physx@@@shdfnd@2@UGetKey@?$HashSetBase@PEAVPxShape@physx@@U?$Hash@PEAVPxShape@physx@@@shdfnd@2@VNonTrackingAllocator@42@$0A@@internal@42@VNonTrackingAllocator@42@$0A@@internal@shdfnd@physx@@QEAAPEAPEAVPxShape@4@AEBQEAV54@AEA_N@Z 0000000180029b7c     CctCharacterControllerManager.obj
 0004:00000b88       $pdata$?create@?$HashBase@V?$Pair@QEBVPxBase@physx@@UObservedRefCounter@Cct@2@@shdfnd@physx@@PEBVPxBase@3@U?$Hash@PEBVPxBase@physx@@@23@UGetKey@?$HashMapBase@PEBVPxBase@physx@@UObservedRefCounter@Cct@2@U?$Hash@PEBVPxBase@physx@@@shdfnd@2@VNonTrackingAllocator@62@@internal@23@VNonTrackingAllocator@23@$00@internal@shdfnd@physx@@QEAAPEAV?$Pair@QEBVPxBase@physx@@UObservedRefCounter@Cct@2@@34@AEBQEBVPxBase@4@AEA_N@Z 0000000180029b88     CctCharacterControllerManager.obj
 0004:00000b94       $pdata$?erase@?$HashBase@V?$Pair@QEBVPxBase@physx@@UObservedRefCounter@Cct@2@@shdfnd@physx@@PEBVPxBase@3@U?$Hash@PEBVPxBase@physx@@@23@UGetKey@?$HashMapBase@PEBVPxBase@physx@@UObservedRefCounter@Cct@2@U?$Hash@PEBVPxBase@physx@@@shdfnd@2@VNonTrackingAllocator@62@@internal@23@VNonTrackingAllocator@23@$00@internal@shdfnd@physx@@QEAA_NAEBQEBVPxBase@4@@Z 0000000180029b94     CctCharacterControllerManager.obj
 0004:00000ba0       $pdata$?fixDir@@YA?AVPxVec3@physx@@AEBV12@0@Z 0000000180029ba0     CctCharacterControllerManager.obj
 0004:00000bac       $pdata$?freeListAdd@?$HashBase@PEAVPxShape@physx@@PEAV12@U?$Hash@PEAVPxShape@physx@@@shdfnd@2@UGetKey@?$HashSetBase@PEAVPxShape@physx@@U?$Hash@PEAVPxShape@physx@@@shdfnd@2@VNonTrackingAllocator@42@$0A@@internal@42@VNonTrackingAllocator@42@$0A@@internal@shdfnd@physx@@AEAAXII@Z 0000000180029bac     CctCharacterControllerManager.obj
 0004:00000bb8       $pdata$2$?freeListAdd@?$HashBase@PEAVPxShape@physx@@PEAV12@U?$Hash@PEAVPxShape@physx@@@shdfnd@2@UGetKey@?$HashSetBase@PEAVPxShape@physx@@U?$Hash@PEAVPxShape@physx@@@shdfnd@2@VNonTrackingAllocator@42@$0A@@internal@42@VNonTrackingAllocator@42@$0A@@internal@shdfnd@physx@@AEAAXII@Z 0000000180029bb8     CctCharacterControllerManager.obj
 0004:00000bc4       $pdata$3$?freeListAdd@?$HashBase@PEAVPxShape@physx@@PEAV12@U?$Hash@PEAVPxShape@physx@@@shdfnd@2@UGetKey@?$HashSetBase@PEAVPxShape@physx@@U?$Hash@PEAVPxShape@physx@@@shdfnd@2@VNonTrackingAllocator@42@$0A@@internal@42@VNonTrackingAllocator@42@$0A@@internal@shdfnd@physx@@AEAAXII@Z 0000000180029bc4     CctCharacterControllerManager.obj
 0004:00000bd0       $pdata$?growAndPushBack@?$Array@PEAVController@Cct@physx@@V?$ReflectionAllocator@PEAVController@Cct@physx@@@shdfnd@3@@shdfnd@physx@@IEAAAEAPEAVController@Cct@3@AEBQEAV453@@Z 0000000180029bd0     CctCharacterControllerManager.obj
 0004:00000bdc       $pdata$?growAndPushBack@?$Array@PEAVObstacleContext@Cct@physx@@V?$ReflectionAllocator@PEAVObstacleContext@Cct@physx@@@shdfnd@3@@shdfnd@physx@@IEAAAEAPEAVObstacleContext@Cct@3@AEBQEAV453@@Z 0000000180029bdc     CctCharacterControllerManager.obj
 0004:00000be8       $pdata$?growAndPushBack@?$Array@UPxDebugLine@physx@@V?$ReflectionAllocator@UPxDebugLine@physx@@@shdfnd@2@@shdfnd@physx@@IEAAAEAUPxDebugLine@3@AEBU43@@Z 0000000180029be8     CctCharacterControllerManager.obj
 0004:00000bf4       $pdata$?growAndPushBack@?$Array@UPxDebugPoint@physx@@V?$ReflectionAllocator@UPxDebugPoint@physx@@@shdfnd@2@@shdfnd@physx@@IEAAAEAUPxDebugPoint@3@AEBU43@@Z 0000000180029bf4     CctCharacterControllerManager.obj
 0004:00000c00       $pdata$?growAndPushBack@?$Array@UPxDebugText@physx@@V?$ReflectionAllocator@UPxDebugText@physx@@@shdfnd@2@@shdfnd@physx@@IEAAAEAUPxDebugText@3@AEBU43@@Z 0000000180029c00     CctCharacterControllerManager.obj
 0004:00000c0c       $pdata$?growAndPushBack@?$Array@UPxDebugTriangle@physx@@V?$ReflectionAllocator@UPxDebugTriangle@physx@@@shdfnd@2@@shdfnd@physx@@IEAAAEAUPxDebugTriangle@3@AEBU43@@Z 0000000180029c0c     CctCharacterControllerManager.obj
 0004:00000c18       $pdata$?recreate@?$Array@PEBXV?$ReflectionAllocator@PEBX@shdfnd@physx@@@shdfnd@physx@@IEAAXI@Z 0000000180029c18     CctCharacterControllerManager.obj
 0004:00000c24       $pdata$?recreate@?$Array@UPxDebugLine@physx@@V?$ReflectionAllocator@UPxDebugLine@physx@@@shdfnd@2@@shdfnd@physx@@IEAAXI@Z 0000000180029c24     CctCharacterControllerManager.obj
 0004:00000c30       $pdata$?recreate@?$Array@UPxDebugPoint@physx@@V?$ReflectionAllocator@UPxDebugPoint@physx@@@shdfnd@2@@shdfnd@physx@@IEAAXI@Z 0000000180029c30     CctCharacterControllerManager.obj
 0004:00000c3c       $pdata$?recreate@?$Array@UPxDebugText@physx@@V?$ReflectionAllocator@UPxDebugText@physx@@@shdfnd@2@@shdfnd@physx@@IEAAXI@Z 0000000180029c3c     CctCharacterControllerManager.obj
 0004:00000c48       $pdata$?recreate@?$Array@UPxDebugTriangle@physx@@V?$ReflectionAllocator@UPxDebugTriangle@physx@@@shdfnd@2@@shdfnd@physx@@IEAAXI@Z 0000000180029c48     CctCharacterControllerManager.obj
 0004:00000c54       $pdata$?recreate@?$Array@UPxExtendedCapsule@physx@@V?$ReflectionAllocator@UPxExtendedCapsule@physx@@@shdfnd@2@@shdfnd@physx@@IEAAXI@Z 0000000180029c54     CctCharacterControllerManager.obj
 0004:00000c60       $pdata$?recreate@?$Array@VPxExtendedBox@physx@@V?$ReflectionAllocator@VPxExtendedBox@physx@@@shdfnd@2@@shdfnd@physx@@IEAAXI@Z 0000000180029c60     CctCharacterControllerManager.obj
 0004:00000c6c       $pdata$0$?recreate@?$Array@VPxExtendedBox@physx@@V?$ReflectionAllocator@VPxExtendedBox@physx@@@shdfnd@2@@shdfnd@physx@@IEAAXI@Z 0000000180029c6c     CctCharacterControllerManager.obj
 0004:00000c78       $pdata$1$?recreate@?$Array@VPxExtendedBox@physx@@V?$ReflectionAllocator@VPxExtendedBox@physx@@@shdfnd@2@@shdfnd@physx@@IEAAXI@Z 0000000180029c78     CctCharacterControllerManager.obj
 0004:00000c84       $pdata$?replaceWithLast@?$HashBase@V?$Pair@QEBVPxBase@physx@@UObservedRefCounter@Cct@2@@shdfnd@physx@@PEBVPxBase@3@U?$Hash@PEBVPxBase@physx@@@23@UGetKey@?$HashMapBase@PEBVPxBase@physx@@UObservedRefCounter@Cct@2@U?$Hash@PEBVPxBase@physx@@@shdfnd@2@VNonTrackingAllocator@62@@internal@23@VNonTrackingAllocator@23@$00@internal@shdfnd@physx@@AEAAXI@Z 0000000180029c84     CctCharacterControllerManager.obj
 0004:00000c90       $pdata$?reserveInternal@?$HashBase@PEAVPxShape@physx@@PEAV12@U?$Hash@PEAVPxShape@physx@@@shdfnd@2@UGetKey@?$HashSetBase@PEAVPxShape@physx@@U?$Hash@PEAVPxShape@physx@@@shdfnd@2@VNonTrackingAllocator@42@$0A@@internal@42@VNonTrackingAllocator@42@$0A@@internal@shdfnd@physx@@AEAAXI@Z 0000000180029c90     CctCharacterControllerManager.obj
 0004:00000c9c       $pdata$?reserveInternal@?$HashBase@V?$Pair@QEBVPxBase@physx@@UObservedRefCounter@Cct@2@@shdfnd@physx@@PEBVPxBase@3@U?$Hash@PEBVPxBase@physx@@@23@UGetKey@?$HashMapBase@PEBVPxBase@physx@@UObservedRefCounter@Cct@2@U?$Hash@PEBVPxBase@physx@@@shdfnd@2@VNonTrackingAllocator@62@@internal@23@VNonTrackingAllocator@23@$00@internal@shdfnd@physx@@AEAAXI@Z 0000000180029c9c     CctCharacterControllerManager.obj
 0004:00000ca8       $pdata$?resize@?$Array@PEBXV?$ReflectionAllocator@PEBX@shdfnd@physx@@@shdfnd@physx@@QEAAXIAEBQEBX@Z 0000000180029ca8     CctCharacterControllerManager.obj
 0004:00000cb4       $pdata$?resize@?$Array@UPxExtendedCapsule@physx@@V?$ReflectionAllocator@UPxExtendedCapsule@physx@@@shdfnd@2@@shdfnd@physx@@QEAAXIAEBUPxExtendedCapsule@3@@Z 0000000180029cb4     CctCharacterControllerManager.obj
 0004:00000cc0       $pdata$?resize@?$Array@VPxExtendedBox@physx@@V?$ReflectionAllocator@VPxExtendedBox@physx@@@shdfnd@2@@shdfnd@physx@@QEAAXIAEBVPxExtendedBox@3@@Z 0000000180029cc0     CctCharacterControllerManager.obj
 0004:00000ccc       $pdata$??0Controller@Cct@physx@@QEAA@AEBVPxControllerDesc@2@PEAVPxScene@2@@Z 0000000180029ccc     CctController.obj
 0004:00000cd8       $pdata$??1Controller@Cct@physx@@UEAA@XZ 0000000180029cd8     CctController.obj
 0004:00000ce4       $pdata$?releaseInternal@Controller@Cct@physx@@QEAAXXZ 0000000180029ce4     CctController.obj
 0004:00000cf0       $pdata$?getInternalState@Controller@Cct@physx@@QEBAXAEAUPxControllerState@3@@Z 0000000180029cf0     CctController.obj
 0004:00000cfc       $pdata$?onOriginShift@Controller@Cct@physx@@QEAAXAEBVPxVec3@3@@Z 0000000180029cfc     CctController.obj
 0004:00000d08       $pdata$?setUpDirectionInternal@Controller@Cct@physx@@IEAAXAEBVPxVec3@3@@Z 0000000180029d08     CctController.obj
 0004:00000d14       $pdata$?getKineShape@Controller@Cct@physx@@IEBAPEAVPxShape@3@XZ 0000000180029d14     CctController.obj
 0004:00000d20       $pdata$?createProxyActor@Controller@Cct@physx@@IEAA_NAEAVPxPhysics@3@AEBVPxGeometry@3@AEBVPxMaterial@3@@Z 0000000180029d20     CctController.obj
 0004:00000d2c       $pdata$?setPos@Controller@Cct@physx@@IEAA_NAEBUPxExtendedVec3@3@@Z 0000000180029d2c     CctController.obj
 0004:00000d38       $pdata$??_GController@Cct@physx@@UEAAPEAXI@Z 0000000180029d38     CctController.obj
 0004:00000d44       $pdata$??0HandleManager@Cct@physx@@QEAA@XZ 0000000180029d44     CctObstacleContext.obj
 0004:00000d50       $pdata$??1HandleManager@Cct@physx@@QEAA@XZ 0000000180029d50     CctObstacleContext.obj
 0004:00000d5c       $pdata$?Add@HandleManager@Cct@physx@@QEAAIPEAX@Z 0000000180029d5c     CctObstacleContext.obj
 0004:00000d68       $pdata$4$?Add@HandleManager@Cct@physx@@QEAAIPEAX@Z 0000000180029d68     CctObstacleContext.obj
 0004:00000d74       $pdata$5$?Add@HandleManager@Cct@physx@@QEAAIPEAX@Z 0000000180029d74     CctObstacleContext.obj
 0004:00000d80       $pdata$?Remove@HandleManager@Cct@physx@@QEAAXI@Z 0000000180029d80     CctObstacleContext.obj
 0004:00000d8c       $pdata$1$?Remove@HandleManager@Cct@physx@@QEAAXI@Z 0000000180029d8c     CctObstacleContext.obj
 0004:00000d98       $pdata$2$?Remove@HandleManager@Cct@physx@@QEAAXI@Z 0000000180029d98     CctObstacleContext.obj
 0004:00000da4       $pdata$?SetupLists@HandleManager@Cct@physx@@AEAA_NPEAPEAXPEAG11@Z 0000000180029da4     CctObstacleContext.obj
 0004:00000db0       $pdata$??0ObstacleContext@Cct@physx@@QEAA@AEAVCharacterControllerManager@12@@Z 0000000180029db0     CctObstacleContext.obj
 0004:00000dbc       $pdata$??1ObstacleContext@Cct@physx@@UEAA@XZ 0000000180029dbc     CctObstacleContext.obj
 0004:00000dc8       $pdata$?addObstacle@ObstacleContext@Cct@physx@@UEAAIAEBVPxObstacle@3@@Z 0000000180029dc8     CctObstacleContext.obj
 0004:00000dd4       $pdata$0$?addObstacle@ObstacleContext@Cct@physx@@UEAAIAEBVPxObstacle@3@@Z 0000000180029dd4     CctObstacleContext.obj
 0004:00000de0       $pdata$1$?addObstacle@ObstacleContext@Cct@physx@@UEAAIAEBVPxObstacle@3@@Z 0000000180029de0     CctObstacleContext.obj
 0004:00000dec       $pdata$?removeObstacle@ObstacleContext@Cct@physx@@UEAA_NI@Z 0000000180029dec     CctObstacleContext.obj
 0004:00000df8       $pdata$1$?removeObstacle@ObstacleContext@Cct@physx@@UEAA_NI@Z 0000000180029df8     CctObstacleContext.obj
 0004:00000e04       $pdata$2$?removeObstacle@ObstacleContext@Cct@physx@@UEAA_NI@Z 0000000180029e04     CctObstacleContext.obj
 0004:00000e10       $pdata$3$?removeObstacle@ObstacleContext@Cct@physx@@UEAA_NI@Z 0000000180029e10     CctObstacleContext.obj
 0004:00000e1c       $pdata$4$?removeObstacle@ObstacleContext@Cct@physx@@UEAA_NI@Z 0000000180029e1c     CctObstacleContext.obj
 0004:00000e28       $pdata$?updateObstacle@ObstacleContext@Cct@physx@@UEAA_NIAEBVPxObstacle@3@@Z 0000000180029e28     CctObstacleContext.obj
 0004:00000e34       $pdata$?raycastSingle@ObstacleContext@Cct@physx@@QEBAPEBVPxObstacle@3@AEAUPxRaycastHit@3@AEBVPxVec3@3@1MAEAI@Z 0000000180029e34     CctObstacleContext.obj
 0004:00000e40       $pdata$?raycastSingle@ObstacleContext@Cct@physx@@QEBAPEBVPxObstacle@3@AEAUPxRaycastHit@3@AEBIAEBVPxVec3@3@2M@Z 0000000180029e40     CctObstacleContext.obj
 0004:00000e4c       $pdata$??_GObstacleContext@Cct@physx@@UEAAPEAXI@Z 0000000180029e4c     CctObstacleContext.obj
 0004:00000e58       $pdata$??_GPxObstacleContext@physx@@UEAAPEAXI@Z 0000000180029e58     CctObstacleContext.obj
 0004:00000e64       $pdata$?allocate@?$ReflectionAllocator@UInternalBoxObstacle@ObstacleContext@Cct@physx@@@shdfnd@physx@@QEAAPEAX_KPEBDH@Z 0000000180029e64     CctObstacleContext.obj
 0004:00000e70       $pdata$0$?allocate@?$ReflectionAllocator@UInternalBoxObstacle@ObstacleContext@Cct@physx@@@shdfnd@physx@@QEAAPEAX_KPEBDH@Z 0000000180029e70     CctObstacleContext.obj
 0004:00000e7c       $pdata$1$?allocate@?$ReflectionAllocator@UInternalBoxObstacle@ObstacleContext@Cct@physx@@@shdfnd@physx@@QEAAPEAX_KPEBDH@Z 0000000180029e7c     CctObstacleContext.obj
 0004:00000e88       $pdata$?allocate@?$ReflectionAllocator@UInternalCapsuleObstacle@ObstacleContext@Cct@physx@@@shdfnd@physx@@QEAAPEAX_KPEBDH@Z 0000000180029e88     CctObstacleContext.obj
 0004:00000e94       $pdata$0$?allocate@?$ReflectionAllocator@UInternalCapsuleObstacle@ObstacleContext@Cct@physx@@@shdfnd@physx@@QEAAPEAX_KPEBDH@Z 0000000180029e94     CctObstacleContext.obj
 0004:00000ea0       $pdata$1$?allocate@?$ReflectionAllocator@UInternalCapsuleObstacle@ObstacleContext@Cct@physx@@@shdfnd@physx@@QEAAPEAX_KPEBDH@Z 0000000180029ea0     CctObstacleContext.obj
 0004:00000eac       $pdata$?copy@?$Array@UInternalBoxObstacle@ObstacleContext@Cct@physx@@V?$ReflectionAllocator@UInternalBoxObstacle@ObstacleContext@Cct@physx@@@shdfnd@4@@shdfnd@physx@@KAXPEAUInternalBoxObstacle@ObstacleContext@Cct@3@0PEBU4563@@Z 0000000180029eac     CctObstacleContext.obj
 0004:00000eb8       $pdata$0$?copy@?$Array@UInternalBoxObstacle@ObstacleContext@Cct@physx@@V?$ReflectionAllocator@UInternalBoxObstacle@ObstacleContext@Cct@physx@@@shdfnd@4@@shdfnd@physx@@KAXPEAUInternalBoxObstacle@ObstacleContext@Cct@3@0PEBU4563@@Z 0000000180029eb8     CctObstacleContext.obj
 0004:00000ec4       $pdata$1$?copy@?$Array@UInternalBoxObstacle@ObstacleContext@Cct@physx@@V?$ReflectionAllocator@UInternalBoxObstacle@ObstacleContext@Cct@physx@@@shdfnd@4@@shdfnd@physx@@KAXPEAUInternalBoxObstacle@ObstacleContext@Cct@3@0PEBU4563@@Z 0000000180029ec4     CctObstacleContext.obj
 0004:00000ed0       $pdata$?copy@?$Array@UInternalCapsuleObstacle@ObstacleContext@Cct@physx@@V?$ReflectionAllocator@UInternalCapsuleObstacle@ObstacleContext@Cct@physx@@@shdfnd@4@@shdfnd@physx@@KAXPEAUInternalCapsuleObstacle@ObstacleContext@Cct@3@0PEBU4563@@Z 0000000180029ed0     CctObstacleContext.obj
 0004:00000edc       $pdata$0$?copy@?$Array@UInternalCapsuleObstacle@ObstacleContext@Cct@physx@@V?$ReflectionAllocator@UInternalCapsuleObstacle@ObstacleContext@Cct@physx@@@shdfnd@4@@shdfnd@physx@@KAXPEAUInternalCapsuleObstacle@ObstacleContext@Cct@3@0PEBU4563@@Z 0000000180029edc     CctObstacleContext.obj
 0004:00000ee8       $pdata$1$?copy@?$Array@UInternalCapsuleObstacle@ObstacleContext@Cct@physx@@V?$ReflectionAllocator@UInternalCapsuleObstacle@ObstacleContext@Cct@physx@@@shdfnd@4@@shdfnd@physx@@KAXPEAUInternalCapsuleObstacle@ObstacleContext@Cct@3@0PEBU4563@@Z 0000000180029ee8     CctObstacleContext.obj
 0004:00000ef4       $pdata$?growAndPushBack@?$Array@UInternalBoxObstacle@ObstacleContext@Cct@physx@@V?$ReflectionAllocator@UInternalBoxObstacle@ObstacleContext@Cct@physx@@@shdfnd@4@@shdfnd@physx@@IEAAAEAUInternalBoxObstacle@ObstacleContext@Cct@3@AEBU4563@@Z 0000000180029ef4     CctObstacleContext.obj
 0004:00000f00       $pdata$?growAndPushBack@?$Array@UInternalCapsuleObstacle@ObstacleContext@Cct@physx@@V?$ReflectionAllocator@UInternalCapsuleObstacle@ObstacleContext@Cct@physx@@@shdfnd@4@@shdfnd@physx@@IEAAAEAUInternalCapsuleObstacle@ObstacleContext@Cct@3@AEBU4563@@Z 0000000180029f00     CctObstacleContext.obj
 0004:00000f0c       $pdata$??0SweptBox@Cct@physx@@QEAA@XZ 0000000180029f0c     CctSweptBox.obj
 0004:00000f18       $pdata$?computeTemporalBox@SweptBox@Cct@physx@@UEBAXAEBVSweepTest@23@AEAUPxExtendedBounds3@3@AEBUPxExtendedVec3@3@AEBVPxVec3@3@@Z 0000000180029f18     CctSweptBox.obj
 0004:00000f24       $pdata$??_GSweptBox@Cct@physx@@UEAAPEAXI@Z 0000000180029f24     CctSweptBox.obj
 0004:00000f30       $pdata$??0SweptCapsule@Cct@physx@@QEAA@XZ 0000000180029f30     CctSweptCapsule.obj
 0004:00000f3c       $pdata$?computeTemporalBox@SweptCapsule@Cct@physx@@UEBAXAEBVSweepTest@23@AEAUPxExtendedBounds3@3@AEBUPxExtendedVec3@3@AEBVPxVec3@3@@Z 0000000180029f3c     CctSweptCapsule.obj
 0004:00000f48       $pdata$??_GSweptCapsule@Cct@physx@@UEAAPEAXI@Z 0000000180029f48     CctSweptCapsule.obj
 0004:00000f54       $pdata$?computeTemporalBox@Cct@physx@@YAXAEAUPxExtendedBounds3@2@MMMMAEBVPxVec3@2@AEBUPxExtendedVec3@2@1@Z 0000000180029f54     CctSweptVolume.obj
 0004:00000f60       $pdata$??_GSweptVolume@Cct@physx@@UEAAPEAXI@Z 0000000180029f60     CctSweptVolume.obj
 0004:00000f6c       $pdata$??1PxMeshOverlapUtil@physx@@QEAA@XZ 0000000180029f6c     PhysX3Extensions:ExtTriangleMeshExt.obj
 0004:00000f78       $pdata$?findOverlap@PxMeshOverlapUtil@physx@@QEAAIAEBVPxGeometry@2@AEBVPxTransform@2@AEBVPxTriangleMeshGeometry@2@1@Z 0000000180029f78     PhysX3Extensions:ExtTriangleMeshExt.obj
 0004:00000f84       $pdata$0$?findOverlap@PxMeshOverlapUtil@physx@@QEAAIAEBVPxGeometry@2@AEBVPxTransform@2@AEBVPxTriangleMeshGeometry@2@1@Z 0000000180029f84     PhysX3Extensions:ExtTriangleMeshExt.obj
 0004:00000f90       $pdata$1$?findOverlap@PxMeshOverlapUtil@physx@@QEAAIAEBVPxGeometry@2@AEBVPxTransform@2@AEBVPxTriangleMeshGeometry@2@1@Z 0000000180029f90     PhysX3Extensions:ExtTriangleMeshExt.obj
 0004:00000f9c       $pdata$?findOverlap@PxMeshOverlapUtil@physx@@QEAAIAEBVPxGeometry@2@AEBVPxTransform@2@AEBVPxHeightFieldGeometry@2@1@Z 0000000180029f9c     PhysX3Extensions:ExtTriangleMeshExt.obj
 0004:00000fa8       $pdata$?PxComputeMeshPenetration@physx@@YA?AVPxVec3@1@IAEBVPxGeometry@1@AEBVPxTransform@1@AEBVPxTriangleMeshGeometry@1@1AEAI@Z 0000000180029fa8     PhysX3Extensions:ExtTriangleMeshExt.obj
 0004:00000fb4       $pdata$?PxComputeHeightFieldPenetration@physx@@YA?AVPxVec3@1@IAEBVPxGeometry@1@AEBVPxTransform@1@AEBVPxHeightFieldGeometry@1@1AEAI@Z 0000000180029fb4     PhysX3Extensions:ExtTriangleMeshExt.obj
 0004:00000fc0       $pdata$??$computeMeshPenetrationT@VPxHeightFieldGeometry@physx@@@?A0x039ec4c9@@YA_NAEAVPxVec3@physx@@AEAMAEBVPxGeometry@2@AEBVPxTransform@2@AEBVPxHeightFieldGeometry@2@3IPEAI@Z 0000000180029fc0     PhysX3Extensions:ExtTriangleMeshExt.obj
 0004:00000fcc       $pdata$3$??$computeMeshPenetrationT@VPxHeightFieldGeometry@physx@@@?A0x039ec4c9@@YA_NAEAVPxVec3@physx@@AEAMAEBVPxGeometry@2@AEBVPxTransform@2@AEBVPxHeightFieldGeometry@2@3IPEAI@Z 0000000180029fcc     PhysX3Extensions:ExtTriangleMeshExt.obj
 0004:00000fd8       $pdata$5$??$computeMeshPenetrationT@VPxHeightFieldGeometry@physx@@@?A0x039ec4c9@@YA_NAEAVPxVec3@physx@@AEAMAEBVPxGeometry@2@AEBVPxTransform@2@AEBVPxHeightFieldGeometry@2@3IPEAI@Z 0000000180029fd8     PhysX3Extensions:ExtTriangleMeshExt.obj
 0004:00000fe4       $pdata$6$??$computeMeshPenetrationT@VPxHeightFieldGeometry@physx@@@?A0x039ec4c9@@YA_NAEAVPxVec3@physx@@AEAMAEBVPxGeometry@2@AEBVPxTransform@2@AEBVPxHeightFieldGeometry@2@3IPEAI@Z 0000000180029fe4     PhysX3Extensions:ExtTriangleMeshExt.obj
 0004:00000ff0       $pdata$7$??$computeMeshPenetrationT@VPxHeightFieldGeometry@physx@@@?A0x039ec4c9@@YA_NAEAVPxVec3@physx@@AEAMAEBVPxGeometry@2@AEBVPxTransform@2@AEBVPxHeightFieldGeometry@2@3IPEAI@Z 0000000180029ff0     PhysX3Extensions:ExtTriangleMeshExt.obj
 0004:00000ffc       $pdata$8$??$computeMeshPenetrationT@VPxHeightFieldGeometry@physx@@@?A0x039ec4c9@@YA_NAEAVPxVec3@physx@@AEAMAEBVPxGeometry@2@AEBVPxTransform@2@AEBVPxHeightFieldGeometry@2@3IPEAI@Z 0000000180029ffc     PhysX3Extensions:ExtTriangleMeshExt.obj
 0004:00001008       $pdata$??$computeMeshPenetrationT@VPxTriangleMeshGeometry@physx@@@?A0x039ec4c9@@YA_NAEAVPxVec3@physx@@AEAMAEBVPxGeometry@2@AEBVPxTransform@2@AEBVPxTriangleMeshGeometry@2@3IPEAI@Z 000000018002a008     PhysX3Extensions:ExtTriangleMeshExt.obj
 0004:00001014       $pdata$3$??$computeMeshPenetrationT@VPxTriangleMeshGeometry@physx@@@?A0x039ec4c9@@YA_NAEAVPxVec3@physx@@AEAMAEBVPxGeometry@2@AEBVPxTransform@2@AEBVPxTriangleMeshGeometry@2@3IPEAI@Z 000000018002a014     PhysX3Extensions:ExtTriangleMeshExt.obj
 0004:00001020       $pdata$5$??$computeMeshPenetrationT@VPxTriangleMeshGeometry@physx@@@?A0x039ec4c9@@YA_NAEAVPxVec3@physx@@AEAMAEBVPxGeometry@2@AEBVPxTransform@2@AEBVPxTriangleMeshGeometry@2@3IPEAI@Z 000000018002a020     PhysX3Extensions:ExtTriangleMeshExt.obj
 0004:0000102c       $pdata$6$??$computeMeshPenetrationT@VPxTriangleMeshGeometry@physx@@@?A0x039ec4c9@@YA_NAEAVPxVec3@physx@@AEAMAEBVPxGeometry@2@AEBVPxTransform@2@AEBVPxTriangleMeshGeometry@2@3IPEAI@Z 000000018002a02c     PhysX3Extensions:ExtTriangleMeshExt.obj
 0004:00001038       $pdata$7$??$computeMeshPenetrationT@VPxTriangleMeshGeometry@physx@@@?A0x039ec4c9@@YA_NAEAVPxVec3@physx@@AEAMAEBVPxGeometry@2@AEBVPxTransform@2@AEBVPxTriangleMeshGeometry@2@3IPEAI@Z 000000018002a038     PhysX3Extensions:ExtTriangleMeshExt.obj
 0004:00001044       $pdata$8$??$computeMeshPenetrationT@VPxTriangleMeshGeometry@physx@@@?A0x039ec4c9@@YA_NAEAVPxVec3@physx@@AEAMAEBVPxGeometry@2@AEBVPxTransform@2@AEBVPxTriangleMeshGeometry@2@3IPEAI@Z 000000018002a044     PhysX3Extensions:ExtTriangleMeshExt.obj
 0004:00001050       $pdata$?updateMassAndInertia@PxRigidBodyExt@physx@@SA_NAEAVPxRigidBody@2@PEBMIPEBVPxVec3@2@_N@Z 000000018002a050     PhysX3Extensions:ExtRigidBodyExt.obj
 0004:0000105c       $pdata$?updateMassAndInertia@PxRigidBodyExt@physx@@SA_NAEAVPxRigidBody@2@MPEBVPxVec3@2@_N@Z 000000018002a05c     PhysX3Extensions:ExtRigidBodyExt.obj
 0004:00001068       $pdata$?setMassAndUpdateInertia@PxRigidBodyExt@physx@@SA_NAEAVPxRigidBody@2@PEBMIPEBVPxVec3@2@_N@Z 000000018002a068     PhysX3Extensions:ExtRigidBodyExt.obj
 0004:00001074       $pdata$?setMassAndUpdateInertia@PxRigidBodyExt@physx@@SA_NAEAVPxRigidBody@2@MPEBVPxVec3@2@_N@Z 000000018002a074     PhysX3Extensions:ExtRigidBodyExt.obj
 0004:00001080       $pdata$?computeMassPropertiesFromShapes@PxRigidBodyExt@physx@@SA?AVPxMassProperties@2@PEBQEBVPxShape@2@I@Z 000000018002a080     PhysX3Extensions:ExtRigidBodyExt.obj
 0004:0000108c       $pdata$1$?computeMassPropertiesFromShapes@PxRigidBodyExt@physx@@SA?AVPxMassProperties@2@PEBQEBVPxShape@2@I@Z 000000018002a08c     PhysX3Extensions:ExtRigidBodyExt.obj
 0004:00001098       $pdata$2$?computeMassPropertiesFromShapes@PxRigidBodyExt@physx@@SA?AVPxMassProperties@2@PEBQEBVPxShape@2@I@Z 000000018002a098     PhysX3Extensions:ExtRigidBodyExt.obj
 0004:000010a4       $pdata$3$?computeMassPropertiesFromShapes@PxRigidBodyExt@physx@@SA?AVPxMassProperties@2@PEBQEBVPxShape@2@I@Z 000000018002a0a4     PhysX3Extensions:ExtRigidBodyExt.obj
 0004:000010b0       $pdata$4$?computeMassPropertiesFromShapes@PxRigidBodyExt@physx@@SA?AVPxMassProperties@2@PEBQEBVPxShape@2@I@Z 000000018002a0b0     PhysX3Extensions:ExtRigidBodyExt.obj
 0004:000010bc       $pdata$?addForceAtLocalPos@PxRigidBodyExt@physx@@SAXAEAVPxRigidBody@2@AEBVPxVec3@2@1W4Enum@PxForceMode@2@_N@Z 000000018002a0bc     PhysX3Extensions:ExtRigidBodyExt.obj
 0004:000010c8       $pdata$?addLocalForceAtPos@PxRigidBodyExt@physx@@SAXAEAVPxRigidBody@2@AEBVPxVec3@2@1W4Enum@PxForceMode@2@_N@Z 000000018002a0c8     PhysX3Extensions:ExtRigidBodyExt.obj
 0004:000010d4       $pdata$?addLocalForceAtLocalPos@PxRigidBodyExt@physx@@SAXAEAVPxRigidBody@2@AEBVPxVec3@2@1W4Enum@PxForceMode@2@_N@Z 000000018002a0d4     PhysX3Extensions:ExtRigidBodyExt.obj
 0004:000010e0       $pdata$?getVelocityAtPos@PxRigidBodyExt@physx@@SA?AVPxVec3@2@AEBVPxRigidBody@2@AEBV32@@Z 000000018002a0e0     PhysX3Extensions:ExtRigidBodyExt.obj
 0004:000010ec       $pdata$?getLocalVelocityAtLocalPos@PxRigidBodyExt@physx@@SA?AVPxVec3@2@AEBVPxRigidBody@2@AEBV32@@Z 000000018002a0ec     PhysX3Extensions:ExtRigidBodyExt.obj
 0004:000010f8       $pdata$?getVelocityAtOffset@PxRigidBodyExt@physx@@SA?AVPxVec3@2@AEBVPxRigidBody@2@AEBV32@@Z 000000018002a0f8     PhysX3Extensions:ExtRigidBodyExt.obj
 0004:00001104       $pdata$?linearSweepSingle@PxRigidBodyExt@physx@@SA_NAEAVPxRigidBody@2@AEAVPxScene@2@AEBVPxVec3@2@MV?$PxFlags@W4Enum@PxHitFlag@physx@@G@2@AEAUPxSweepHit@2@AEAIAEBUPxQueryFilterData@2@PEAVPxQueryFilterCallback@2@PEBUPxQueryCache@2@M@Z 000000018002a104     PhysX3Extensions:ExtRigidBodyExt.obj
 0004:00001110       $pdata$2$?linearSweepSingle@PxRigidBodyExt@physx@@SA_NAEAVPxRigidBody@2@AEAVPxScene@2@AEBVPxVec3@2@MV?$PxFlags@W4Enum@PxHitFlag@physx@@G@2@AEAUPxSweepHit@2@AEAIAEBUPxQueryFilterData@2@PEAVPxQueryFilterCallback@2@PEBUPxQueryCache@2@M@Z 000000018002a110     PhysX3Extensions:ExtRigidBodyExt.obj
 0004:0000111c       $pdata$3$?linearSweepSingle@PxRigidBodyExt@physx@@SA_NAEAVPxRigidBody@2@AEAVPxScene@2@AEBVPxVec3@2@MV?$PxFlags@W4Enum@PxHitFlag@physx@@G@2@AEAUPxSweepHit@2@AEAIAEBUPxQueryFilterData@2@PEAVPxQueryFilterCallback@2@PEBUPxQueryCache@2@M@Z 000000018002a11c     PhysX3Extensions:ExtRigidBodyExt.obj
 0004:00001128       $pdata$?linearSweepMultiple@PxRigidBodyExt@physx@@SAIAEAVPxRigidBody@2@AEAVPxScene@2@AEBVPxVec3@2@MV?$PxFlags@W4Enum@PxHitFlag@physx@@G@2@PEAUPxSweepHit@2@PEAIIAEAU72@AEAHAEA_NAEBUPxQueryFilterData@2@PEAVPxQueryFilterCallback@2@PEBUPxQueryCache@2@M@Z 000000018002a128     PhysX3Extensions:ExtRigidBodyExt.obj
 0004:00001134       $pdata$1$?linearSweepMultiple@PxRigidBodyExt@physx@@SAIAEAVPxRigidBody@2@AEAVPxScene@2@AEBVPxVec3@2@MV?$PxFlags@W4Enum@PxHitFlag@physx@@G@2@PEAUPxSweepHit@2@PEAIIAEAU72@AEAHAEA_NAEBUPxQueryFilterData@2@PEAVPxQueryFilterCallback@2@PEBUPxQueryCache@2@M@Z 000000018002a134     PhysX3Extensions:ExtRigidBodyExt.obj
 0004:00001140       $pdata$2$?linearSweepMultiple@PxRigidBodyExt@physx@@SAIAEAVPxRigidBody@2@AEAVPxScene@2@AEBVPxVec3@2@MV?$PxFlags@W4Enum@PxHitFlag@physx@@G@2@PEAUPxSweepHit@2@PEAIIAEAU72@AEAHAEA_NAEBUPxQueryFilterData@2@PEAVPxQueryFilterCallback@2@PEBUPxQueryCache@2@M@Z 000000018002a140     PhysX3Extensions:ExtRigidBodyExt.obj
 0004:0000114c       $pdata$?computeVelocityDeltaFromImpulse@PxRigidBodyExt@physx@@SAXAEBVPxRigidBody@2@AEBVPxVec3@2@1AEAV42@2@Z 000000018002a14c     PhysX3Extensions:ExtRigidBodyExt.obj
 0004:00001158       $pdata$?computeVelocityDeltaFromImpulse@PxRigidBodyExt@physx@@SAXAEBVPxRigidBody@2@AEBVPxTransform@2@AEBVPxVec3@2@2MMAEAV52@3@Z 000000018002a158     PhysX3Extensions:ExtRigidBodyExt.obj
 0004:00001164       $pdata$?computeLinearAngularImpulse@PxRigidBodyExt@physx@@SAXAEBVPxRigidBody@2@AEBVPxTransform@2@AEBVPxVec3@2@2MMAEAV52@3@Z 000000018002a164     PhysX3Extensions:ExtRigidBodyExt.obj
 0004:00001170       $pdata$?translate@InertiaTensorComputer@Ext@physx@@QEAAXAEBVPxVec3@3@@Z 000000018002a170     PhysX3Extensions:ExtRigidBodyExt.obj
 0004:0000117c       $pdata$7$?translate@InertiaTensorComputer@Ext@physx@@QEAAXAEBVPxVec3@3@@Z 000000018002a17c     PhysX3Extensions:ExtRigidBodyExt.obj
 0004:00001188       $pdata$8$?translate@InertiaTensorComputer@Ext@physx@@QEAAXAEBVPxVec3@3@@Z 000000018002a188     PhysX3Extensions:ExtRigidBodyExt.obj
 0004:00001194       $pdata$?setCapsule@InertiaTensorComputer@Ext@physx@@QEAAXHMM@Z 000000018002a194     PhysX3Extensions:ExtRigidBodyExt.obj
 0004:000011a0       $pdata$?setEllipsoid@InertiaTensorComputer@Ext@physx@@QEAAXMMM@Z 000000018002a1a0     PhysX3Extensions:ExtRigidBodyExt.obj
 0004:000011ac       $pdata$??0PxMassProperties@physx@@QEAA@AEBVPxGeometry@1@@Z 000000018002a1ac     PhysX3Extensions:ExtRigidBodyExt.obj
 0004:000011b8       $pdata$6$??0PxMassProperties@physx@@QEAA@AEBVPxGeometry@1@@Z 000000018002a1b8     PhysX3Extensions:ExtRigidBodyExt.obj
 0004:000011c4       $pdata$7$??0PxMassProperties@physx@@QEAA@AEBVPxGeometry@1@@Z 000000018002a1c4     PhysX3Extensions:ExtRigidBodyExt.obj
 0004:000011d0       $pdata$??_G?$PxHitBuffer@UPxSweepHit@physx@@@physx@@UEAAPEAXI@Z 000000018002a1d0     PhysX3Extensions:ExtRigidBodyExt.obj
 0004:000011dc       $pdata$??_G?$PxHitCallback@UPxSweepHit@physx@@@physx@@UEAAPEAXI@Z 000000018002a1dc     PhysX3Extensions:ExtRigidBodyExt.obj
 0004:000011e8       $pdata$?addForceAtPosInternal@@YAXAEAVPxRigidBody@physx@@AEBVPxVec3@2@1W4Enum@PxForceMode@2@_N@Z 000000018002a1e8     PhysX3Extensions:ExtRigidBodyExt.obj
 0004:000011f4       $pdata$6$?addForceAtPosInternal@@YAXAEAVPxRigidBody@physx@@AEBVPxVec3@2@1W4Enum@PxForceMode@2@_N@Z 000000018002a1f4     PhysX3Extensions:ExtRigidBodyExt.obj
 0004:00001200       $pdata$7$?addForceAtPosInternal@@YAXAEAVPxRigidBody@physx@@AEBVPxVec3@2@1W4Enum@PxForceMode@2@_N@Z 000000018002a200     PhysX3Extensions:ExtRigidBodyExt.obj
 0004:0000120c       $pdata$?allocate@?$ReflectionAllocator@PEAVPxShape@physx@@@shdfnd@physx@@QEAAPEAX_KPEBDH@Z 000000018002a20c     PhysX3Extensions:ExtRigidBodyExt.obj
 0004:00001218       $pdata$0$?allocate@?$ReflectionAllocator@PEAVPxShape@physx@@@shdfnd@physx@@QEAAPEAX_KPEBDH@Z 000000018002a218     PhysX3Extensions:ExtRigidBodyExt.obj
 0004:00001224       $pdata$1$?allocate@?$ReflectionAllocator@PEAVPxShape@physx@@@shdfnd@physx@@QEAAPEAX_KPEBDH@Z 000000018002a224     PhysX3Extensions:ExtRigidBodyExt.obj
 0004:00001230       $pdata$?allocate@?$ReflectionAllocator@VPxMassProperties@physx@@@shdfnd@physx@@QEAAPEAX_KPEBDH@Z 000000018002a230     PhysX3Extensions:ExtRigidBodyExt.obj
 0004:0000123c       $pdata$0$?allocate@?$ReflectionAllocator@VPxMassProperties@physx@@@shdfnd@physx@@QEAAPEAX_KPEBDH@Z 000000018002a23c     PhysX3Extensions:ExtRigidBodyExt.obj
 0004:00001248       $pdata$1$?allocate@?$ReflectionAllocator@VPxMassProperties@physx@@@shdfnd@physx@@QEAAPEAX_KPEBDH@Z 000000018002a248     PhysX3Extensions:ExtRigidBodyExt.obj
 0004:00001254       $pdata$?allocate@?$ReflectionAllocator@VPxTransform@physx@@@shdfnd@physx@@QEAAPEAX_KPEBDH@Z 000000018002a254     PhysX3Extensions:ExtRigidBodyExt.obj
 0004:00001260       $pdata$0$?allocate@?$ReflectionAllocator@VPxTransform@physx@@@shdfnd@physx@@QEAAPEAX_KPEBDH@Z 000000018002a260     PhysX3Extensions:ExtRigidBodyExt.obj
 0004:0000126c       $pdata$1$?allocate@?$ReflectionAllocator@VPxTransform@physx@@@shdfnd@physx@@QEAAPEAX_KPEBDH@Z 000000018002a26c     PhysX3Extensions:ExtRigidBodyExt.obj
 0004:00001278       $pdata$?computeMassAndDiagInertia@@YA_NAEAVInertiaTensorComputer@Ext@physx@@AEAVPxVec3@3@AEAVPxQuat@3@AEAM1_NAEBVPxRigidBody@3@PEBD@Z 000000018002a278     PhysX3Extensions:ExtRigidBodyExt.obj
 0004:00001284       $pdata$8$?computeMassAndDiagInertia@@YA_NAEAVInertiaTensorComputer@Ext@physx@@AEAVPxVec3@3@AEAVPxQuat@3@AEAM1_NAEBVPxRigidBody@3@PEBD@Z 000000018002a284     PhysX3Extensions:ExtRigidBodyExt.obj
 0004:00001290       $pdata$9$?computeMassAndDiagInertia@@YA_NAEAVInertiaTensorComputer@Ext@physx@@AEAVPxVec3@3@AEAVPxQuat@3@AEAM1_NAEBVPxRigidBody@3@PEBD@Z 000000018002a290     PhysX3Extensions:ExtRigidBodyExt.obj
 0004:0000129c       $pdata$?computeMassAndInertia@@YA_N_NAEAVPxRigidBody@physx@@PEBM2I0AEAVInertiaTensorComputer@Ext@2@@Z 000000018002a29c     PhysX3Extensions:ExtRigidBodyExt.obj
 0004:000012a8       $pdata$11$?computeMassAndInertia@@YA_N_NAEAVPxRigidBody@physx@@PEBM2I0AEAVInertiaTensorComputer@Ext@2@@Z 000000018002a2a8     PhysX3Extensions:ExtRigidBodyExt.obj
 0004:000012b4       $pdata$14$?computeMassAndInertia@@YA_N_NAEAVPxRigidBody@physx@@PEBM2I0AEAVInertiaTensorComputer@Ext@2@@Z 000000018002a2b4     PhysX3Extensions:ExtRigidBodyExt.obj
 0004:000012c0       $pdata$15$?computeMassAndInertia@@YA_N_NAEAVPxRigidBody@physx@@PEBM2I0AEAVInertiaTensorComputer@Ext@2@@Z 000000018002a2c0     PhysX3Extensions:ExtRigidBodyExt.obj
 0004:000012cc       $pdata$?copy@?$Array@VPxMassProperties@physx@@V?$InlineAllocator@$0DEA@V?$ReflectionAllocator@VPxMassProperties@physx@@@shdfnd@physx@@@shdfnd@2@@shdfnd@physx@@KAXPEAVPxMassProperties@3@0PEBV43@@Z 000000018002a2cc     PhysX3Extensions:ExtRigidBodyExt.obj
 0004:000012d8       $pdata$0$?copy@?$Array@VPxMassProperties@physx@@V?$InlineAllocator@$0DEA@V?$ReflectionAllocator@VPxMassProperties@physx@@@shdfnd@physx@@@shdfnd@2@@shdfnd@physx@@KAXPEAVPxMassProperties@3@0PEBV43@@Z 000000018002a2d8     PhysX3Extensions:ExtRigidBodyExt.obj
 0004:000012e4       $pdata$1$?copy@?$Array@VPxMassProperties@physx@@V?$InlineAllocator@$0DEA@V?$ReflectionAllocator@VPxMassProperties@physx@@@shdfnd@physx@@@shdfnd@2@@shdfnd@physx@@KAXPEAVPxMassProperties@3@0PEBV43@@Z 000000018002a2e4     PhysX3Extensions:ExtRigidBodyExt.obj
 0004:000012f0       $pdata$?copy@?$Array@VPxTransform@physx@@V?$InlineAllocator@$0BMA@V?$ReflectionAllocator@VPxTransform@physx@@@shdfnd@physx@@@shdfnd@2@@shdfnd@physx@@KAXPEAVPxTransform@3@0PEBV43@@Z 000000018002a2f0     PhysX3Extensions:ExtRigidBodyExt.obj
 0004:000012fc       $pdata$0$?copy@?$Array@VPxTransform@physx@@V?$InlineAllocator@$0BMA@V?$ReflectionAllocator@VPxTransform@physx@@@shdfnd@physx@@@shdfnd@2@@shdfnd@physx@@KAXPEAVPxTransform@3@0PEBV43@@Z 000000018002a2fc     PhysX3Extensions:ExtRigidBodyExt.obj
 0004:00001308       $pdata$1$?copy@?$Array@VPxTransform@physx@@V?$InlineAllocator@$0BMA@V?$ReflectionAllocator@VPxTransform@physx@@@shdfnd@physx@@@shdfnd@2@@shdfnd@physx@@KAXPEAVPxTransform@3@0PEBV43@@Z 000000018002a308     PhysX3Extensions:ExtRigidBodyExt.obj
 0004:00001314       $pdata$?getVelocityAtPosInternal@@YA?AVPxVec3@physx@@AEBVPxRigidBody@2@AEBV12@@Z 000000018002a314     PhysX3Extensions:ExtRigidBodyExt.obj
 0004:00001320       $pdata$?growAndPushBack@?$Array@VPxMassProperties@physx@@V?$InlineAllocator@$0DEA@V?$ReflectionAllocator@VPxMassProperties@physx@@@shdfnd@physx@@@shdfnd@2@@shdfnd@physx@@IEAAAEAVPxMassProperties@3@AEBV43@@Z 000000018002a320     PhysX3Extensions:ExtRigidBodyExt.obj
 0004:0000132c       $pdata$?growAndPushBack@?$Array@VPxTransform@physx@@V?$InlineAllocator@$0BMA@V?$ReflectionAllocator@VPxTransform@physx@@@shdfnd@physx@@@shdfnd@2@@shdfnd@physx@@IEAAAEAVPxTransform@3@AEBV43@@Z 000000018002a32c     PhysX3Extensions:ExtRigidBodyExt.obj
 0004:00001338       $pdata$?recreate@?$Array@PEAVPxShape@physx@@V?$InlineAllocator@$0IA@V?$ReflectionAllocator@PEAVPxShape@physx@@@shdfnd@physx@@@shdfnd@2@@shdfnd@physx@@IEAAXI@Z 000000018002a338     PhysX3Extensions:ExtRigidBodyExt.obj
 0004:00001344       $pdata$?recreate@?$Array@VPxMassProperties@physx@@V?$InlineAllocator@$0DEA@V?$ReflectionAllocator@VPxMassProperties@physx@@@shdfnd@physx@@@shdfnd@2@@shdfnd@physx@@IEAAXI@Z 000000018002a344     PhysX3Extensions:ExtRigidBodyExt.obj
 0004:00001350       $pdata$?recreate@?$Array@VPxTransform@physx@@V?$InlineAllocator@$0BMA@V?$ReflectionAllocator@VPxTransform@physx@@@shdfnd@physx@@@shdfnd@2@@shdfnd@physx@@IEAAXI@Z 000000018002a350     PhysX3Extensions:ExtRigidBodyExt.obj
 0004:0000135c       $pdata$?resize@?$Array@PEAVPxShape@physx@@V?$InlineAllocator@$0IA@V?$ReflectionAllocator@PEAVPxShape@physx@@@shdfnd@physx@@@shdfnd@2@@shdfnd@physx@@QEAAXIAEBQEAVPxShape@3@@Z 000000018002a35c     PhysX3Extensions:ExtRigidBodyExt.obj
 0004:00001368       $pdata$?rotate@InertiaTensorComputer@Ext@physx@@QEAAXAEBVPxMat33@3@@Z 000000018002a368     PhysX3Extensions:ExtRigidBodyExt.obj
 0004:00001374       $pdata$?scaleInertia@PxMassProperties@physx@@SA?AVPxMat33@2@AEBV32@AEBVPxQuat@2@AEBVPxVec3@2@@Z 000000018002a374     PhysX3Extensions:ExtRigidBodyExt.obj
 0004:00001380       $pdata$?setMassAndUpdateInertia@@YA_N_NAEAVPxRigidBody@physx@@PEBMIPEBVPxVec3@2@0@Z 000000018002a380     PhysX3Extensions:ExtRigidBodyExt.obj
 0004:0000138c       $pdata$?sum@PxMassProperties@physx@@SA?AV12@PEBV12@PEBVPxTransform@2@I@Z 000000018002a38c     PhysX3Extensions:ExtRigidBodyExt.obj
 0004:00001398       $pdata$?transform@InertiaTensorComputer@Ext@physx@@QEAAXAEBVPxTransform@3@@Z 000000018002a398     PhysX3Extensions:ExtRigidBodyExt.obj
 0004:000013a4       $pdata$?transformFast@PxBounds3@physx@@SA?AV12@AEBVPxTransform@2@AEBV12@@Z 000000018002a3a4     PhysX3Extensions:ExtRigidBodyExt.obj
 0004:000013b0       $pdata$?transformInertiaTensor@Cm@physx@@YAXAEBVPxVec3@2@AEBVPxMat33@2@AEAV42@@Z 000000018002a3b0     PhysX3Extensions:ExtRigidBodyExt.obj
 0004:000013bc       $pdata$?updateMassAndInertia@@YA_N_NAEAVPxRigidBody@physx@@PEBMIPEBVPxVec3@2@0@Z 000000018002a3bc     PhysX3Extensions:ExtRigidBodyExt.obj
 0004:000013c8       $pdata$??_Gtype_info@@UEAAPEAXI@Z 000000018002a3c8     MSVCRT:std_type_info_static.obj
 0004:000013e0       $pdata$?dllmain_crt_dispatch@@YAHQEAUHINSTANCE__@@KQEAX@Z 000000018002a3e0     MSVCRT:dll_dllmain.obj
 0004:000013ec       $pdata$?dllmain_crt_process_attach@@YAHQEAUHINSTANCE__@@QEAX@Z 000000018002a3ec     MSVCRT:dll_dllmain.obj
 0004:000013f8       $pdata$?dllmain_crt_process_detach@@YAH_N@Z 000000018002a3f8     MSVCRT:dll_dllmain.obj
 0004:00001404       $pdata$?dllmain_dispatch@@YAHQEAUHINSTANCE__@@KQEAX@Z 000000018002a404     MSVCRT:dll_dllmain.obj
 0004:00001410       $pdata$?dllmain_raw@@YAHQEAUHINSTANCE__@@KQEAX@Z 000000018002a410     MSVCRT:dll_dllmain.obj
 0004:0000141c       $pdata$_DllMainCRTStartup  000000018002a41c     MSVCRT:dll_dllmain.obj
 0004:00001428       $pdata$?configure_argv@__scrt_narrow_argv_policy@@SAHXZ 000000018002a428     MSVCRT:utility.obj
 0004:00001434       $pdata$__scrt_acquire_startup_lock 000000018002a434     MSVCRT:utility.obj
 0004:00001440       $pdata$__scrt_dllmain_after_initialize_c 000000018002a440     MSVCRT:utility.obj
 0004:0000144c       $pdata$__scrt_dllmain_before_initialize_c 000000018002a44c     MSVCRT:utility.obj
 0004:00001458       $pdata$__scrt_dllmain_crt_thread_attach 000000018002a458     MSVCRT:utility.obj
 0004:00001464       $pdata$__scrt_dllmain_crt_thread_detach 000000018002a464     MSVCRT:utility.obj
 0004:00001470       $pdata$__scrt_dllmain_exception_filter 000000018002a470     MSVCRT:utility.obj
 0004:0000147c       $pdata$__scrt_dllmain_uninitialize_c 000000018002a47c     MSVCRT:utility.obj
 0004:00001488       $pdata$__scrt_dllmain_uninitialize_critical 000000018002a488     MSVCRT:utility.obj
 0004:00001494       $pdata$__scrt_initialize_crt 000000018002a494     MSVCRT:utility.obj
 0004:000014a0       $pdata$__scrt_initialize_onexit_tables 000000018002a4a0     MSVCRT:utility.obj
 0004:000014ac       $pdata$__scrt_is_nonwritable_in_current_image 000000018002a4ac     MSVCRT:utility.obj
 0004:000014b8       $pdata$__scrt_release_startup_lock 000000018002a4b8     MSVCRT:utility.obj
 0004:000014c4       $pdata$__scrt_uninitialize_crt 000000018002a4c4     MSVCRT:utility.obj
 0004:000014d0       $pdata$_onexit             000000018002a4d0     MSVCRT:utility.obj
 0004:000014dc       $pdata$atexit              000000018002a4dc     MSVCRT:utility.obj
 0004:000014e8       $pdata$__security_init_cookie 000000018002a4e8     MSVCRT:gs_support.obj
 0004:000014f4       $pdata$DllMain             000000018002a4f4     MSVCRT:dll_dllmain_stub.obj
 0004:00001500       $pdata$__scrt_initialize_default_local_stdio_options 000000018002a500     MSVCRT:default_local_stdio_options.obj
 0004:0000150c       $pdata$__scrt_fastfail     000000018002a50c     MSVCRT:utility_desktop.obj
 0004:00001518       $pdata$__scrt_get_show_window_mode 000000018002a518     MSVCRT:utility_desktop.obj
 0004:00001524       $pdata$__scrt_is_managed_app 000000018002a524     MSVCRT:utility_desktop.obj
 0004:00001530       $pdata$__scrt_unhandled_exception_filter 000000018002a530     MSVCRT:utility_desktop.obj
 0004:0000153c       $pdata$_RTC_Initialize     000000018002a53c     MSVCRT:_initsect_.obj
 0004:00001548       $pdata$_RTC_Terminate      000000018002a548     MSVCRT:_initsect_.obj
 0004:00001554       $pdata$__isa_available_init 000000018002a554     MSVCRT:_cpu_disp_.obj
 0004:0000156c       $pdata$?fin$0@?0??dllmain_crt_process_attach@@YAHQEAUHINSTANCE__@@QEAX@Z@4HA 000000018002a56c     MSVCRT:dll_dllmain.obj
 0004:00001578       $pdata$?fin$0@?0??dllmain_crt_process_detach@@YAH_N@Z@4HA 000000018002a578     MSVCRT:dll_dllmain.obj
 0004:00001584       $pdata$?filt$0@?0??dllmain_dispatch@@YAHQEAUHINSTANCE__@@KQEAX@Z@4HA 000000018002a584     MSVCRT:dll_dllmain.obj
 0004:00001590       $pdata$__scrt_is_nonwritable_in_current_image$filt$0 000000018002a590     MSVCRT:utility.obj
 0005:00000000       __guard_fids__             000000018002b000     MSVCRT:std_type_info_static.obj
 0005:00000004       __guard_fids_?dllmain_crt_process_attach@@YAHQEAUHINSTANCE__@@QEAX@Z 000000018002b004     MSVCRT:dll_dllmain.obj
 0005:0000000c       __guard_fids_?dllmain_dispatch@@YAHQEAUHINSTANCE__@@KQEAX@Z 000000018002b00c     MSVCRT:dll_dllmain.obj
 0005:00000010       __guard_fids___scrt_set_unhandled_exception_filter 000000018002b010     MSVCRT:utility_desktop.obj
 0005:00000014       __guard_fids__             000000018002b014     MSVCRT:guard_support.obj
 0005:00000018       __guard_fids__guard_icall_checks_enforced 000000018002b018     MSVCRT:guard_support.obj
 0006:000000a0       $R000000                   000000018002c0a0     PhysX3CharacterKinematic.res
 0006:00000420       $R000380                   000000018002c420     PhysX3CharacterKinematic.res
